
TriSineWaveGenerator.elf:     file format elf32-littlearm

Sections:
Idx Name          Size      VMA       LMA       File off  Algn
  0 .isr_vector   000000c0  08000000  08000000  00010000  2**0
                  CONTENTS, ALLOC, LOAD, READONLY, DATA
  1 .text         00005bf4  080000c0  080000c0  000100c0  2**2
                  CONTENTS, ALLOC, LOAD, READONLY, CODE
  2 .rodata       00000c10  08005cb4  08005cb4  00015cb4  2**2
                  CONTENTS, ALLOC, LOAD, READONLY, DATA
  3 .ARM.extab    00000000  080068c4  080068c4  000205a0  2**0
                  CONTENTS
  4 .ARM          00000000  080068c4  080068c4  000205a0  2**0
                  CONTENTS
  5 .preinit_array 00000000  080068c4  080068c4  000205a0  2**0
                  CONTENTS, ALLOC, LOAD, DATA
  6 .init_array   00000004  080068c4  080068c4  000168c4  2**2
                  CONTENTS, ALLOC, LOAD, DATA
  7 .fini_array   00000004  080068c8  080068c8  000168c8  2**2
                  CONTENTS, ALLOC, LOAD, DATA
  8 .data         000005a0  20000000  080068cc  00020000  2**2
                  CONTENTS, ALLOC, LOAD, DATA
  9 .bss          000003bc  200005a0  08006e6c  000205a0  2**2
                  ALLOC
 10 ._user_heap_stack 00000484  2000095c  08006e6c  0002095c  2**0
                  ALLOC
 11 .ARM.attributes 00000028  00000000  00000000  000205a0  2**0
                  CONTENTS, READONLY
 12 .comment      00000043  00000000  00000000  000205c8  2**0
                  CONTENTS, READONLY
 13 .debug_line   00034fd8  00000000  00000000  0002060b  2**0
                  CONTENTS, READONLY, DEBUGGING, OCTETS
 14 .debug_line_str 00000076  00000000  00000000  000555e3  2**0
                  CONTENTS, READONLY, DEBUGGING, OCTETS
 15 .debug_info   0003d072  00000000  00000000  00055659  2**0
                  CONTENTS, READONLY, DEBUGGING, OCTETS
 16 .debug_abbrev 00006b77  00000000  00000000  000926cb  2**0
                  CONTENTS, READONLY, DEBUGGING, OCTETS
 17 .debug_aranges 00001638  00000000  00000000  00099248  2**3
                  CONTENTS, READONLY, DEBUGGING, OCTETS
 18 .debug_str    0007d1ea  00000000  00000000  0009a880  2**0
                  CONTENTS, READONLY, DEBUGGING, OCTETS
 19 .debug_rnglists 000020ea  00000000  00000000  00117a6a  2**0
                  CONTENTS, READONLY, DEBUGGING, OCTETS
 20 .debug_macro  0001912d  00000000  00000000  00119b54  2**0
                  CONTENTS, READONLY, DEBUGGING, OCTETS
 21 .debug_frame  00003c00  00000000  00000000  00132c84  2**2
                  CONTENTS, READONLY, DEBUGGING, OCTETS
 22 .debug_loclists 00011cc9  00000000  00000000  00136884  2**0
                  CONTENTS, READONLY, DEBUGGING, OCTETS

Disassembly of section .text:

080000c0 <__do_global_dtors_aux>:
 80000c0:	b510      	push	{r4, lr}
 80000c2:	4c06      	ldr	r4, [pc, #24]	; (80000dc <__do_global_dtors_aux+0x1c>)
 80000c4:	7823      	ldrb	r3, [r4, #0]
 80000c6:	2b00      	cmp	r3, #0
 80000c8:	d107      	bne.n	80000da <__do_global_dtors_aux+0x1a>
 80000ca:	4b05      	ldr	r3, [pc, #20]	; (80000e0 <__do_global_dtors_aux+0x20>)
 80000cc:	2b00      	cmp	r3, #0
 80000ce:	d002      	beq.n	80000d6 <__do_global_dtors_aux+0x16>
 80000d0:	4804      	ldr	r0, [pc, #16]	; (80000e4 <__do_global_dtors_aux+0x24>)
 80000d2:	e000      	b.n	80000d6 <__do_global_dtors_aux+0x16>
 80000d4:	bf00      	nop
 80000d6:	2301      	movs	r3, #1
 80000d8:	7023      	strb	r3, [r4, #0]
 80000da:	bd10      	pop	{r4, pc}
 80000dc:	200005a0 	.word	0x200005a0
 80000e0:	00000000 	.word	0x00000000
 80000e4:	08005c9c 	.word	0x08005c9c

080000e8 <frame_dummy>:
 80000e8:	4b04      	ldr	r3, [pc, #16]	; (80000fc <frame_dummy+0x14>)
 80000ea:	b510      	push	{r4, lr}
 80000ec:	2b00      	cmp	r3, #0
 80000ee:	d003      	beq.n	80000f8 <frame_dummy+0x10>
 80000f0:	4903      	ldr	r1, [pc, #12]	; (8000100 <frame_dummy+0x18>)
 80000f2:	4804      	ldr	r0, [pc, #16]	; (8000104 <frame_dummy+0x1c>)
 80000f4:	e000      	b.n	80000f8 <frame_dummy+0x10>
 80000f6:	bf00      	nop
 80000f8:	bd10      	pop	{r4, pc}
 80000fa:	46c0      	nop			; (mov r8, r8)
 80000fc:	00000000 	.word	0x00000000
 8000100:	200005a4 	.word	0x200005a4
 8000104:	08005c9c 	.word	0x08005c9c

08000108 <__udivsi3>:
 8000108:	2200      	movs	r2, #0
 800010a:	0843      	lsrs	r3, r0, #1
 800010c:	428b      	cmp	r3, r1
 800010e:	d374      	bcc.n	80001fa <__udivsi3+0xf2>
 8000110:	0903      	lsrs	r3, r0, #4
 8000112:	428b      	cmp	r3, r1
 8000114:	d35f      	bcc.n	80001d6 <__udivsi3+0xce>
 8000116:	0a03      	lsrs	r3, r0, #8
 8000118:	428b      	cmp	r3, r1
 800011a:	d344      	bcc.n	80001a6 <__udivsi3+0x9e>
 800011c:	0b03      	lsrs	r3, r0, #12
 800011e:	428b      	cmp	r3, r1
 8000120:	d328      	bcc.n	8000174 <__udivsi3+0x6c>
 8000122:	0c03      	lsrs	r3, r0, #16
 8000124:	428b      	cmp	r3, r1
 8000126:	d30d      	bcc.n	8000144 <__udivsi3+0x3c>
 8000128:	22ff      	movs	r2, #255	; 0xff
 800012a:	0209      	lsls	r1, r1, #8
 800012c:	ba12      	rev	r2, r2
 800012e:	0c03      	lsrs	r3, r0, #16
 8000130:	428b      	cmp	r3, r1
 8000132:	d302      	bcc.n	800013a <__udivsi3+0x32>
 8000134:	1212      	asrs	r2, r2, #8
 8000136:	0209      	lsls	r1, r1, #8
 8000138:	d065      	beq.n	8000206 <__udivsi3+0xfe>
 800013a:	0b03      	lsrs	r3, r0, #12
 800013c:	428b      	cmp	r3, r1
 800013e:	d319      	bcc.n	8000174 <__udivsi3+0x6c>
 8000140:	e000      	b.n	8000144 <__udivsi3+0x3c>
 8000142:	0a09      	lsrs	r1, r1, #8
 8000144:	0bc3      	lsrs	r3, r0, #15
 8000146:	428b      	cmp	r3, r1
 8000148:	d301      	bcc.n	800014e <__udivsi3+0x46>
 800014a:	03cb      	lsls	r3, r1, #15
 800014c:	1ac0      	subs	r0, r0, r3
 800014e:	4152      	adcs	r2, r2
 8000150:	0b83      	lsrs	r3, r0, #14
 8000152:	428b      	cmp	r3, r1
 8000154:	d301      	bcc.n	800015a <__udivsi3+0x52>
 8000156:	038b      	lsls	r3, r1, #14
 8000158:	1ac0      	subs	r0, r0, r3
 800015a:	4152      	adcs	r2, r2
 800015c:	0b43      	lsrs	r3, r0, #13
 800015e:	428b      	cmp	r3, r1
 8000160:	d301      	bcc.n	8000166 <__udivsi3+0x5e>
 8000162:	034b      	lsls	r3, r1, #13
 8000164:	1ac0      	subs	r0, r0, r3
 8000166:	4152      	adcs	r2, r2
 8000168:	0b03      	lsrs	r3, r0, #12
 800016a:	428b      	cmp	r3, r1
 800016c:	d301      	bcc.n	8000172 <__udivsi3+0x6a>
 800016e:	030b      	lsls	r3, r1, #12
 8000170:	1ac0      	subs	r0, r0, r3
 8000172:	4152      	adcs	r2, r2
 8000174:	0ac3      	lsrs	r3, r0, #11
 8000176:	428b      	cmp	r3, r1
 8000178:	d301      	bcc.n	800017e <__udivsi3+0x76>
 800017a:	02cb      	lsls	r3, r1, #11
 800017c:	1ac0      	subs	r0, r0, r3
 800017e:	4152      	adcs	r2, r2
 8000180:	0a83      	lsrs	r3, r0, #10
 8000182:	428b      	cmp	r3, r1
 8000184:	d301      	bcc.n	800018a <__udivsi3+0x82>
 8000186:	028b      	lsls	r3, r1, #10
 8000188:	1ac0      	subs	r0, r0, r3
 800018a:	4152      	adcs	r2, r2
 800018c:	0a43      	lsrs	r3, r0, #9
 800018e:	428b      	cmp	r3, r1
 8000190:	d301      	bcc.n	8000196 <__udivsi3+0x8e>
 8000192:	024b      	lsls	r3, r1, #9
 8000194:	1ac0      	subs	r0, r0, r3
 8000196:	4152      	adcs	r2, r2
 8000198:	0a03      	lsrs	r3, r0, #8
 800019a:	428b      	cmp	r3, r1
 800019c:	d301      	bcc.n	80001a2 <__udivsi3+0x9a>
 800019e:	020b      	lsls	r3, r1, #8
 80001a0:	1ac0      	subs	r0, r0, r3
 80001a2:	4152      	adcs	r2, r2
 80001a4:	d2cd      	bcs.n	8000142 <__udivsi3+0x3a>
 80001a6:	09c3      	lsrs	r3, r0, #7
 80001a8:	428b      	cmp	r3, r1
 80001aa:	d301      	bcc.n	80001b0 <__udivsi3+0xa8>
 80001ac:	01cb      	lsls	r3, r1, #7
 80001ae:	1ac0      	subs	r0, r0, r3
 80001b0:	4152      	adcs	r2, r2
 80001b2:	0983      	lsrs	r3, r0, #6
 80001b4:	428b      	cmp	r3, r1
 80001b6:	d301      	bcc.n	80001bc <__udivsi3+0xb4>
 80001b8:	018b      	lsls	r3, r1, #6
 80001ba:	1ac0      	subs	r0, r0, r3
 80001bc:	4152      	adcs	r2, r2
 80001be:	0943      	lsrs	r3, r0, #5
 80001c0:	428b      	cmp	r3, r1
 80001c2:	d301      	bcc.n	80001c8 <__udivsi3+0xc0>
 80001c4:	014b      	lsls	r3, r1, #5
 80001c6:	1ac0      	subs	r0, r0, r3
 80001c8:	4152      	adcs	r2, r2
 80001ca:	0903      	lsrs	r3, r0, #4
 80001cc:	428b      	cmp	r3, r1
 80001ce:	d301      	bcc.n	80001d4 <__udivsi3+0xcc>
 80001d0:	010b      	lsls	r3, r1, #4
 80001d2:	1ac0      	subs	r0, r0, r3
 80001d4:	4152      	adcs	r2, r2
 80001d6:	08c3      	lsrs	r3, r0, #3
 80001d8:	428b      	cmp	r3, r1
 80001da:	d301      	bcc.n	80001e0 <__udivsi3+0xd8>
 80001dc:	00cb      	lsls	r3, r1, #3
 80001de:	1ac0      	subs	r0, r0, r3
 80001e0:	4152      	adcs	r2, r2
 80001e2:	0883      	lsrs	r3, r0, #2
 80001e4:	428b      	cmp	r3, r1
 80001e6:	d301      	bcc.n	80001ec <__udivsi3+0xe4>
 80001e8:	008b      	lsls	r3, r1, #2
 80001ea:	1ac0      	subs	r0, r0, r3
 80001ec:	4152      	adcs	r2, r2
 80001ee:	0843      	lsrs	r3, r0, #1
 80001f0:	428b      	cmp	r3, r1
 80001f2:	d301      	bcc.n	80001f8 <__udivsi3+0xf0>
 80001f4:	004b      	lsls	r3, r1, #1
 80001f6:	1ac0      	subs	r0, r0, r3
 80001f8:	4152      	adcs	r2, r2
 80001fa:	1a41      	subs	r1, r0, r1
 80001fc:	d200      	bcs.n	8000200 <__udivsi3+0xf8>
 80001fe:	4601      	mov	r1, r0
 8000200:	4152      	adcs	r2, r2
 8000202:	4610      	mov	r0, r2
 8000204:	4770      	bx	lr
 8000206:	e7ff      	b.n	8000208 <__udivsi3+0x100>
 8000208:	b501      	push	{r0, lr}
 800020a:	2000      	movs	r0, #0
 800020c:	f000 f8f0 	bl	80003f0 <__aeabi_idiv0>
 8000210:	bd02      	pop	{r1, pc}
 8000212:	46c0      	nop			; (mov r8, r8)

08000214 <__aeabi_uidivmod>:
 8000214:	2900      	cmp	r1, #0
 8000216:	d0f7      	beq.n	8000208 <__udivsi3+0x100>
 8000218:	e776      	b.n	8000108 <__udivsi3>
 800021a:	4770      	bx	lr

0800021c <__divsi3>:
 800021c:	4603      	mov	r3, r0
 800021e:	430b      	orrs	r3, r1
 8000220:	d47f      	bmi.n	8000322 <__divsi3+0x106>
 8000222:	2200      	movs	r2, #0
 8000224:	0843      	lsrs	r3, r0, #1
 8000226:	428b      	cmp	r3, r1
 8000228:	d374      	bcc.n	8000314 <__divsi3+0xf8>
 800022a:	0903      	lsrs	r3, r0, #4
 800022c:	428b      	cmp	r3, r1
 800022e:	d35f      	bcc.n	80002f0 <__divsi3+0xd4>
 8000230:	0a03      	lsrs	r3, r0, #8
 8000232:	428b      	cmp	r3, r1
 8000234:	d344      	bcc.n	80002c0 <__divsi3+0xa4>
 8000236:	0b03      	lsrs	r3, r0, #12
 8000238:	428b      	cmp	r3, r1
 800023a:	d328      	bcc.n	800028e <__divsi3+0x72>
 800023c:	0c03      	lsrs	r3, r0, #16
 800023e:	428b      	cmp	r3, r1
 8000240:	d30d      	bcc.n	800025e <__divsi3+0x42>
 8000242:	22ff      	movs	r2, #255	; 0xff
 8000244:	0209      	lsls	r1, r1, #8
 8000246:	ba12      	rev	r2, r2
 8000248:	0c03      	lsrs	r3, r0, #16
 800024a:	428b      	cmp	r3, r1
 800024c:	d302      	bcc.n	8000254 <__divsi3+0x38>
 800024e:	1212      	asrs	r2, r2, #8
 8000250:	0209      	lsls	r1, r1, #8
 8000252:	d065      	beq.n	8000320 <__divsi3+0x104>
 8000254:	0b03      	lsrs	r3, r0, #12
 8000256:	428b      	cmp	r3, r1
 8000258:	d319      	bcc.n	800028e <__divsi3+0x72>
 800025a:	e000      	b.n	800025e <__divsi3+0x42>
 800025c:	0a09      	lsrs	r1, r1, #8
 800025e:	0bc3      	lsrs	r3, r0, #15
 8000260:	428b      	cmp	r3, r1
 8000262:	d301      	bcc.n	8000268 <__divsi3+0x4c>
 8000264:	03cb      	lsls	r3, r1, #15
 8000266:	1ac0      	subs	r0, r0, r3
 8000268:	4152      	adcs	r2, r2
 800026a:	0b83      	lsrs	r3, r0, #14
 800026c:	428b      	cmp	r3, r1
 800026e:	d301      	bcc.n	8000274 <__divsi3+0x58>
 8000270:	038b      	lsls	r3, r1, #14
 8000272:	1ac0      	subs	r0, r0, r3
 8000274:	4152      	adcs	r2, r2
 8000276:	0b43      	lsrs	r3, r0, #13
 8000278:	428b      	cmp	r3, r1
 800027a:	d301      	bcc.n	8000280 <__divsi3+0x64>
 800027c:	034b      	lsls	r3, r1, #13
 800027e:	1ac0      	subs	r0, r0, r3
 8000280:	4152      	adcs	r2, r2
 8000282:	0b03      	lsrs	r3, r0, #12
 8000284:	428b      	cmp	r3, r1
 8000286:	d301      	bcc.n	800028c <__divsi3+0x70>
 8000288:	030b      	lsls	r3, r1, #12
 800028a:	1ac0      	subs	r0, r0, r3
 800028c:	4152      	adcs	r2, r2
 800028e:	0ac3      	lsrs	r3, r0, #11
 8000290:	428b      	cmp	r3, r1
 8000292:	d301      	bcc.n	8000298 <__divsi3+0x7c>
 8000294:	02cb      	lsls	r3, r1, #11
 8000296:	1ac0      	subs	r0, r0, r3
 8000298:	4152      	adcs	r2, r2
 800029a:	0a83      	lsrs	r3, r0, #10
 800029c:	428b      	cmp	r3, r1
 800029e:	d301      	bcc.n	80002a4 <__divsi3+0x88>
 80002a0:	028b      	lsls	r3, r1, #10
 80002a2:	1ac0      	subs	r0, r0, r3
 80002a4:	4152      	adcs	r2, r2
 80002a6:	0a43      	lsrs	r3, r0, #9
 80002a8:	428b      	cmp	r3, r1
 80002aa:	d301      	bcc.n	80002b0 <__divsi3+0x94>
 80002ac:	024b      	lsls	r3, r1, #9
 80002ae:	1ac0      	subs	r0, r0, r3
 80002b0:	4152      	adcs	r2, r2
 80002b2:	0a03      	lsrs	r3, r0, #8
 80002b4:	428b      	cmp	r3, r1
 80002b6:	d301      	bcc.n	80002bc <__divsi3+0xa0>
 80002b8:	020b      	lsls	r3, r1, #8
 80002ba:	1ac0      	subs	r0, r0, r3
 80002bc:	4152      	adcs	r2, r2
 80002be:	d2cd      	bcs.n	800025c <__divsi3+0x40>
 80002c0:	09c3      	lsrs	r3, r0, #7
 80002c2:	428b      	cmp	r3, r1
 80002c4:	d301      	bcc.n	80002ca <__divsi3+0xae>
 80002c6:	01cb      	lsls	r3, r1, #7
 80002c8:	1ac0      	subs	r0, r0, r3
 80002ca:	4152      	adcs	r2, r2
 80002cc:	0983      	lsrs	r3, r0, #6
 80002ce:	428b      	cmp	r3, r1
 80002d0:	d301      	bcc.n	80002d6 <__divsi3+0xba>
 80002d2:	018b      	lsls	r3, r1, #6
 80002d4:	1ac0      	subs	r0, r0, r3
 80002d6:	4152      	adcs	r2, r2
 80002d8:	0943      	lsrs	r3, r0, #5
 80002da:	428b      	cmp	r3, r1
 80002dc:	d301      	bcc.n	80002e2 <__divsi3+0xc6>
 80002de:	014b      	lsls	r3, r1, #5
 80002e0:	1ac0      	subs	r0, r0, r3
 80002e2:	4152      	adcs	r2, r2
 80002e4:	0903      	lsrs	r3, r0, #4
 80002e6:	428b      	cmp	r3, r1
 80002e8:	d301      	bcc.n	80002ee <__divsi3+0xd2>
 80002ea:	010b      	lsls	r3, r1, #4
 80002ec:	1ac0      	subs	r0, r0, r3
 80002ee:	4152      	adcs	r2, r2
 80002f0:	08c3      	lsrs	r3, r0, #3
 80002f2:	428b      	cmp	r3, r1
 80002f4:	d301      	bcc.n	80002fa <__divsi3+0xde>
 80002f6:	00cb      	lsls	r3, r1, #3
 80002f8:	1ac0      	subs	r0, r0, r3
 80002fa:	4152      	adcs	r2, r2
 80002fc:	0883      	lsrs	r3, r0, #2
 80002fe:	428b      	cmp	r3, r1
 8000300:	d301      	bcc.n	8000306 <__divsi3+0xea>
 8000302:	008b      	lsls	r3, r1, #2
 8000304:	1ac0      	subs	r0, r0, r3
 8000306:	4152      	adcs	r2, r2
 8000308:	0843      	lsrs	r3, r0, #1
 800030a:	428b      	cmp	r3, r1
 800030c:	d301      	bcc.n	8000312 <__divsi3+0xf6>
 800030e:	004b      	lsls	r3, r1, #1
 8000310:	1ac0      	subs	r0, r0, r3
 8000312:	4152      	adcs	r2, r2
 8000314:	1a41      	subs	r1, r0, r1
 8000316:	d200      	bcs.n	800031a <__divsi3+0xfe>
 8000318:	4601      	mov	r1, r0
 800031a:	4152      	adcs	r2, r2
 800031c:	4610      	mov	r0, r2
 800031e:	4770      	bx	lr
 8000320:	e05d      	b.n	80003de <__divsi3+0x1c2>
 8000322:	0fca      	lsrs	r2, r1, #31
 8000324:	d000      	beq.n	8000328 <__divsi3+0x10c>
 8000326:	4249      	negs	r1, r1
 8000328:	1003      	asrs	r3, r0, #32
 800032a:	d300      	bcc.n	800032e <__divsi3+0x112>
 800032c:	4240      	negs	r0, r0
 800032e:	4053      	eors	r3, r2
 8000330:	2200      	movs	r2, #0
 8000332:	469c      	mov	ip, r3
 8000334:	0903      	lsrs	r3, r0, #4
 8000336:	428b      	cmp	r3, r1
 8000338:	d32d      	bcc.n	8000396 <__divsi3+0x17a>
 800033a:	0a03      	lsrs	r3, r0, #8
 800033c:	428b      	cmp	r3, r1
 800033e:	d312      	bcc.n	8000366 <__divsi3+0x14a>
 8000340:	22fc      	movs	r2, #252	; 0xfc
 8000342:	0189      	lsls	r1, r1, #6
 8000344:	ba12      	rev	r2, r2
 8000346:	0a03      	lsrs	r3, r0, #8
 8000348:	428b      	cmp	r3, r1
 800034a:	d30c      	bcc.n	8000366 <__divsi3+0x14a>
 800034c:	0189      	lsls	r1, r1, #6
 800034e:	1192      	asrs	r2, r2, #6
 8000350:	428b      	cmp	r3, r1
 8000352:	d308      	bcc.n	8000366 <__divsi3+0x14a>
 8000354:	0189      	lsls	r1, r1, #6
 8000356:	1192      	asrs	r2, r2, #6
 8000358:	428b      	cmp	r3, r1
 800035a:	d304      	bcc.n	8000366 <__divsi3+0x14a>
 800035c:	0189      	lsls	r1, r1, #6
 800035e:	d03a      	beq.n	80003d6 <__divsi3+0x1ba>
 8000360:	1192      	asrs	r2, r2, #6
 8000362:	e000      	b.n	8000366 <__divsi3+0x14a>
 8000364:	0989      	lsrs	r1, r1, #6
 8000366:	09c3      	lsrs	r3, r0, #7
 8000368:	428b      	cmp	r3, r1
 800036a:	d301      	bcc.n	8000370 <__divsi3+0x154>
 800036c:	01cb      	lsls	r3, r1, #7
 800036e:	1ac0      	subs	r0, r0, r3
 8000370:	4152      	adcs	r2, r2
 8000372:	0983      	lsrs	r3, r0, #6
 8000374:	428b      	cmp	r3, r1
 8000376:	d301      	bcc.n	800037c <__divsi3+0x160>
 8000378:	018b      	lsls	r3, r1, #6
 800037a:	1ac0      	subs	r0, r0, r3
 800037c:	4152      	adcs	r2, r2
 800037e:	0943      	lsrs	r3, r0, #5
 8000380:	428b      	cmp	r3, r1
 8000382:	d301      	bcc.n	8000388 <__divsi3+0x16c>
 8000384:	014b      	lsls	r3, r1, #5
 8000386:	1ac0      	subs	r0, r0, r3
 8000388:	4152      	adcs	r2, r2
 800038a:	0903      	lsrs	r3, r0, #4
 800038c:	428b      	cmp	r3, r1
 800038e:	d301      	bcc.n	8000394 <__divsi3+0x178>
 8000390:	010b      	lsls	r3, r1, #4
 8000392:	1ac0      	subs	r0, r0, r3
 8000394:	4152      	adcs	r2, r2
 8000396:	08c3      	lsrs	r3, r0, #3
 8000398:	428b      	cmp	r3, r1
 800039a:	d301      	bcc.n	80003a0 <__divsi3+0x184>
 800039c:	00cb      	lsls	r3, r1, #3
 800039e:	1ac0      	subs	r0, r0, r3
 80003a0:	4152      	adcs	r2, r2
 80003a2:	0883      	lsrs	r3, r0, #2
 80003a4:	428b      	cmp	r3, r1
 80003a6:	d301      	bcc.n	80003ac <__divsi3+0x190>
 80003a8:	008b      	lsls	r3, r1, #2
 80003aa:	1ac0      	subs	r0, r0, r3
 80003ac:	4152      	adcs	r2, r2
 80003ae:	d2d9      	bcs.n	8000364 <__divsi3+0x148>
 80003b0:	0843      	lsrs	r3, r0, #1
 80003b2:	428b      	cmp	r3, r1
 80003b4:	d301      	bcc.n	80003ba <__divsi3+0x19e>
 80003b6:	004b      	lsls	r3, r1, #1
 80003b8:	1ac0      	subs	r0, r0, r3
 80003ba:	4152      	adcs	r2, r2
 80003bc:	1a41      	subs	r1, r0, r1
 80003be:	d200      	bcs.n	80003c2 <__divsi3+0x1a6>
 80003c0:	4601      	mov	r1, r0
 80003c2:	4663      	mov	r3, ip
 80003c4:	4152      	adcs	r2, r2
 80003c6:	105b      	asrs	r3, r3, #1
 80003c8:	4610      	mov	r0, r2
 80003ca:	d301      	bcc.n	80003d0 <__divsi3+0x1b4>
 80003cc:	4240      	negs	r0, r0
 80003ce:	2b00      	cmp	r3, #0
 80003d0:	d500      	bpl.n	80003d4 <__divsi3+0x1b8>
 80003d2:	4249      	negs	r1, r1
 80003d4:	4770      	bx	lr
 80003d6:	4663      	mov	r3, ip
 80003d8:	105b      	asrs	r3, r3, #1
 80003da:	d300      	bcc.n	80003de <__divsi3+0x1c2>
 80003dc:	4240      	negs	r0, r0
 80003de:	b501      	push	{r0, lr}
 80003e0:	2000      	movs	r0, #0
 80003e2:	f000 f805 	bl	80003f0 <__aeabi_idiv0>
 80003e6:	bd02      	pop	{r1, pc}

080003e8 <__aeabi_idivmod>:
 80003e8:	2900      	cmp	r1, #0
 80003ea:	d0f8      	beq.n	80003de <__divsi3+0x1c2>
 80003ec:	e716      	b.n	800021c <__divsi3>
 80003ee:	4770      	bx	lr

080003f0 <__aeabi_idiv0>:
 80003f0:	4770      	bx	lr
 80003f2:	46c0      	nop			; (mov r8, r8)

080003f4 <Reset_Handler>:

  .section .text.Reset_Handler
  .weak Reset_Handler
  .type Reset_Handler, %function
Reset_Handler:
  ldr   r0, =_estack
 80003f4:	480d      	ldr	r0, [pc, #52]	; (800042c <LoopForever+0x2>)
  mov   sp, r0          /* set stack pointer */
 80003f6:	4685      	mov	sp, r0

/* Copy the data segment initializers from flash to SRAM */
  ldr r0, =_sdata
 80003f8:	480d      	ldr	r0, [pc, #52]	; (8000430 <LoopForever+0x6>)
  ldr r1, =_edata
 80003fa:	490e      	ldr	r1, [pc, #56]	; (8000434 <LoopForever+0xa>)
  ldr r2, =_sidata
 80003fc:	4a0e      	ldr	r2, [pc, #56]	; (8000438 <LoopForever+0xe>)
  movs r3, #0
 80003fe:	2300      	movs	r3, #0
  b LoopCopyDataInit
 8000400:	e002      	b.n	8000408 <LoopCopyDataInit>

08000402 <CopyDataInit>:

CopyDataInit:
  ldr r4, [r2, r3]
 8000402:	58d4      	ldr	r4, [r2, r3]
  str r4, [r0, r3]
 8000404:	50c4      	str	r4, [r0, r3]
  adds r3, r3, #4
 8000406:	3304      	adds	r3, #4

08000408 <LoopCopyDataInit>:

LoopCopyDataInit:
  adds r4, r0, r3
 8000408:	18c4      	adds	r4, r0, r3
  cmp r4, r1
 800040a:	428c      	cmp	r4, r1
  bcc CopyDataInit
 800040c:	d3f9      	bcc.n	8000402 <CopyDataInit>
  
/* Zero fill the bss segment. */
  ldr r2, =_sbss
 800040e:	4a0b      	ldr	r2, [pc, #44]	; (800043c <LoopForever+0x12>)
  ldr r4, =_ebss
 8000410:	4c0b      	ldr	r4, [pc, #44]	; (8000440 <LoopForever+0x16>)
  movs r3, #0
 8000412:	2300      	movs	r3, #0
  b LoopFillZerobss
 8000414:	e001      	b.n	800041a <LoopFillZerobss>

08000416 <FillZerobss>:

FillZerobss:
  str  r3, [r2]
 8000416:	6013      	str	r3, [r2, #0]
  adds r2, r2, #4
 8000418:	3204      	adds	r2, #4

0800041a <LoopFillZerobss>:

LoopFillZerobss:
  cmp r2, r4
 800041a:	42a2      	cmp	r2, r4
  bcc FillZerobss
 800041c:	d3fb      	bcc.n	8000416 <FillZerobss>

/* Call the clock system intitialization function.*/
  bl  SystemInit
 800041e:	f002 f8fd 	bl	800261c <SystemInit>
/* Call static constructors */
  bl __libc_init_array
 8000422:	f005 fc0d 	bl	8005c40 <__libc_init_array>
/* Call the application's entry point.*/
  bl main
 8000426:	f000 f851 	bl	80004cc <main>

0800042a <LoopForever>:

LoopForever:
    b LoopForever
 800042a:	e7fe      	b.n	800042a <LoopForever>
  ldr   r0, =_estack
 800042c:	20001000 	.word	0x20001000
  ldr r0, =_sdata
 8000430:	20000000 	.word	0x20000000
  ldr r1, =_edata
 8000434:	200005a0 	.word	0x200005a0
  ldr r2, =_sidata
 8000438:	080068cc 	.word	0x080068cc
  ldr r2, =_sbss
 800043c:	200005a0 	.word	0x200005a0
  ldr r4, =_ebss
 8000440:	2000095c 	.word	0x2000095c

08000444 <ADC1_IRQHandler>:
 * @retval : None
*/
    .section .text.Default_Handler,"ax",%progbits
Default_Handler:
Infinite_Loop:
  b Infinite_Loop
 8000444:	e7fe      	b.n	8000444 <ADC1_IRQHandler>
	...

08000448 <SystemClock_Config>:
/**
  * @brief System Clock Configuration
  * @retval None
  */
void SystemClock_Config(void)
{
 8000448:	b530      	push	{r4, r5, lr}
 800044a:	b095      	sub	sp, #84	; 0x54
  RCC_OscInitTypeDef RCC_OscInitStruct = {0};
 800044c:	222c      	movs	r2, #44	; 0x2c
 800044e:	2100      	movs	r1, #0
 8000450:	a809      	add	r0, sp, #36	; 0x24
 8000452:	f005 fbed 	bl	8005c30 <memset>
  RCC_ClkInitTypeDef RCC_ClkInitStruct = {0};
 8000456:	2210      	movs	r2, #16
 8000458:	2100      	movs	r1, #0
 800045a:	4668      	mov	r0, sp
 800045c:	f005 fbe8 	bl	8005c30 <memset>
  RCC_PeriphCLKInitTypeDef PeriphClkInit = {0};
 8000460:	2210      	movs	r2, #16
 8000462:	2100      	movs	r1, #0
 8000464:	a804      	add	r0, sp, #16
 8000466:	f005 fbe3 	bl	8005c30 <memset>

  /** Initializes the RCC Oscillators according to the specified parameters
  * in the RCC_OscInitTypeDef structure.
  */
  RCC_OscInitStruct.OscillatorType = RCC_OSCILLATORTYPE_HSI|RCC_OSCILLATORTYPE_HSI14;
 800046a:	2312      	movs	r3, #18
 800046c:	9308      	str	r3, [sp, #32]
  RCC_OscInitStruct.HSIState = RCC_HSI_ON;
  RCC_OscInitStruct.HSI14State = RCC_HSI14_ON;
  RCC_OscInitStruct.HSICalibrationValue = RCC_HSICALIBRATION_DEFAULT;
  RCC_OscInitStruct.HSI14CalibrationValue = 16;
  RCC_OscInitStruct.PLL.PLLState = RCC_PLL_ON;
 800046e:	3b10      	subs	r3, #16
 8000470:	9310      	str	r3, [sp, #64]	; 0x40
  RCC_OscInitStruct.PLL.PLLSource = RCC_PLLSOURCE_HSI;
  RCC_OscInitStruct.PLL.PLLMUL = RCC_PLL_MUL12;
 8000472:	23a0      	movs	r3, #160	; 0xa0
  RCC_ClkInitTypeDef RCC_ClkInitStruct = {0};
 8000474:	2510      	movs	r5, #16
  RCC_OscInitStruct.HSIState = RCC_HSI_ON;
 8000476:	2401      	movs	r4, #1
  RCC_OscInitStruct.PLL.PLLMUL = RCC_PLL_MUL12;
 8000478:	039b      	lsls	r3, r3, #14
  RCC_OscInitStruct.PLL.PREDIV = RCC_PREDIV_DIV1;
  if (HAL_RCC_OscConfig(&RCC_OscInitStruct) != HAL_OK)
 800047a:	a808      	add	r0, sp, #32
  RCC_OscInitStruct.HSIState = RCC_HSI_ON;
 800047c:	940b      	str	r4, [sp, #44]	; 0x2c
  RCC_OscInitStruct.HSI14State = RCC_HSI14_ON;
 800047e:	940d      	str	r4, [sp, #52]	; 0x34
  RCC_OscInitStruct.HSICalibrationValue = RCC_HSICALIBRATION_DEFAULT;
 8000480:	950c      	str	r5, [sp, #48]	; 0x30
  RCC_OscInitStruct.HSI14CalibrationValue = 16;
 8000482:	950e      	str	r5, [sp, #56]	; 0x38
  RCC_OscInitStruct.PLL.PLLMUL = RCC_PLL_MUL12;
 8000484:	9312      	str	r3, [sp, #72]	; 0x48
  if (HAL_RCC_OscConfig(&RCC_OscInitStruct) != HAL_OK)
 8000486:	f002 fbe5 	bl	8002c54 <HAL_RCC_OscConfig>
 800048a:	2800      	cmp	r0, #0
 800048c:	d001      	beq.n	8000492 <SystemClock_Config+0x4a>
  \details Disables IRQ interrupts by setting the I-bit in the CPSR.
           Can only be executed in Privileged modes.
 */
__STATIC_FORCEINLINE void __disable_irq(void)
{
  __ASM volatile ("cpsid i" : : : "memory");
 800048e:	b672      	cpsid	i
void Error_Handler(void)
{
  /* USER CODE BEGIN Error_Handler_Debug */
  /* User can add his own implementation to report the HAL error return state */
  __disable_irq();
  while (1)
 8000490:	e7fe      	b.n	8000490 <SystemClock_Config+0x48>
  RCC_ClkInitStruct.ClockType = RCC_CLOCKTYPE_HCLK|RCC_CLOCKTYPE_SYSCLK
 8000492:	2207      	movs	r2, #7
 8000494:	2302      	movs	r3, #2
 8000496:	9200      	str	r2, [sp, #0]
 8000498:	9301      	str	r3, [sp, #4]
 800049a:	2200      	movs	r2, #0
 800049c:	2300      	movs	r3, #0
  if (HAL_RCC_ClockConfig(&RCC_ClkInitStruct, FLASH_LATENCY_1) != HAL_OK)
 800049e:	2101      	movs	r1, #1
 80004a0:	4668      	mov	r0, sp
  RCC_ClkInitStruct.ClockType = RCC_CLOCKTYPE_HCLK|RCC_CLOCKTYPE_SYSCLK
 80004a2:	9202      	str	r2, [sp, #8]
 80004a4:	9303      	str	r3, [sp, #12]
  if (HAL_RCC_ClockConfig(&RCC_ClkInitStruct, FLASH_LATENCY_1) != HAL_OK)
 80004a6:	f002 fe2f 	bl	8003108 <HAL_RCC_ClockConfig>
 80004aa:	2800      	cmp	r0, #0
 80004ac:	d001      	beq.n	80004b2 <SystemClock_Config+0x6a>
 80004ae:	b672      	cpsid	i
  while (1)
 80004b0:	e7fe      	b.n	80004b0 <SystemClock_Config+0x68>
  PeriphClkInit.Usart1ClockSelection = RCC_USART1CLKSOURCE_PCLK1;
 80004b2:	9006      	str	r0, [sp, #24]
  if (HAL_RCCEx_PeriphCLKConfig(&PeriphClkInit) != HAL_OK)
 80004b4:	a804      	add	r0, sp, #16
  PeriphClkInit.PeriphClockSelection = RCC_PERIPHCLK_USART1;
 80004b6:	9404      	str	r4, [sp, #16]
  if (HAL_RCCEx_PeriphCLKConfig(&PeriphClkInit) != HAL_OK)
 80004b8:	f002 ff3c 	bl	8003334 <HAL_RCCEx_PeriphCLKConfig>
 80004bc:	2800      	cmp	r0, #0
 80004be:	d001      	beq.n	80004c4 <SystemClock_Config+0x7c>
 80004c0:	b672      	cpsid	i
  while (1)
 80004c2:	e7fe      	b.n	80004c2 <SystemClock_Config+0x7a>
  HAL_RCC_EnableCSS();
 80004c4:	f002 fede 	bl	8003284 <HAL_RCC_EnableCSS>
}
 80004c8:	b015      	add	sp, #84	; 0x54
 80004ca:	bd30      	pop	{r4, r5, pc}

080004cc <main>:
{
 80004cc:	b5f0      	push	{r4, r5, r6, r7, lr}
 80004ce:	46ce      	mov	lr, r9
 80004d0:	4647      	mov	r7, r8
 80004d2:	b580      	push	{r7, lr}
 80004d4:	b097      	sub	sp, #92	; 0x5c
  HAL_Init();
 80004d6:	f002 f8c9 	bl	800266c <HAL_Init>
  SystemClock_Config();
 80004da:	f7ff ffb5 	bl	8000448 <SystemClock_Config>
  GPIO_InitTypeDef GPIO_InitStruct = {0};
 80004de:	2214      	movs	r2, #20
 80004e0:	2100      	movs	r1, #0
 80004e2:	a80e      	add	r0, sp, #56	; 0x38
 80004e4:	f005 fba4 	bl	8005c30 <memset>
  __HAL_RCC_GPIOF_CLK_ENABLE();
 80004e8:	2280      	movs	r2, #128	; 0x80
 80004ea:	4cca      	ldr	r4, [pc, #808]	; (8000814 <main+0x348>)
 80004ec:	03d2      	lsls	r2, r2, #15
 80004ee:	6963      	ldr	r3, [r4, #20]
  HAL_GPIO_WritePin(OC_SEL_GPIO_Port, OC_SEL_Pin, GPIO_PIN_SET);
 80004f0:	2180      	movs	r1, #128	; 0x80
  __HAL_RCC_GPIOF_CLK_ENABLE();
 80004f2:	4313      	orrs	r3, r2
 80004f4:	6163      	str	r3, [r4, #20]
 80004f6:	6963      	ldr	r3, [r4, #20]
  HAL_GPIO_WritePin(OC_SEL_GPIO_Port, OC_SEL_Pin, GPIO_PIN_SET);
 80004f8:	2090      	movs	r0, #144	; 0x90
  __HAL_RCC_GPIOF_CLK_ENABLE();
 80004fa:	4013      	ands	r3, r2
  __HAL_RCC_GPIOA_CLK_ENABLE();
 80004fc:	2280      	movs	r2, #128	; 0x80
  __HAL_RCC_GPIOF_CLK_ENABLE();
 80004fe:	9302      	str	r3, [sp, #8]
 8000500:	9b02      	ldr	r3, [sp, #8]
  __HAL_RCC_GPIOA_CLK_ENABLE();
 8000502:	6963      	ldr	r3, [r4, #20]
 8000504:	0292      	lsls	r2, r2, #10
 8000506:	4313      	orrs	r3, r2
 8000508:	6163      	str	r3, [r4, #20]
 800050a:	6963      	ldr	r3, [r4, #20]
  HAL_GPIO_WritePin(OC_SEL_GPIO_Port, OC_SEL_Pin, GPIO_PIN_SET);
 800050c:	0109      	lsls	r1, r1, #4
  __HAL_RCC_GPIOA_CLK_ENABLE();
 800050e:	4013      	ands	r3, r2
  __HAL_RCC_GPIOB_CLK_ENABLE();
 8000510:	2280      	movs	r2, #128	; 0x80
  __HAL_RCC_GPIOA_CLK_ENABLE();
 8000512:	9303      	str	r3, [sp, #12]
 8000514:	9b03      	ldr	r3, [sp, #12]
  __HAL_RCC_GPIOB_CLK_ENABLE();
 8000516:	6963      	ldr	r3, [r4, #20]
 8000518:	02d2      	lsls	r2, r2, #11
 800051a:	4313      	orrs	r3, r2
 800051c:	6163      	str	r3, [r4, #20]
 800051e:	6963      	ldr	r3, [r4, #20]
  HAL_GPIO_WritePin(OC_SEL_GPIO_Port, OC_SEL_Pin, GPIO_PIN_SET);
 8000520:	05c0      	lsls	r0, r0, #23
  __HAL_RCC_GPIOB_CLK_ENABLE();
 8000522:	4013      	ands	r3, r2
 8000524:	9304      	str	r3, [sp, #16]
  HAL_GPIO_WritePin(OC_SEL_GPIO_Port, OC_SEL_Pin, GPIO_PIN_SET);
 8000526:	2201      	movs	r2, #1
  HAL_GPIO_WritePin(_3FG_HIZ_GPIO_Port, _3FG_HIZ_Pin, GPIO_PIN_RESET);
 8000528:	2780      	movs	r7, #128	; 0x80
  __HAL_RCC_GPIOB_CLK_ENABLE();
 800052a:	9b04      	ldr	r3, [sp, #16]
  HAL_GPIO_WritePin(OC_SEL_GPIO_Port, OC_SEL_Pin, GPIO_PIN_SET);
 800052c:	f002 fb8c 	bl	8002c48 <HAL_GPIO_WritePin>
  HAL_GPIO_WritePin(_3FG_HIZ_GPIO_Port, _3FG_HIZ_Pin, GPIO_PIN_RESET);
 8000530:	2090      	movs	r0, #144	; 0x90
 8000532:	017f      	lsls	r7, r7, #5
 8000534:	2200      	movs	r2, #0
 8000536:	0039      	movs	r1, r7
 8000538:	05c0      	lsls	r0, r0, #23
 800053a:	f002 fb85 	bl	8002c48 <HAL_GPIO_WritePin>
  HAL_GPIO_WritePin(GPIOF, OCTH_STBY2_Pin|OCTH_STBY1_Pin, GPIO_PIN_RESET);
 800053e:	2200      	movs	r2, #0
 8000540:	21c0      	movs	r1, #192	; 0xc0
 8000542:	48b5      	ldr	r0, [pc, #724]	; (8000818 <main+0x34c>)
 8000544:	f002 fb80 	bl	8002c48 <HAL_GPIO_WritePin>
  GPIO_InitStruct.Mode = GPIO_MODE_IT_FALLING;
 8000548:	2384      	movs	r3, #132	; 0x84
  GPIO_InitStruct.Pin = Start_Stop_Pin;
 800054a:	2501      	movs	r5, #1
  GPIO_InitStruct.Mode = GPIO_MODE_IT_FALLING;
 800054c:	039b      	lsls	r3, r3, #14
  HAL_GPIO_Init(Start_Stop_GPIO_Port, &GPIO_InitStruct);
 800054e:	48b2      	ldr	r0, [pc, #712]	; (8000818 <main+0x34c>)
 8000550:	a90e      	add	r1, sp, #56	; 0x38
  GPIO_InitStruct.Mode = GPIO_MODE_IT_FALLING;
 8000552:	930f      	str	r3, [sp, #60]	; 0x3c
  GPIO_InitStruct.Pin = Start_Stop_Pin;
 8000554:	950e      	str	r5, [sp, #56]	; 0x38
  GPIO_InitStruct.Pull = GPIO_PULLUP;
 8000556:	9510      	str	r5, [sp, #64]	; 0x40
  HAL_GPIO_Init(Start_Stop_GPIO_Port, &GPIO_InitStruct);
 8000558:	f002 fa78 	bl	8002a4c <HAL_GPIO_Init>
  GPIO_InitStruct.Pin = OC_SEL_Pin|_3FG_HIZ_Pin;
 800055c:	23c0      	movs	r3, #192	; 0xc0
  HAL_GPIO_Init(GPIOA, &GPIO_InitStruct);
 800055e:	2090      	movs	r0, #144	; 0x90
  GPIO_InitStruct.Pin = OC_SEL_Pin|_3FG_HIZ_Pin;
 8000560:	015b      	lsls	r3, r3, #5
  GPIO_InitStruct.Speed = GPIO_SPEED_FREQ_LOW;
 8000562:	2600      	movs	r6, #0
  GPIO_InitStruct.Pin = OC_SEL_Pin|_3FG_HIZ_Pin;
 8000564:	930e      	str	r3, [sp, #56]	; 0x38
  GPIO_InitStruct.Pull = GPIO_PULLDOWN;
 8000566:	2302      	movs	r3, #2
  HAL_GPIO_Init(GPIOA, &GPIO_InitStruct);
 8000568:	a90e      	add	r1, sp, #56	; 0x38
 800056a:	05c0      	lsls	r0, r0, #23
  GPIO_InitStruct.Pull = GPIO_PULLDOWN;
 800056c:	4698      	mov	r8, r3
 800056e:	9310      	str	r3, [sp, #64]	; 0x40
  GPIO_InitStruct.Mode = GPIO_MODE_OUTPUT_PP;
 8000570:	950f      	str	r5, [sp, #60]	; 0x3c
  GPIO_InitStruct.Speed = GPIO_SPEED_FREQ_LOW;
 8000572:	9611      	str	r6, [sp, #68]	; 0x44
  HAL_GPIO_Init(GPIOA, &GPIO_InitStruct);
 8000574:	f002 fa6a 	bl	8002a4c <HAL_GPIO_Init>
  GPIO_InitStruct.Pin = OCTH_STBY2_Pin|OCTH_STBY1_Pin;
 8000578:	23c0      	movs	r3, #192	; 0xc0
 800057a:	930e      	str	r3, [sp, #56]	; 0x38
  GPIO_InitStruct.Pull = GPIO_PULLDOWN;
 800057c:	4643      	mov	r3, r8
  HAL_GPIO_Init(GPIOF, &GPIO_InitStruct);
 800057e:	48a6      	ldr	r0, [pc, #664]	; (8000818 <main+0x34c>)
 8000580:	a90e      	add	r1, sp, #56	; 0x38
  GPIO_InitStruct.Pull = GPIO_PULLDOWN;
 8000582:	9310      	str	r3, [sp, #64]	; 0x40
  GPIO_InitStruct.Mode = GPIO_MODE_OUTPUT_PP;
 8000584:	950f      	str	r5, [sp, #60]	; 0x3c
  GPIO_InitStruct.Speed = GPIO_SPEED_FREQ_LOW;
 8000586:	9611      	str	r6, [sp, #68]	; 0x44
  HAL_GPIO_Init(GPIOF, &GPIO_InitStruct);
 8000588:	f002 fa60 	bl	8002a4c <HAL_GPIO_Init>
  __HAL_RCC_DMA1_CLK_ENABLE();
 800058c:	6963      	ldr	r3, [r4, #20]
  ADC_ChannelConfTypeDef sConfig = {0};
 800058e:	220c      	movs	r2, #12
  __HAL_RCC_DMA1_CLK_ENABLE();
 8000590:	432b      	orrs	r3, r5
 8000592:	6163      	str	r3, [r4, #20]
 8000594:	6963      	ldr	r3, [r4, #20]
  ADC_ChannelConfTypeDef sConfig = {0};
 8000596:	2100      	movs	r1, #0
  __HAL_RCC_DMA1_CLK_ENABLE();
 8000598:	402b      	ands	r3, r5
 800059a:	9301      	str	r3, [sp, #4]
  ADC_ChannelConfTypeDef sConfig = {0};
 800059c:	a80e      	add	r0, sp, #56	; 0x38
  __HAL_RCC_DMA1_CLK_ENABLE();
 800059e:	9b01      	ldr	r3, [sp, #4]
  ADC_ChannelConfTypeDef sConfig = {0};
 80005a0:	f005 fb46 	bl	8005c30 <memset>
  hadc.Instance = ADC1;
 80005a4:	4c9d      	ldr	r4, [pc, #628]	; (800081c <main+0x350>)
 80005a6:	4b9e      	ldr	r3, [pc, #632]	; (8000820 <main+0x354>)
  if (HAL_ADC_Init(&hadc) != HAL_OK)
 80005a8:	0020      	movs	r0, r4
  hadc.Instance = ADC1;
 80005aa:	6023      	str	r3, [r4, #0]
  hadc.Init.DataAlign = ADC_DATAALIGN_LEFT;
 80005ac:	2320      	movs	r3, #32
 80005ae:	4698      	mov	r8, r3
 80005b0:	60e3      	str	r3, [r4, #12]
  hadc.Init.EOCSelection = ADC_EOC_SINGLE_CONV;
 80005b2:	3b1c      	subs	r3, #28
 80005b4:	4699      	mov	r9, r3
 80005b6:	6163      	str	r3, [r4, #20]
  hadc.Init.ExternalTrigConvEdge = ADC_EXTERNALTRIGCONVEDGE_RISING;
 80005b8:	2380      	movs	r3, #128	; 0x80
 80005ba:	00db      	lsls	r3, r3, #3
 80005bc:	6223      	str	r3, [r4, #32]
  hadc.Init.DMAContinuousRequests = ENABLE;
 80005be:	2324      	movs	r3, #36	; 0x24
  hadc.Init.LowPowerAutoWait = DISABLE;
 80005c0:	61a6      	str	r6, [r4, #24]
  hadc.Init.ClockPrescaler = ADC_CLOCK_ASYNC_DIV1;
 80005c2:	6066      	str	r6, [r4, #4]
  hadc.Init.Resolution = ADC_RESOLUTION_12B;
 80005c4:	60a6      	str	r6, [r4, #8]
  hadc.Init.ScanConvMode = ADC_SCAN_DIRECTION_FORWARD;
 80005c6:	6125      	str	r5, [r4, #16]
  hadc.Init.ExternalTrigConv = ADC_EXTERNALTRIGCONV_T1_TRGO;
 80005c8:	61e6      	str	r6, [r4, #28]
  hadc.Init.DMAContinuousRequests = ENABLE;
 80005ca:	54e5      	strb	r5, [r4, r3]
  hadc.Init.Overrun = ADC_OVR_DATA_PRESERVED;
 80005cc:	62a5      	str	r5, [r4, #40]	; 0x28
  if (HAL_ADC_Init(&hadc) != HAL_OK)
 80005ce:	f002 f86f 	bl	80026b0 <HAL_ADC_Init>
 80005d2:	2800      	cmp	r0, #0
 80005d4:	d001      	beq.n	80005da <main+0x10e>
 80005d6:	b672      	cpsid	i
  while (1)
 80005d8:	e7fe      	b.n	80005d8 <main+0x10c>
  sConfig.Channel = ADC_CHANNEL_3;
 80005da:	2303      	movs	r3, #3
  if (HAL_ADC_ConfigChannel(&hadc, &sConfig) != HAL_OK)
 80005dc:	0020      	movs	r0, r4
 80005de:	a90e      	add	r1, sp, #56	; 0x38
  sConfig.Channel = ADC_CHANNEL_3;
 80005e0:	930e      	str	r3, [sp, #56]	; 0x38
  sConfig.Rank = ADC_RANK_CHANNEL_NUMBER;
 80005e2:	970f      	str	r7, [sp, #60]	; 0x3c
  sConfig.SamplingTime = ADC_SAMPLETIME_7CYCLES_5;
 80005e4:	9510      	str	r5, [sp, #64]	; 0x40
  if (HAL_ADC_ConfigChannel(&hadc, &sConfig) != HAL_OK)
 80005e6:	f002 f90b 	bl	8002800 <HAL_ADC_ConfigChannel>
 80005ea:	2800      	cmp	r0, #0
 80005ec:	d001      	beq.n	80005f2 <main+0x126>
 80005ee:	b672      	cpsid	i
  while (1)
 80005f0:	e7fe      	b.n	80005f0 <main+0x124>
  sConfig.Channel = ADC_CHANNEL_4;
 80005f2:	464b      	mov	r3, r9
  if (HAL_ADC_ConfigChannel(&hadc, &sConfig) != HAL_OK)
 80005f4:	0020      	movs	r0, r4
 80005f6:	a90e      	add	r1, sp, #56	; 0x38
  sConfig.Channel = ADC_CHANNEL_4;
 80005f8:	930e      	str	r3, [sp, #56]	; 0x38
  if (HAL_ADC_ConfigChannel(&hadc, &sConfig) != HAL_OK)
 80005fa:	f002 f901 	bl	8002800 <HAL_ADC_ConfigChannel>
 80005fe:	2800      	cmp	r0, #0
 8000600:	d001      	beq.n	8000606 <main+0x13a>
 8000602:	b672      	cpsid	i
  while (1)
 8000604:	e7fe      	b.n	8000604 <main+0x138>
  sConfig.Channel = ADC_CHANNEL_5;
 8000606:	2305      	movs	r3, #5
  if (HAL_ADC_ConfigChannel(&hadc, &sConfig) != HAL_OK)
 8000608:	0020      	movs	r0, r4
 800060a:	a90e      	add	r1, sp, #56	; 0x38
  sConfig.Channel = ADC_CHANNEL_5;
 800060c:	930e      	str	r3, [sp, #56]	; 0x38
  if (HAL_ADC_ConfigChannel(&hadc, &sConfig) != HAL_OK)
 800060e:	f002 f8f7 	bl	8002800 <HAL_ADC_ConfigChannel>
 8000612:	1e06      	subs	r6, r0, #0
 8000614:	d001      	beq.n	800061a <main+0x14e>
 8000616:	b672      	cpsid	i
  while (1)
 8000618:	e7fe      	b.n	8000618 <main+0x14c>
  TIM_MasterConfigTypeDef sMasterConfig = {0};
 800061a:	0001      	movs	r1, r0
 800061c:	2208      	movs	r2, #8
 800061e:	a805      	add	r0, sp, #20
 8000620:	f005 fb06 	bl	8005c30 <memset>
  TIM_OC_InitTypeDef sConfigOC = {0};
 8000624:	221c      	movs	r2, #28
 8000626:	0031      	movs	r1, r6
 8000628:	a807      	add	r0, sp, #28
 800062a:	f005 fb01 	bl	8005c30 <memset>
  TIM_BreakDeadTimeConfigTypeDef sBreakDeadTimeConfig = {0};
 800062e:	2220      	movs	r2, #32
 8000630:	0031      	movs	r1, r6
 8000632:	a80e      	add	r0, sp, #56	; 0x38
 8000634:	f005 fafc 	bl	8005c30 <memset>
  htim1.Instance = TIM1;
 8000638:	4c7a      	ldr	r4, [pc, #488]	; (8000824 <main+0x358>)
 800063a:	4b7b      	ldr	r3, [pc, #492]	; (8000828 <main+0x35c>)
  if (HAL_TIM_PWM_Init(&htim1) != HAL_OK)
 800063c:	0020      	movs	r0, r4
  htim1.Instance = TIM1;
 800063e:	6023      	str	r3, [r4, #0]
  htim1.Init.CounterMode = TIM_COUNTERMODE_CENTERALIGNED1;
 8000640:	4643      	mov	r3, r8
 8000642:	60a3      	str	r3, [r4, #8]
  htim1.Init.Period = ((PWM_PERIOD_CYCLES) / 2);
 8000644:	4b79      	ldr	r3, [pc, #484]	; (800082c <main+0x360>)
  htim1.Init.Prescaler = ((TIM_CLOCK_DIVIDER) - 1);
 8000646:	6066      	str	r6, [r4, #4]
  htim1.Init.Period = ((PWM_PERIOD_CYCLES) / 2);
 8000648:	60e3      	str	r3, [r4, #12]
  htim1.Init.ClockDivision = TIM_CLOCKDIVISION_DIV2;
 800064a:	2380      	movs	r3, #128	; 0x80
 800064c:	005b      	lsls	r3, r3, #1
 800064e:	6123      	str	r3, [r4, #16]
  htim1.Init.RepetitionCounter = (REP_COUNTER);
 8000650:	6165      	str	r5, [r4, #20]
  htim1.Init.AutoReloadPreload = TIM_AUTORELOAD_PRELOAD_DISABLE;
 8000652:	61a6      	str	r6, [r4, #24]
  if (HAL_TIM_PWM_Init(&htim1) != HAL_OK)
 8000654:	f002 ff84 	bl	8003560 <HAL_TIM_PWM_Init>
 8000658:	2800      	cmp	r0, #0
 800065a:	d001      	beq.n	8000660 <main+0x194>
 800065c:	b672      	cpsid	i
  while (1)
 800065e:	e7fe      	b.n	800065e <main+0x192>
  sMasterConfig.MasterOutputTrigger = TIM_TRGO_OC4REF;
 8000660:	2570      	movs	r5, #112	; 0x70
  sMasterConfig.MasterSlaveMode = TIM_MASTERSLAVEMODE_DISABLE;
 8000662:	9006      	str	r0, [sp, #24]
  if (HAL_TIMEx_MasterConfigSynchronization(&htim1, &sMasterConfig) != HAL_OK)
 8000664:	a905      	add	r1, sp, #20
 8000666:	0020      	movs	r0, r4
  sMasterConfig.MasterOutputTrigger = TIM_TRGO_OC4REF;
 8000668:	9505      	str	r5, [sp, #20]
  if (HAL_TIMEx_MasterConfigSynchronization(&htim1, &sMasterConfig) != HAL_OK)
 800066a:	f003 fad9 	bl	8003c20 <HAL_TIMEx_MasterConfigSynchronization>
 800066e:	1e02      	subs	r2, r0, #0
 8000670:	d001      	beq.n	8000676 <main+0x1aa>
 8000672:	b672      	cpsid	i
  while (1)
 8000674:	e7fe      	b.n	8000674 <main+0x1a8>
  sConfigOC.OCMode = TIM_OCMODE_PWM1;
 8000676:	2360      	movs	r3, #96	; 0x60
  sConfigOC.Pulse = 0;
 8000678:	9008      	str	r0, [sp, #32]
  sConfigOC.OCPolarity = TIM_OCPOLARITY_HIGH;
 800067a:	9009      	str	r0, [sp, #36]	; 0x24
  sConfigOC.OCNPolarity = TIM_OCNPOLARITY_HIGH;
 800067c:	900a      	str	r0, [sp, #40]	; 0x28
  sConfigOC.OCFastMode = TIM_OCFAST_DISABLE;
 800067e:	900b      	str	r0, [sp, #44]	; 0x2c
  sConfigOC.OCIdleState = TIM_OCIDLESTATE_RESET;
 8000680:	900c      	str	r0, [sp, #48]	; 0x30
  sConfigOC.OCNIdleState = TIM_OCNIDLESTATE_RESET;
 8000682:	900d      	str	r0, [sp, #52]	; 0x34
  if (HAL_TIM_PWM_ConfigChannel(&htim1, &sConfigOC, TIM_CHANNEL_1) != HAL_OK)
 8000684:	a907      	add	r1, sp, #28
 8000686:	0020      	movs	r0, r4
  sConfigOC.OCMode = TIM_OCMODE_PWM1;
 8000688:	9307      	str	r3, [sp, #28]
  if (HAL_TIM_PWM_ConfigChannel(&htim1, &sConfigOC, TIM_CHANNEL_1) != HAL_OK)
 800068a:	f002 ffe1 	bl	8003650 <HAL_TIM_PWM_ConfigChannel>
 800068e:	2800      	cmp	r0, #0
 8000690:	d001      	beq.n	8000696 <main+0x1ca>
 8000692:	b672      	cpsid	i
  while (1)
 8000694:	e7fe      	b.n	8000694 <main+0x1c8>
  if (HAL_TIM_PWM_ConfigChannel(&htim1, &sConfigOC, TIM_CHANNEL_2) != HAL_OK)
 8000696:	2204      	movs	r2, #4
 8000698:	0020      	movs	r0, r4
 800069a:	a907      	add	r1, sp, #28
 800069c:	f002 ffd8 	bl	8003650 <HAL_TIM_PWM_ConfigChannel>
 80006a0:	2800      	cmp	r0, #0
 80006a2:	d001      	beq.n	80006a8 <main+0x1dc>
 80006a4:	b672      	cpsid	i
  while (1)
 80006a6:	e7fe      	b.n	80006a6 <main+0x1da>
  if (HAL_TIM_PWM_ConfigChannel(&htim1, &sConfigOC, TIM_CHANNEL_3) != HAL_OK)
 80006a8:	2208      	movs	r2, #8
 80006aa:	0020      	movs	r0, r4
 80006ac:	a907      	add	r1, sp, #28
 80006ae:	f002 ffcf 	bl	8003650 <HAL_TIM_PWM_ConfigChannel>
 80006b2:	2800      	cmp	r0, #0
 80006b4:	d001      	beq.n	80006ba <main+0x1ee>
 80006b6:	b672      	cpsid	i
  while (1)
 80006b8:	e7fe      	b.n	80006b8 <main+0x1ec>
  sConfigOC.Pulse = (((PWM_PERIOD_CYCLES) / 2) - (HTMIN));
 80006ba:	4b5d      	ldr	r3, [pc, #372]	; (8000830 <main+0x364>)
  if (HAL_TIM_PWM_ConfigChannel(&htim1, &sConfigOC, TIM_CHANNEL_4) != HAL_OK)
 80006bc:	220c      	movs	r2, #12
 80006be:	0020      	movs	r0, r4
 80006c0:	a907      	add	r1, sp, #28
  sConfigOC.OCMode = TIM_OCMODE_PWM2;
 80006c2:	9507      	str	r5, [sp, #28]
  sConfigOC.Pulse = (((PWM_PERIOD_CYCLES) / 2) - (HTMIN));
 80006c4:	9308      	str	r3, [sp, #32]
  if (HAL_TIM_PWM_ConfigChannel(&htim1, &sConfigOC, TIM_CHANNEL_4) != HAL_OK)
 80006c6:	f002 ffc3 	bl	8003650 <HAL_TIM_PWM_ConfigChannel>
 80006ca:	2800      	cmp	r0, #0
 80006cc:	d001      	beq.n	80006d2 <main+0x206>
 80006ce:	b672      	cpsid	i
  while (1)
 80006d0:	e7fe      	b.n	80006d0 <main+0x204>
  sBreakDeadTimeConfig.OffStateRunMode = TIM_OSSR_ENABLE;
 80006d2:	2380      	movs	r3, #128	; 0x80
 80006d4:	011b      	lsls	r3, r3, #4
 80006d6:	930e      	str	r3, [sp, #56]	; 0x38
  sBreakDeadTimeConfig.OffStateIDLEMode = TIM_OSSI_ENABLE;
 80006d8:	2380      	movs	r3, #128	; 0x80
 80006da:	00db      	lsls	r3, r3, #3
 80006dc:	930f      	str	r3, [sp, #60]	; 0x3c
  sBreakDeadTimeConfig.LockLevel = TIM_LOCKLEVEL_1;
 80006de:	2380      	movs	r3, #128	; 0x80
 80006e0:	005b      	lsls	r3, r3, #1
 80006e2:	9310      	str	r3, [sp, #64]	; 0x40
  sBreakDeadTimeConfig.BreakPolarity = TIM_BREAKPOLARITY_HIGH;
 80006e4:	2280      	movs	r2, #128	; 0x80
  sBreakDeadTimeConfig.DeadTime = ((DEAD_TIME_COUNTS) / 2);
 80006e6:	3bed      	subs	r3, #237	; 0xed
 80006e8:	9311      	str	r3, [sp, #68]	; 0x44
  sBreakDeadTimeConfig.BreakState = TIM_BREAK_DISABLE;
 80006ea:	2300      	movs	r3, #0
  sBreakDeadTimeConfig.BreakPolarity = TIM_BREAKPOLARITY_HIGH;
 80006ec:	0192      	lsls	r2, r2, #6
  if (HAL_TIMEx_ConfigBreakDeadTime(&htim1, &sBreakDeadTimeConfig) != HAL_OK)
 80006ee:	0020      	movs	r0, r4
 80006f0:	a90e      	add	r1, sp, #56	; 0x38
  sBreakDeadTimeConfig.BreakState = TIM_BREAK_DISABLE;
 80006f2:	9312      	str	r3, [sp, #72]	; 0x48
  sBreakDeadTimeConfig.BreakPolarity = TIM_BREAKPOLARITY_HIGH;
 80006f4:	9213      	str	r2, [sp, #76]	; 0x4c
  sBreakDeadTimeConfig.AutomaticOutput = TIM_AUTOMATICOUTPUT_DISABLE;
 80006f6:	9315      	str	r3, [sp, #84]	; 0x54
  if (HAL_TIMEx_ConfigBreakDeadTime(&htim1, &sBreakDeadTimeConfig) != HAL_OK)
 80006f8:	f003 fac0 	bl	8003c7c <HAL_TIMEx_ConfigBreakDeadTime>
 80006fc:	1e05      	subs	r5, r0, #0
 80006fe:	d001      	beq.n	8000704 <main+0x238>
 8000700:	b672      	cpsid	i
  while (1)
 8000702:	e7fe      	b.n	8000702 <main+0x236>
  HAL_TIM_MspPostInit(&htim1);
 8000704:	0020      	movs	r0, r4
 8000706:	f001 fb6f 	bl	8001de8 <HAL_TIM_MspPostInit>
  TIM_ClockConfigTypeDef sClockSourceConfig = {0};
 800070a:	2210      	movs	r2, #16
 800070c:	0029      	movs	r1, r5
 800070e:	a807      	add	r0, sp, #28
 8000710:	f005 fa8e 	bl	8005c30 <memset>
  TIM_HallSensor_InitTypeDef sConfig = {0};
 8000714:	2210      	movs	r2, #16
 8000716:	0029      	movs	r1, r5
 8000718:	a80e      	add	r0, sp, #56	; 0x38
 800071a:	f005 fa89 	bl	8005c30 <memset>
  TIM_MasterConfigTypeDef sMasterConfig = {0};
 800071e:	2208      	movs	r2, #8
 8000720:	0029      	movs	r1, r5
 8000722:	a805      	add	r0, sp, #20
 8000724:	f005 fa84 	bl	8005c30 <memset>
  htim2.Instance = TIM2;
 8000728:	2380      	movs	r3, #128	; 0x80
 800072a:	4c42      	ldr	r4, [pc, #264]	; (8000834 <main+0x368>)
 800072c:	05db      	lsls	r3, r3, #23
 800072e:	6023      	str	r3, [r4, #0]
  htim2.Init.Period = M1_HALL_TIM_PERIOD;
 8000730:	4b41      	ldr	r3, [pc, #260]	; (8000838 <main+0x36c>)
  if (HAL_TIM_Base_Init(&htim2) != HAL_OK)
 8000732:	0020      	movs	r0, r4
  htim2.Init.Prescaler = 0;
 8000734:	6065      	str	r5, [r4, #4]
  htim2.Init.CounterMode = TIM_COUNTERMODE_UP;
 8000736:	60a5      	str	r5, [r4, #8]
  htim2.Init.Period = M1_HALL_TIM_PERIOD;
 8000738:	60e3      	str	r3, [r4, #12]
  htim2.Init.ClockDivision = TIM_CLOCKDIVISION_DIV1;
 800073a:	6125      	str	r5, [r4, #16]
  htim2.Init.AutoReloadPreload = TIM_AUTORELOAD_PRELOAD_DISABLE;
 800073c:	61a5      	str	r5, [r4, #24]
  if (HAL_TIM_Base_Init(&htim2) != HAL_OK)
 800073e:	f002 fe97 	bl	8003470 <HAL_TIM_Base_Init>
 8000742:	2800      	cmp	r0, #0
 8000744:	d001      	beq.n	800074a <main+0x27e>
 8000746:	b672      	cpsid	i
  while (1)
 8000748:	e7fe      	b.n	8000748 <main+0x27c>
  sClockSourceConfig.ClockSource = TIM_CLOCKSOURCE_INTERNAL;
 800074a:	2380      	movs	r3, #128	; 0x80
  if (HAL_TIM_ConfigClockSource(&htim2, &sClockSourceConfig) != HAL_OK)
 800074c:	0020      	movs	r0, r4
  sClockSourceConfig.ClockSource = TIM_CLOCKSOURCE_INTERNAL;
 800074e:	015b      	lsls	r3, r3, #5
  if (HAL_TIM_ConfigClockSource(&htim2, &sClockSourceConfig) != HAL_OK)
 8000750:	a907      	add	r1, sp, #28
  sClockSourceConfig.ClockSource = TIM_CLOCKSOURCE_INTERNAL;
 8000752:	9307      	str	r3, [sp, #28]
  if (HAL_TIM_ConfigClockSource(&htim2, &sClockSourceConfig) != HAL_OK)
 8000754:	f003 f89c 	bl	8003890 <HAL_TIM_ConfigClockSource>
 8000758:	2800      	cmp	r0, #0
 800075a:	d001      	beq.n	8000760 <main+0x294>
 800075c:	b672      	cpsid	i
  while (1)
 800075e:	e7fe      	b.n	800075e <main+0x292>
  sConfig.IC1Filter = M1_HALL_IC_FILTER;
 8000760:	2509      	movs	r5, #9
  sConfig.IC1Polarity = TIM_ICPOLARITY_RISING;
 8000762:	900e      	str	r0, [sp, #56]	; 0x38
  sConfig.IC1Prescaler = TIM_ICPSC_DIV1;
 8000764:	900f      	str	r0, [sp, #60]	; 0x3c
  sConfig.Commutation_Delay = 0;
 8000766:	9011      	str	r0, [sp, #68]	; 0x44
  if (HAL_TIMEx_HallSensor_Init(&htim2, &sConfig) != HAL_OK)
 8000768:	a90e      	add	r1, sp, #56	; 0x38
 800076a:	0020      	movs	r0, r4
  sConfig.IC1Filter = M1_HALL_IC_FILTER;
 800076c:	9510      	str	r5, [sp, #64]	; 0x40
  if (HAL_TIMEx_HallSensor_Init(&htim2, &sConfig) != HAL_OK)
 800076e:	f003 f9f7 	bl	8003b60 <HAL_TIMEx_HallSensor_Init>
 8000772:	2800      	cmp	r0, #0
 8000774:	d001      	beq.n	800077a <main+0x2ae>
 8000776:	b672      	cpsid	i
  while (1)
 8000778:	e7fe      	b.n	8000778 <main+0x2ac>
  sMasterConfig.MasterOutputTrigger = TIM_TRGO_OC2REF;
 800077a:	2350      	movs	r3, #80	; 0x50
  sMasterConfig.MasterSlaveMode = TIM_MASTERSLAVEMODE_DISABLE;
 800077c:	9006      	str	r0, [sp, #24]
  if (HAL_TIMEx_MasterConfigSynchronization(&htim2, &sMasterConfig) != HAL_OK)
 800077e:	a905      	add	r1, sp, #20
 8000780:	0020      	movs	r0, r4
  sMasterConfig.MasterOutputTrigger = TIM_TRGO_OC2REF;
 8000782:	9305      	str	r3, [sp, #20]
  if (HAL_TIMEx_MasterConfigSynchronization(&htim2, &sMasterConfig) != HAL_OK)
 8000784:	f003 fa4c 	bl	8003c20 <HAL_TIMEx_MasterConfigSynchronization>
 8000788:	1e02      	subs	r2, r0, #0
 800078a:	d001      	beq.n	8000790 <main+0x2c4>
 800078c:	b672      	cpsid	i
  while (1)
 800078e:	e7fe      	b.n	800078e <main+0x2c2>
  huart1.Instance = USART1;
 8000790:	4b2a      	ldr	r3, [pc, #168]	; (800083c <main+0x370>)
 8000792:	492b      	ldr	r1, [pc, #172]	; (8000840 <main+0x374>)
 8000794:	0018      	movs	r0, r3
 8000796:	6019      	str	r1, [r3, #0]
  huart1.Init.BaudRate = 9600;
 8000798:	2396      	movs	r3, #150	; 0x96
 800079a:	019b      	lsls	r3, r3, #6
 800079c:	6043      	str	r3, [r0, #4]
  huart1.Init.Mode = UART_MODE_TX_RX;
 800079e:	230c      	movs	r3, #12
  huart1.Init.WordLength = UART_WORDLENGTH_8B;
 80007a0:	6082      	str	r2, [r0, #8]
  huart1.Init.StopBits = UART_STOPBITS_1;
 80007a2:	60c2      	str	r2, [r0, #12]
  huart1.Init.Parity = UART_PARITY_NONE;
 80007a4:	6102      	str	r2, [r0, #16]
  huart1.Init.Mode = UART_MODE_TX_RX;
 80007a6:	6143      	str	r3, [r0, #20]
  huart1.Init.HwFlowCtl = UART_HWCONTROL_NONE;
 80007a8:	6182      	str	r2, [r0, #24]
  huart1.Init.OverSampling = UART_OVERSAMPLING_16;
 80007aa:	61c2      	str	r2, [r0, #28]
  huart1.Init.OneBitSampling = UART_ONE_BIT_SAMPLE_DISABLE;
 80007ac:	6202      	str	r2, [r0, #32]
  huart1.AdvancedInit.AdvFeatureInit = UART_ADVFEATURE_NO_INIT;
 80007ae:	6242      	str	r2, [r0, #36]	; 0x24
  if (HAL_UART_Init(&huart1) != HAL_OK)
 80007b0:	f003 fb76 	bl	8003ea0 <HAL_UART_Init>
 80007b4:	1e04      	subs	r4, r0, #0
 80007b6:	d001      	beq.n	80007bc <main+0x2f0>
 80007b8:	b672      	cpsid	i
  while (1)
 80007ba:	e7fe      	b.n	80007ba <main+0x2ee>
  MX_MotorControl_Init();
 80007bc:	f001 f830 	bl	8001820 <MX_MotorControl_Init>
  HAL_NVIC_SetPriority(TIM1_BRK_UP_TRG_COM_IRQn, 0, 0);
 80007c0:	0022      	movs	r2, r4
 80007c2:	0021      	movs	r1, r4
 80007c4:	200d      	movs	r0, #13
 80007c6:	f002 f8af 	bl	8002928 <HAL_NVIC_SetPriority>
  HAL_NVIC_EnableIRQ(TIM1_BRK_UP_TRG_COM_IRQn);
 80007ca:	200d      	movs	r0, #13
 80007cc:	f002 f8de 	bl	800298c <HAL_NVIC_EnableIRQ>
  HAL_NVIC_SetPriority(DMA1_Channel1_IRQn, 1, 0);
 80007d0:	0022      	movs	r2, r4
 80007d2:	2101      	movs	r1, #1
 80007d4:	0028      	movs	r0, r5
 80007d6:	f002 f8a7 	bl	8002928 <HAL_NVIC_SetPriority>
  HAL_NVIC_EnableIRQ(DMA1_Channel1_IRQn);
 80007da:	0028      	movs	r0, r5
 80007dc:	f002 f8d6 	bl	800298c <HAL_NVIC_EnableIRQ>
  HAL_NVIC_SetPriority(TIM2_IRQn, 3, 0);
 80007e0:	0022      	movs	r2, r4
 80007e2:	2103      	movs	r1, #3
 80007e4:	200f      	movs	r0, #15
 80007e6:	f002 f89f 	bl	8002928 <HAL_NVIC_SetPriority>
  HAL_NVIC_EnableIRQ(TIM2_IRQn);
 80007ea:	200f      	movs	r0, #15
 80007ec:	f002 f8ce 	bl	800298c <HAL_NVIC_EnableIRQ>
  HAL_NVIC_SetPriority(USART1_IRQn, 3, 0);
 80007f0:	0022      	movs	r2, r4
 80007f2:	2103      	movs	r1, #3
 80007f4:	201b      	movs	r0, #27
 80007f6:	f002 f897 	bl	8002928 <HAL_NVIC_SetPriority>
  HAL_NVIC_EnableIRQ(USART1_IRQn);
 80007fa:	201b      	movs	r0, #27
 80007fc:	f002 f8c6 	bl	800298c <HAL_NVIC_EnableIRQ>
  HAL_NVIC_SetPriority(EXTI0_1_IRQn, 3, 0);
 8000800:	2005      	movs	r0, #5
 8000802:	0022      	movs	r2, r4
 8000804:	2103      	movs	r1, #3
 8000806:	f002 f88f 	bl	8002928 <HAL_NVIC_SetPriority>
  HAL_NVIC_EnableIRQ(EXTI0_1_IRQn);
 800080a:	2005      	movs	r0, #5
 800080c:	f002 f8be 	bl	800298c <HAL_NVIC_EnableIRQ>
  while (1)
 8000810:	e7fe      	b.n	8000810 <main+0x344>
 8000812:	46c0      	nop			; (mov r8, r8)
 8000814:	40021000 	.word	0x40021000
 8000818:	48001400 	.word	0x48001400
 800081c:	200005bc 	.word	0x200005bc
 8000820:	40012400 	.word	0x40012400
 8000824:	20000640 	.word	0x20000640
 8000828:	40012c00 	.word	0x40012c00
 800082c:	00002ee0 	.word	0x00002ee0
 8000830:	00002edf 	.word	0x00002edf
 8000834:	20000688 	.word	0x20000688
 8000838:	0000ffff 	.word	0x0000ffff
 800083c:	200006d0 	.word	0x200006d0
 8000840:	40013800 	.word	0x40013800

08000844 <Error_Handler>:
 8000844:	b672      	cpsid	i
  while (1)
 8000846:	e7fe      	b.n	8000846 <Error_Handler+0x2>

08000848 <MC_StartMotor1>:
  * check if it has reached the #RUN state. See MC_GetSTMStateMotor1() for more details.
  *
  * @retval returns true if the command is successfully executed, false otherwise.
  */
__weak bool MC_StartMotor1(void)
{
 8000848:	b510      	push	{r4, lr}
	return MCI_StartMotor( pMCI[M1] );
 800084a:	4b02      	ldr	r3, [pc, #8]	; (8000854 <MC_StartMotor1+0xc>)
 800084c:	6818      	ldr	r0, [r3, #0]
 800084e:	f000 f837 	bl	80008c0 <MCI_StartMotor>
}
 8000852:	bd10      	pop	{r4, pc}
 8000854:	20000848 	.word	0x20000848

08000858 <MC_StopMotor1>:
  * #IDLE state has been reached back.
  *
  * @retval returns true if the command is successfully executed, false otherwise.
  */
__weak bool MC_StopMotor1(void)
{
 8000858:	b510      	push	{r4, lr}
	return MCI_StopMotor( pMCI[M1] );
 800085a:	4b02      	ldr	r3, [pc, #8]	; (8000864 <MC_StopMotor1+0xc>)
 800085c:	6818      	ldr	r0, [r3, #0]
 800085e:	f000 f83b 	bl	80008d8 <MCI_StopMotor>
}
 8000862:	bd10      	pop	{r4, pc}
 8000864:	20000848 	.word	0x20000848

08000868 <MC_GetSTMStateMotor1>:

/**
 * @brief returns the current state of Motor 1 state machine
 */
__weak State_t  MC_GetSTMStateMotor1(void)
{
 8000868:	b510      	push	{r4, lr}
	return MCI_GetSTMState( pMCI[M1] );
 800086a:	4b02      	ldr	r3, [pc, #8]	; (8000874 <MC_GetSTMStateMotor1+0xc>)
 800086c:	6818      	ldr	r0, [r3, #0]
 800086e:	f000 f881 	bl	8000974 <MCI_GetSTMState>
}
 8000872:	bd10      	pop	{r4, pc}
 8000874:	20000848 	.word	0x20000848

08000878 <MCI_Init>:
  */
__weak void MCI_Init( MCI_Handle_t * pHandle, STM_Handle_t * pSTM, SpeednTorqCtrl_Handle_t * pSTC, pFOCVars_t pFOCVars )
{
  pHandle->pSTM = pSTM;
  pHandle->pSTC = pSTC;
  pHandle->pFOCVars = pFOCVars;
 8000878:	6083      	str	r3, [r0, #8]

  /* Buffer related initialization */
  pHandle->lastCommand = MCI_NOCOMMANDSYET;
 800087a:	2300      	movs	r3, #0
  pHandle->pSTM = pSTM;
 800087c:	6001      	str	r1, [r0, #0]
  pHandle->pSTC = pSTC;
 800087e:	6042      	str	r2, [r0, #4]
  pHandle->lastCommand = MCI_NOCOMMANDSYET;
 8000880:	7303      	strb	r3, [r0, #12]
  pHandle->hFinalSpeed = 0;
 8000882:	81c3      	strh	r3, [r0, #14]
  pHandle->hFinalTorque = 0;
 8000884:	8203      	strh	r3, [r0, #16]
  pHandle->hDurationms = 0;
 8000886:	82c3      	strh	r3, [r0, #22]
  pHandle->CommandState = MCI_BUFFER_EMPTY;
 8000888:	7603      	strb	r3, [r0, #24]
}
 800088a:	4770      	bx	lr

0800088c <MCI_ExecSpeedRamp>:
  *         value.
  * @retval none.
  */
__weak void MCI_ExecSpeedRamp( MCI_Handle_t * pHandle,  int16_t hFinalSpeed, uint16_t hDurationms )
{
  pHandle->lastCommand = MCI_EXECSPEEDRAMP;
 800088c:	2301      	movs	r3, #1
 800088e:	7303      	strb	r3, [r0, #12]
  pHandle->hFinalSpeed = hFinalSpeed;
  pHandle->hDurationms = hDurationms;
  pHandle->CommandState = MCI_COMMAND_NOT_ALREADY_EXECUTED;
 8000890:	2302      	movs	r3, #2
 8000892:	33ff      	adds	r3, #255	; 0xff
  pHandle->hFinalSpeed = hFinalSpeed;
 8000894:	81c1      	strh	r1, [r0, #14]
  pHandle->hDurationms = hDurationms;
 8000896:	82c2      	strh	r2, [r0, #22]
  pHandle->CommandState = MCI_COMMAND_NOT_ALREADY_EXECUTED;
 8000898:	8303      	strh	r3, [r0, #24]
  pHandle->LastModalitySetByUser = STC_SPEED_MODE;
}
 800089a:	4770      	bx	lr

0800089c <MCI_ExecTorqueRamp>:
  *         value.
  * @retval none.
  */
__weak void MCI_ExecTorqueRamp( MCI_Handle_t * pHandle,  int16_t hFinalTorque, uint16_t hDurationms )
{
  pHandle->lastCommand = MCI_EXECTORQUERAMP;
 800089c:	2302      	movs	r3, #2
 800089e:	7303      	strb	r3, [r0, #12]
  pHandle->hFinalTorque = hFinalTorque;
  pHandle->hDurationms = hDurationms;
  pHandle->CommandState = MCI_COMMAND_NOT_ALREADY_EXECUTED;
 80008a0:	3b01      	subs	r3, #1
  pHandle->hFinalTorque = hFinalTorque;
 80008a2:	8201      	strh	r1, [r0, #16]
  pHandle->hDurationms = hDurationms;
 80008a4:	82c2      	strh	r2, [r0, #22]
  pHandle->CommandState = MCI_COMMAND_NOT_ALREADY_EXECUTED;
 80008a6:	8303      	strh	r3, [r0, #24]
  pHandle->LastModalitySetByUser = STC_TORQUE_MODE;
}
 80008a8:	4770      	bx	lr
 80008aa:	46c0      	nop			; (mov r8, r8)

080008ac <MCI_SetCurrentReferences>:
  *         format.
  * @retval none.
  */
__weak void MCI_SetCurrentReferences( MCI_Handle_t * pHandle, qd_t Iqdref )
{
  pHandle->lastCommand = MCI_SETCURRENTREFERENCES;
 80008ac:	2203      	movs	r2, #3
  pHandle->Iqdref.q = Iqdref.q;
  pHandle->Iqdref.d = Iqdref.d;
  pHandle->CommandState = MCI_COMMAND_NOT_ALREADY_EXECUTED;
 80008ae:	2301      	movs	r3, #1
{
 80008b0:	b082      	sub	sp, #8
  pHandle->Iqdref.q = Iqdref.q;
 80008b2:	8241      	strh	r1, [r0, #18]
  pHandle->Iqdref.d = Iqdref.d;
 80008b4:	0c09      	lsrs	r1, r1, #16
  pHandle->lastCommand = MCI_SETCURRENTREFERENCES;
 80008b6:	7302      	strb	r2, [r0, #12]
  pHandle->Iqdref.d = Iqdref.d;
 80008b8:	8281      	strh	r1, [r0, #20]
  pHandle->CommandState = MCI_COMMAND_NOT_ALREADY_EXECUTED;
 80008ba:	8303      	strh	r3, [r0, #24]
  pHandle->LastModalitySetByUser = STC_TORQUE_MODE;
}
 80008bc:	b002      	add	sp, #8
 80008be:	4770      	bx	lr

080008c0 <MCI_StartMotor>:
  * @param  pHandle Pointer on the component instance to work on.
  * @retval bool It returns true if the command is successfully executed
  *         otherwise it return false.
  */
__weak bool MCI_StartMotor( MCI_Handle_t * pHandle )
{
 80008c0:	b510      	push	{r4, lr}
  bool RetVal = STM_NextState( pHandle->pSTM, IDLE_START );
 80008c2:	2103      	movs	r1, #3
{
 80008c4:	0004      	movs	r4, r0
  bool RetVal = STM_NextState( pHandle->pSTM, IDLE_START );
 80008c6:	6800      	ldr	r0, [r0, #0]
 80008c8:	f004 fffa 	bl	80058c0 <STM_NextState>

  if ( RetVal == true )
 80008cc:	2800      	cmp	r0, #0
 80008ce:	d001      	beq.n	80008d4 <MCI_StartMotor+0x14>
  {
    pHandle->CommandState = MCI_COMMAND_NOT_ALREADY_EXECUTED;
 80008d0:	2301      	movs	r3, #1
 80008d2:	7623      	strb	r3, [r4, #24]
  }

  return RetVal;
}
 80008d4:	bd10      	pop	{r4, pc}
 80008d6:	46c0      	nop			; (mov r8, r8)

080008d8 <MCI_StopMotor>:
  * @param  pHandle Pointer on the component instance to work on.
  * @retval bool It returns true if the command is successfully executed
  *         otherwise it return false.
  */
__weak bool MCI_StopMotor( MCI_Handle_t * pHandle )
{
 80008d8:	b510      	push	{r4, lr}
  return STM_NextState( pHandle->pSTM, ANY_STOP );
 80008da:	2107      	movs	r1, #7
 80008dc:	6800      	ldr	r0, [r0, #0]
 80008de:	f004 ffef 	bl	80058c0 <STM_NextState>
}
 80008e2:	bd10      	pop	{r4, pc}

080008e4 <MCI_FaultAcknowledged>:
  * @param  pHandle Pointer on the component instance to work on.
  * @retval bool It returns true if the command is successfully executed
  *         otherwise it return false.
  */
__weak bool MCI_FaultAcknowledged( MCI_Handle_t * pHandle )
{
 80008e4:	b510      	push	{r4, lr}
  return STM_FaultAcknowledged( pHandle->pSTM );
 80008e6:	6800      	ldr	r0, [r0, #0]
 80008e8:	f005 f860 	bl	80059ac <STM_FaultAcknowledged>
}
 80008ec:	bd10      	pop	{r4, pc}
 80008ee:	46c0      	nop			; (mov r8, r8)

080008f0 <MCI_EncoderAlign>:
  * @param  pHandle Pointer on the component instance to work on.
  * @retval bool It returns true if the command is successfully executed
  *         otherwise it return false.
  */
__weak bool MCI_EncoderAlign( MCI_Handle_t * pHandle )
{
 80008f0:	b510      	push	{r4, lr}
  return STM_NextState( pHandle->pSTM, IDLE_ALIGNMENT );
 80008f2:	2101      	movs	r1, #1
 80008f4:	6800      	ldr	r0, [r0, #0]
 80008f6:	f004 ffe3 	bl	80058c0 <STM_NextState>
}
 80008fa:	bd10      	pop	{r4, pc}

080008fc <MCI_ExecBufferedCommands>:
  *         occurs.
  * @param  pHandle Pointer on the component instance to work on.
  * @retval none.
  */
__weak void MCI_ExecBufferedCommands( MCI_Handle_t * pHandle )
{
 80008fc:	b510      	push	{r4, lr}
 80008fe:	1e04      	subs	r4, r0, #0
  if ( pHandle != MC_NULL )
 8000900:	d002      	beq.n	8000908 <MCI_ExecBufferedCommands+0xc>
  {
    if ( pHandle->CommandState == MCI_COMMAND_NOT_ALREADY_EXECUTED )
 8000902:	7e03      	ldrb	r3, [r0, #24]
 8000904:	2b01      	cmp	r3, #1
 8000906:	d000      	beq.n	800090a <MCI_ExecBufferedCommands+0xe>
      {
        pHandle->CommandState = MCI_COMMAND_EXECUTED_UNSUCCESFULLY;
      }
    }
  }
}
 8000908:	bd10      	pop	{r4, pc}
      switch ( pHandle->lastCommand )
 800090a:	7b02      	ldrb	r2, [r0, #12]
 800090c:	2a02      	cmp	r2, #2
 800090e:	d023      	beq.n	8000958 <MCI_ExecBufferedCommands+0x5c>
 8000910:	2a03      	cmp	r2, #3
 8000912:	d004      	beq.n	800091e <MCI_ExecBufferedCommands+0x22>
 8000914:	2a01      	cmp	r2, #1
 8000916:	d00e      	beq.n	8000936 <MCI_ExecBufferedCommands+0x3a>
        pHandle->CommandState = MCI_COMMAND_EXECUTED_UNSUCCESFULLY;
 8000918:	2303      	movs	r3, #3
 800091a:	7623      	strb	r3, [r4, #24]
}
 800091c:	e7f4      	b.n	8000908 <MCI_ExecBufferedCommands+0xc>
          pHandle->pFOCVars->bDriveInput = EXTERNAL;
 800091e:	2224      	movs	r2, #36	; 0x24
          pHandle->pFOCVars->Iqdref = pHandle->Iqdref;
 8000920:	0021      	movs	r1, r4
          pHandle->pFOCVars->bDriveInput = EXTERNAL;
 8000922:	6880      	ldr	r0, [r0, #8]
          pHandle->pFOCVars->Iqdref = pHandle->Iqdref;
 8000924:	3112      	adds	r1, #18
          pHandle->pFOCVars->bDriveInput = EXTERNAL;
 8000926:	5483      	strb	r3, [r0, r2]
          pHandle->pFOCVars->Iqdref = pHandle->Iqdref;
 8000928:	3010      	adds	r0, #16
 800092a:	3a20      	subs	r2, #32
 800092c:	f005 f9ac 	bl	8005c88 <memcpy>
        pHandle->CommandState = MCI_COMMAND_EXECUTED_SUCCESFULLY;
 8000930:	2302      	movs	r3, #2
 8000932:	7623      	strb	r3, [r4, #24]
 8000934:	e7e8      	b.n	8000908 <MCI_ExecBufferedCommands+0xc>
          pHandle->pFOCVars->bDriveInput = INTERNAL;
 8000936:	2100      	movs	r1, #0
 8000938:	6882      	ldr	r2, [r0, #8]
 800093a:	3323      	adds	r3, #35	; 0x23
 800093c:	54d1      	strb	r1, [r2, r3]
          STC_SetControlMode( pHandle->pSTC, STC_SPEED_MODE );
 800093e:	6840      	ldr	r0, [r0, #4]
 8000940:	3101      	adds	r1, #1
 8000942:	f004 feff 	bl	8005744 <STC_SetControlMode>
          commandHasBeenExecuted = STC_ExecRamp( pHandle->pSTC, pHandle->hFinalSpeed, pHandle->hDurationms );
 8000946:	8ae2      	ldrh	r2, [r4, #22]
 8000948:	230e      	movs	r3, #14
 800094a:	5ee1      	ldrsh	r1, [r4, r3]
 800094c:	6860      	ldr	r0, [r4, #4]
 800094e:	f004 fefd 	bl	800574c <STC_ExecRamp>
      if ( commandHasBeenExecuted )
 8000952:	2800      	cmp	r0, #0
 8000954:	d0e0      	beq.n	8000918 <MCI_ExecBufferedCommands+0x1c>
 8000956:	e7eb      	b.n	8000930 <MCI_ExecBufferedCommands+0x34>
          pHandle->pFOCVars->bDriveInput = INTERNAL;
 8000958:	2324      	movs	r3, #36	; 0x24
 800095a:	2100      	movs	r1, #0
 800095c:	6882      	ldr	r2, [r0, #8]
 800095e:	54d1      	strb	r1, [r2, r3]
          STC_SetControlMode( pHandle->pSTC, STC_TORQUE_MODE );
 8000960:	6840      	ldr	r0, [r0, #4]
 8000962:	f004 feef 	bl	8005744 <STC_SetControlMode>
          commandHasBeenExecuted = STC_ExecRamp( pHandle->pSTC, pHandle->hFinalTorque, pHandle->hDurationms );
 8000966:	8ae2      	ldrh	r2, [r4, #22]
 8000968:	2310      	movs	r3, #16
 800096a:	5ee1      	ldrsh	r1, [r4, r3]
 800096c:	6860      	ldr	r0, [r4, #4]
 800096e:	f004 feed 	bl	800574c <STC_ExecRamp>
        break;
 8000972:	e7ee      	b.n	8000952 <MCI_ExecBufferedCommands+0x56>

08000974 <MCI_GetSTMState>:
  * @brief  It returns information about the state of the related pSTM object.
  * @param  pHandle Pointer on the component instance to work on.
  * @retval State_t It returns the current state of the related pSTM object.
  */
__weak State_t  MCI_GetSTMState( MCI_Handle_t * pHandle )
{
 8000974:	b510      	push	{r4, lr}
  return STM_GetState( pHandle->pSTM );
 8000976:	6800      	ldr	r0, [r0, #0]
 8000978:	f005 f816 	bl	80059a8 <STM_GetState>
}
 800097c:	bd10      	pop	{r4, pc}
 800097e:	46c0      	nop			; (mov r8, r8)

08000980 <MCI_GetControlMode>:
  * @retval STC_Modality_t It returns the modality of STC. It can be one of
  *         these two values: STC_TORQUE_MODE or STC_SPEED_MODE.
  */
__weak STC_Modality_t MCI_GetControlMode( MCI_Handle_t * pHandle )
{
  return pHandle->LastModalitySetByUser;
 8000980:	7e40      	ldrb	r0, [r0, #25]
}
 8000982:	4770      	bx	lr

08000984 <MCI_GetLastRampFinalSpeed>:
__weak int16_t MCI_GetLastRampFinalSpeed( MCI_Handle_t * pHandle )
{
  int16_t hRetVal = 0;

  /* Examine the last buffered commands */
  if ( pHandle->lastCommand == MCI_EXECSPEEDRAMP )
 8000984:	7b02      	ldrb	r2, [r0, #12]
{
 8000986:	0003      	movs	r3, r0
  int16_t hRetVal = 0;
 8000988:	2000      	movs	r0, #0
  if ( pHandle->lastCommand == MCI_EXECSPEEDRAMP )
 800098a:	2a01      	cmp	r2, #1
 800098c:	d101      	bne.n	8000992 <MCI_GetLastRampFinalSpeed+0xe>
  {
    hRetVal = pHandle->hFinalSpeed;
 800098e:	200e      	movs	r0, #14
 8000990:	5e18      	ldrsh	r0, [r3, r0]
  }
  return hRetVal;
}
 8000992:	4770      	bx	lr

08000994 <MCI_StopRamp>:
/**
  * @brief  Stop the execution of ongoing ramp.
  * @param  pHandle Pointer on the component instance to work on.
  */
__weak void MCI_StopRamp( MCI_Handle_t * pHandle)
{
 8000994:	b510      	push	{r4, lr}
   STC_StopRamp( pHandle->pSTC );
 8000996:	6840      	ldr	r0, [r0, #4]
 8000998:	f004 ff1e 	bl	80057d8 <STC_StopRamp>
}
 800099c:	bd10      	pop	{r4, pc}
 800099e:	46c0      	nop			; (mov r8, r8)

080009a0 <MCI_GetAvrgMecSpeedUnit>:
  *         the unit defined by #SPEED_UNIT and related to the sensor actually
  *         used by FOC algorithm
  * @param  pHandle Pointer on the component instance to work on.
  */
__weak int16_t MCI_GetAvrgMecSpeedUnit( MCI_Handle_t * pHandle )
{
 80009a0:	b510      	push	{r4, lr}
  SpeednPosFdbk_Handle_t * SpeedSensor = STC_GetSpeedSensor( pHandle->pSTC );
 80009a2:	6840      	ldr	r0, [r0, #4]
 80009a4:	f004 feb2 	bl	800570c <STC_GetSpeedSensor>

  return ( SPD_GetAvrgMecSpeedUnit( SpeedSensor ) );
 80009a8:	f004 fe5a 	bl	8005660 <SPD_GetAvrgMecSpeedUnit>
}
 80009ac:	bd10      	pop	{r4, pc}
 80009ae:	46c0      	nop			; (mov r8, r8)

080009b0 <MCI_GetMecSpeedRefUnit>:
  *
  * @param  pHandle Pointer on the component instance to work on.
  *
  */
__weak int16_t MCI_GetMecSpeedRefUnit( MCI_Handle_t * pHandle )
{
 80009b0:	b510      	push	{r4, lr}
  return ( STC_GetMecSpeedRefUnit( pHandle->pSTC ) );
 80009b2:	6840      	ldr	r0, [r0, #4]
 80009b4:	f004 feb6 	bl	8005724 <STC_GetMecSpeedRefUnit>
}
 80009b8:	bd10      	pop	{r4, pc}
 80009ba:	46c0      	nop			; (mov r8, r8)

080009bc <MCI_GetIab>:
  * @brief  It returns stator current Iab in ab_t format
  * @param  pHandle Pointer on the component instance to work on.
  * @retval ab_t Stator current Iab
  */
__weak ab_t MCI_GetIab( MCI_Handle_t * pHandle )
{
 80009bc:	b500      	push	{lr}
 80009be:	b083      	sub	sp, #12
  return ( pHandle->pFOCVars->Iab );
 80009c0:	6881      	ldr	r1, [r0, #8]
 80009c2:	2204      	movs	r2, #4
 80009c4:	a801      	add	r0, sp, #4
 80009c6:	f005 f95f 	bl	8005c88 <memcpy>
 80009ca:	466b      	mov	r3, sp
 80009cc:	466a      	mov	r2, sp
 80009ce:	88db      	ldrh	r3, [r3, #6]
 80009d0:	8890      	ldrh	r0, [r2, #4]
 80009d2:	041b      	lsls	r3, r3, #16
 80009d4:	4318      	orrs	r0, r3
}
 80009d6:	b003      	add	sp, #12
 80009d8:	bd00      	pop	{pc}
 80009da:	46c0      	nop			; (mov r8, r8)

080009dc <MCI_GetIalphabeta>:
  * @brief  It returns stator current Ialphabeta in alphabeta_t format
  * @param  pHandle Pointer on the component instance to work on.
  * @retval alphabeta_t Stator current Ialphabeta
  */
__weak alphabeta_t MCI_GetIalphabeta( MCI_Handle_t * pHandle )
{
 80009dc:	b500      	push	{lr}
  return ( pHandle->pFOCVars->Ialphabeta );
 80009de:	6881      	ldr	r1, [r0, #8]
{
 80009e0:	b083      	sub	sp, #12
  return ( pHandle->pFOCVars->Ialphabeta );
 80009e2:	2204      	movs	r2, #4
 80009e4:	3104      	adds	r1, #4
 80009e6:	a801      	add	r0, sp, #4
 80009e8:	f005 f94e 	bl	8005c88 <memcpy>
 80009ec:	466b      	mov	r3, sp
 80009ee:	466a      	mov	r2, sp
 80009f0:	88db      	ldrh	r3, [r3, #6]
 80009f2:	8890      	ldrh	r0, [r2, #4]
 80009f4:	041b      	lsls	r3, r3, #16
 80009f6:	4318      	orrs	r0, r3
}
 80009f8:	b003      	add	sp, #12
 80009fa:	bd00      	pop	{pc}

080009fc <MCI_GetIqd>:
  * @brief  It returns stator current Iqd in qd_t format
  * @param  pHandle Pointer on the component instance to work on.
  * @retval qd_t Stator current Iqd
  */
__weak qd_t MCI_GetIqd( MCI_Handle_t * pHandle )
{
 80009fc:	b500      	push	{lr}
  return ( pHandle->pFOCVars->Iqd );
 80009fe:	6881      	ldr	r1, [r0, #8]
{
 8000a00:	b083      	sub	sp, #12
  return ( pHandle->pFOCVars->Iqd );
 8000a02:	2204      	movs	r2, #4
 8000a04:	310c      	adds	r1, #12
 8000a06:	a801      	add	r0, sp, #4
 8000a08:	f005 f93e 	bl	8005c88 <memcpy>
 8000a0c:	466b      	mov	r3, sp
 8000a0e:	466a      	mov	r2, sp
 8000a10:	88db      	ldrh	r3, [r3, #6]
 8000a12:	8890      	ldrh	r0, [r2, #4]
 8000a14:	041b      	lsls	r3, r3, #16
 8000a16:	4318      	orrs	r0, r3
}
 8000a18:	b003      	add	sp, #12
 8000a1a:	bd00      	pop	{pc}

08000a1c <MCI_GetIqdref>:
  * @brief  It returns stator current Iqdref in qd_t format
  * @param  pHandle Pointer on the component instance to work on.
  * @retval qd_t Stator current Iqdref
  */
__weak qd_t MCI_GetIqdref( MCI_Handle_t * pHandle )
{
 8000a1c:	b500      	push	{lr}
  return ( pHandle->pFOCVars->Iqdref );
 8000a1e:	6881      	ldr	r1, [r0, #8]
{
 8000a20:	b083      	sub	sp, #12
  return ( pHandle->pFOCVars->Iqdref );
 8000a22:	2204      	movs	r2, #4
 8000a24:	3110      	adds	r1, #16
 8000a26:	a801      	add	r0, sp, #4
 8000a28:	f005 f92e 	bl	8005c88 <memcpy>
 8000a2c:	466b      	mov	r3, sp
 8000a2e:	466a      	mov	r2, sp
 8000a30:	88db      	ldrh	r3, [r3, #6]
 8000a32:	8890      	ldrh	r0, [r2, #4]
 8000a34:	041b      	lsls	r3, r3, #16
 8000a36:	4318      	orrs	r0, r3
}
 8000a38:	b003      	add	sp, #12
 8000a3a:	bd00      	pop	{pc}

08000a3c <MCI_GetVqd>:
  * @brief  It returns stator current Vqd in qd_t format
  * @param  pHandle Pointer on the component instance to work on.
  * @retval qd_t Stator current Vqd
  */
__weak qd_t MCI_GetVqd( MCI_Handle_t * pHandle )
{
 8000a3c:	b500      	push	{lr}
  return ( pHandle->pFOCVars->Vqd );
 8000a3e:	6881      	ldr	r1, [r0, #8]
{
 8000a40:	b083      	sub	sp, #12
  return ( pHandle->pFOCVars->Vqd );
 8000a42:	2204      	movs	r2, #4
 8000a44:	3116      	adds	r1, #22
 8000a46:	a801      	add	r0, sp, #4
 8000a48:	f005 f91e 	bl	8005c88 <memcpy>
 8000a4c:	466b      	mov	r3, sp
 8000a4e:	466a      	mov	r2, sp
 8000a50:	88db      	ldrh	r3, [r3, #6]
 8000a52:	8890      	ldrh	r0, [r2, #4]
 8000a54:	041b      	lsls	r3, r3, #16
 8000a56:	4318      	orrs	r0, r3
}
 8000a58:	b003      	add	sp, #12
 8000a5a:	bd00      	pop	{pc}

08000a5c <MCI_GetValphabeta>:
  * @brief  It returns stator current Valphabeta in alphabeta_t format
  * @param  pHandle Pointer on the component instance to work on.
  * @retval alphabeta_t Stator current Valphabeta
  */
__weak alphabeta_t MCI_GetValphabeta( MCI_Handle_t * pHandle )
{
 8000a5c:	b500      	push	{lr}
  return ( pHandle->pFOCVars->Valphabeta );
 8000a5e:	6881      	ldr	r1, [r0, #8]
{
 8000a60:	b083      	sub	sp, #12
  return ( pHandle->pFOCVars->Valphabeta );
 8000a62:	2204      	movs	r2, #4
 8000a64:	311a      	adds	r1, #26
 8000a66:	a801      	add	r0, sp, #4
 8000a68:	f005 f90e 	bl	8005c88 <memcpy>
 8000a6c:	466b      	mov	r3, sp
 8000a6e:	466a      	mov	r2, sp
 8000a70:	88db      	ldrh	r3, [r3, #6]
 8000a72:	8890      	ldrh	r0, [r2, #4]
 8000a74:	041b      	lsls	r3, r3, #16
 8000a76:	4318      	orrs	r0, r3
}
 8000a78:	b003      	add	sp, #12
 8000a7a:	bd00      	pop	{pc}

08000a7c <MCI_GetTeref>:
  * @param  pHandle Pointer on the component instance to work on.
  * @retval int16_t Teref
  */
__weak int16_t MCI_GetTeref( MCI_Handle_t * pHandle )
{
  return ( pHandle->pFOCVars->hTeref );
 8000a7c:	6883      	ldr	r3, [r0, #8]
 8000a7e:	201e      	movs	r0, #30
 8000a80:	5e18      	ldrsh	r0, [r3, r0]
}
 8000a82:	4770      	bx	lr

08000a84 <MCI_SetIdref>:
  * @param  int16_t New target Id value
  * @retval none
  */
__weak void MCI_SetIdref( MCI_Handle_t * pHandle, int16_t hNewIdref )
{
  pHandle->pFOCVars->Iqdref.d = hNewIdref;
 8000a84:	6883      	ldr	r3, [r0, #8]
 8000a86:	8259      	strh	r1, [r3, #18]
  pHandle->pFOCVars->UserIdref = hNewIdref;
 8000a88:	8299      	strh	r1, [r3, #20]
}
 8000a8a:	4770      	bx	lr

08000a8c <MCI_Clear_Iqdref>:
  * @brief  It re-initializes Iqdref variables with their default values.
  * @param  pHandle Pointer on the component instance to work on.
  * @retval none
  */
__weak void MCI_Clear_Iqdref( MCI_Handle_t * pHandle )
{
 8000a8c:	b510      	push	{r4, lr}
  pHandle->pFOCVars->Iqdref = STC_GetDefaultIqdref( pHandle->pSTC );
 8000a8e:	6884      	ldr	r4, [r0, #8]
 8000a90:	6840      	ldr	r0, [r0, #4]
 8000a92:	f004 fee5 	bl	8005860 <STC_GetDefaultIqdref>
 8000a96:	8220      	strh	r0, [r4, #16]
 8000a98:	0c00      	lsrs	r0, r0, #16
 8000a9a:	8260      	strh	r0, [r4, #18]
}
 8000a9c:	bd10      	pop	{r4, pc}
 8000a9e:	46c0      	nop			; (mov r8, r8)

08000aa0 <MCM_Clarke>:
  wbeta_tmp = ( -( a_divSQRT3_tmp ) - ( b_divSQRT3_tmp ) -
                 ( b_divSQRT3_tmp ) ) >> 15;
#endif

  /* Check saturation of Ibeta */
  if ( wbeta_tmp > INT16_MAX )
 8000aa0:	2180      	movs	r1, #128	; 0x80
  b_divSQRT3_tmp = divSQRT_3 * ( int32_t )Input.b;
 8000aa2:	4b11      	ldr	r3, [pc, #68]	; (8000ae8 <MCM_Clarke+0x48>)
 8000aa4:	b202      	sxth	r2, r0
 8000aa6:	1400      	asrs	r0, r0, #16
 8000aa8:	4358      	muls	r0, r3
  a_divSQRT3_tmp = divSQRT_3 * ( int32_t )Input.a;
 8000aaa:	4353      	muls	r3, r2
  wbeta_tmp = ( -( a_divSQRT3_tmp ) - ( b_divSQRT3_tmp ) -
 8000aac:	425b      	negs	r3, r3
 8000aae:	1a1b      	subs	r3, r3, r0
 8000ab0:	1a1b      	subs	r3, r3, r0
{
 8000ab2:	b084      	sub	sp, #16
  wbeta_tmp = ( -( a_divSQRT3_tmp ) - ( b_divSQRT3_tmp ) -
 8000ab4:	13db      	asrs	r3, r3, #15
  if ( wbeta_tmp > INT16_MAX )
 8000ab6:	0209      	lsls	r1, r1, #8
 8000ab8:	428b      	cmp	r3, r1
 8000aba:	da04      	bge.n	8000ac6 <MCM_Clarke+0x26>
  {
    hbeta_tmp = INT16_MAX;
  }
  else if ( wbeta_tmp < ( -32768 ) )
 8000abc:	490b      	ldr	r1, [pc, #44]	; (8000aec <MCM_Clarke+0x4c>)
 8000abe:	428b      	cmp	r3, r1
 8000ac0:	da08      	bge.n	8000ad4 <MCM_Clarke+0x34>
 8000ac2:	4b0b      	ldr	r3, [pc, #44]	; (8000af0 <MCM_Clarke+0x50>)
 8000ac4:	e000      	b.n	8000ac8 <MCM_Clarke+0x28>
 8000ac6:	4b0b      	ldr	r3, [pc, #44]	; (8000af4 <MCM_Clarke+0x54>)
  if ( Output.beta == ( int16_t )( -32768 ) )
  {
    Output.beta = -32767;
  }

  return ( Output );
 8000ac8:	0410      	lsls	r0, r2, #16
 8000aca:	041b      	lsls	r3, r3, #16
 8000acc:	0c00      	lsrs	r0, r0, #16
 8000ace:	4318      	orrs	r0, r3
}
 8000ad0:	b004      	add	sp, #16
 8000ad2:	4770      	bx	lr
    hbeta_tmp = ( int16_t )( wbeta_tmp );
 8000ad4:	4806      	ldr	r0, [pc, #24]	; (8000af0 <MCM_Clarke+0x50>)
 8000ad6:	1c19      	adds	r1, r3, #0
 8000ad8:	b21b      	sxth	r3, r3
 8000ada:	4283      	cmp	r3, r0
 8000adc:	db01      	blt.n	8000ae2 <MCM_Clarke+0x42>
 8000ade:	b20b      	sxth	r3, r1
 8000ae0:	e7f2      	b.n	8000ac8 <MCM_Clarke+0x28>
 8000ae2:	1c01      	adds	r1, r0, #0
 8000ae4:	b20b      	sxth	r3, r1
 8000ae6:	e7ef      	b.n	8000ac8 <MCM_Clarke+0x28>
 8000ae8:	000049e6 	.word	0x000049e6
 8000aec:	ffff8000 	.word	0xffff8000
 8000af0:	ffff8001 	.word	0xffff8001
 8000af4:	00007fff 	.word	0x00007fff

08000af8 <MCM_Trig_Functions>:
  uint16_t uhindex;

  Trig_Components Local_Components;

  /* 10 bit index computation  */
  shindex = ( ( int32_t )32768 + ( int32_t )hAngle );
 8000af8:	2380      	movs	r3, #128	; 0x80
 8000afa:	021b      	lsls	r3, r3, #8
 8000afc:	469c      	mov	ip, r3
 8000afe:	4460      	add	r0, ip
  uhindex = ( uint16_t )shindex;
 8000b00:	b283      	uxth	r3, r0
{
 8000b02:	b530      	push	{r4, r5, lr}
  uhindex /= ( uint16_t )64;
 8000b04:	099b      	lsrs	r3, r3, #6

  switch ( ( uint16_t )( uhindex ) & SIN_MASK )
 8000b06:	24c0      	movs	r4, #192	; 0xc0
 8000b08:	0018      	movs	r0, r3
 8000b0a:	2580      	movs	r5, #128	; 0x80
 8000b0c:	00a4      	lsls	r4, r4, #2
{
 8000b0e:	2100      	movs	r1, #0
 8000b10:	2200      	movs	r2, #0
 8000b12:	b083      	sub	sp, #12
 8000b14:	4020      	ands	r0, r4
  switch ( ( uint16_t )( uhindex ) & SIN_MASK )
 8000b16:	00ad      	lsls	r5, r5, #2
 8000b18:	42a8      	cmp	r0, r5
 8000b1a:	d023      	beq.n	8000b64 <MCM_Trig_Functions+0x6c>
 8000b1c:	d815      	bhi.n	8000b4a <MCM_Trig_Functions+0x52>
 8000b1e:	2800      	cmp	r0, #0
 8000b20:	d029      	beq.n	8000b76 <MCM_Trig_Functions+0x7e>
 8000b22:	2480      	movs	r4, #128	; 0x80
 8000b24:	0064      	lsls	r4, r4, #1
 8000b26:	42a0      	cmp	r0, r4
 8000b28:	d109      	bne.n	8000b3e <MCM_Trig_Functions+0x46>
      Local_Components.hSin = -hSin_Cos_Table[( uint8_t )( uhindex )];
      Local_Components.hCos = -hSin_Cos_Table[( uint8_t )( 0xFFu - ( uint8_t )( uhindex ) )];
      break;

    case U270_360:
      Local_Components.hSin =  -hSin_Cos_Table[( uint8_t )( 0xFFu - ( uint8_t )( uhindex ) )];
 8000b2a:	b2db      	uxtb	r3, r3
 8000b2c:	43da      	mvns	r2, r3
 8000b2e:	4918      	ldr	r1, [pc, #96]	; (8000b90 <MCM_Trig_Functions+0x98>)
 8000b30:	b2d2      	uxtb	r2, r2
 8000b32:	0052      	lsls	r2, r2, #1
 8000b34:	5a52      	ldrh	r2, [r2, r1]
      Local_Components.hCos =  hSin_Cos_Table[( uint8_t )( uhindex )];
 8000b36:	005b      	lsls	r3, r3, #1
      Local_Components.hSin =  -hSin_Cos_Table[( uint8_t )( 0xFFu - ( uint8_t )( uhindex ) )];
 8000b38:	4252      	negs	r2, r2
      Local_Components.hCos =  hSin_Cos_Table[( uint8_t )( uhindex )];
 8000b3a:	5e59      	ldrsh	r1, [r3, r1]
      Local_Components.hSin =  -hSin_Cos_Table[( uint8_t )( 0xFFu - ( uint8_t )( uhindex ) )];
 8000b3c:	b212      	sxth	r2, r2
      break;
    default:
      break;
  }
  return ( Local_Components );
 8000b3e:	0408      	lsls	r0, r1, #16
 8000b40:	0412      	lsls	r2, r2, #16
 8000b42:	0c00      	lsrs	r0, r0, #16
 8000b44:	4310      	orrs	r0, r2
}
 8000b46:	b003      	add	sp, #12
 8000b48:	bd30      	pop	{r4, r5, pc}
  switch ( ( uint16_t )( uhindex ) & SIN_MASK )
 8000b4a:	42a0      	cmp	r0, r4
 8000b4c:	d1f7      	bne.n	8000b3e <MCM_Trig_Functions+0x46>
      Local_Components.hSin = hSin_Cos_Table[( uint8_t )( 0xFFu - ( uint8_t )( uhindex ) )];
 8000b4e:	b2db      	uxtb	r3, r3
 8000b50:	43da      	mvns	r2, r3
 8000b52:	490f      	ldr	r1, [pc, #60]	; (8000b90 <MCM_Trig_Functions+0x98>)
 8000b54:	b2d2      	uxtb	r2, r2
 8000b56:	0052      	lsls	r2, r2, #1
      Local_Components.hCos = -hSin_Cos_Table[( uint8_t )( uhindex )];
 8000b58:	005b      	lsls	r3, r3, #1
      Local_Components.hSin = hSin_Cos_Table[( uint8_t )( 0xFFu - ( uint8_t )( uhindex ) )];
 8000b5a:	5e52      	ldrsh	r2, [r2, r1]
      Local_Components.hCos = -hSin_Cos_Table[( uint8_t )( uhindex )];
 8000b5c:	5a59      	ldrh	r1, [r3, r1]
 8000b5e:	4249      	negs	r1, r1
 8000b60:	b209      	sxth	r1, r1
      break;
 8000b62:	e7ec      	b.n	8000b3e <MCM_Trig_Functions+0x46>
      Local_Components.hSin = hSin_Cos_Table[( uint8_t )( uhindex )];
 8000b64:	b2db      	uxtb	r3, r3
 8000b66:	005a      	lsls	r2, r3, #1
      Local_Components.hCos = hSin_Cos_Table[( uint8_t )( 0xFFu - ( uint8_t )( uhindex ) )];
 8000b68:	43db      	mvns	r3, r3
      Local_Components.hSin = hSin_Cos_Table[( uint8_t )( uhindex )];
 8000b6a:	4909      	ldr	r1, [pc, #36]	; (8000b90 <MCM_Trig_Functions+0x98>)
      Local_Components.hCos = hSin_Cos_Table[( uint8_t )( 0xFFu - ( uint8_t )( uhindex ) )];
 8000b6c:	b2db      	uxtb	r3, r3
 8000b6e:	005b      	lsls	r3, r3, #1
      Local_Components.hSin = hSin_Cos_Table[( uint8_t )( uhindex )];
 8000b70:	5e52      	ldrsh	r2, [r2, r1]
      Local_Components.hCos = hSin_Cos_Table[( uint8_t )( 0xFFu - ( uint8_t )( uhindex ) )];
 8000b72:	5e59      	ldrsh	r1, [r3, r1]
      break;
 8000b74:	e7e3      	b.n	8000b3e <MCM_Trig_Functions+0x46>
      Local_Components.hSin = -hSin_Cos_Table[( uint8_t )( uhindex )];
 8000b76:	b2db      	uxtb	r3, r3
 8000b78:	005a      	lsls	r2, r3, #1
      Local_Components.hCos = -hSin_Cos_Table[( uint8_t )( 0xFFu - ( uint8_t )( uhindex ) )];
 8000b7a:	43db      	mvns	r3, r3
      Local_Components.hSin = -hSin_Cos_Table[( uint8_t )( uhindex )];
 8000b7c:	4904      	ldr	r1, [pc, #16]	; (8000b90 <MCM_Trig_Functions+0x98>)
      Local_Components.hCos = -hSin_Cos_Table[( uint8_t )( 0xFFu - ( uint8_t )( uhindex ) )];
 8000b7e:	b2db      	uxtb	r3, r3
 8000b80:	005b      	lsls	r3, r3, #1
      Local_Components.hSin = -hSin_Cos_Table[( uint8_t )( uhindex )];
 8000b82:	5a52      	ldrh	r2, [r2, r1]
      Local_Components.hCos = -hSin_Cos_Table[( uint8_t )( 0xFFu - ( uint8_t )( uhindex ) )];
 8000b84:	5a59      	ldrh	r1, [r3, r1]
      Local_Components.hSin = -hSin_Cos_Table[( uint8_t )( uhindex )];
 8000b86:	4252      	negs	r2, r2
      Local_Components.hCos = -hSin_Cos_Table[( uint8_t )( 0xFFu - ( uint8_t )( uhindex ) )];
 8000b88:	4249      	negs	r1, r1
      Local_Components.hSin = -hSin_Cos_Table[( uint8_t )( uhindex )];
 8000b8a:	b212      	sxth	r2, r2
      Local_Components.hCos = -hSin_Cos_Table[( uint8_t )( 0xFFu - ( uint8_t )( uhindex ) )];
 8000b8c:	b209      	sxth	r1, r1
      break;
 8000b8e:	e7d6      	b.n	8000b3e <MCM_Trig_Functions+0x46>
 8000b90:	08005cb4 	.word	0x08005cb4

08000b94 <MCM_Park>:
{
 8000b94:	b570      	push	{r4, r5, r6, lr}
 8000b96:	b084      	sub	sp, #16
 8000b98:	9001      	str	r0, [sp, #4]
 8000b9a:	b205      	sxth	r5, r0
 8000b9c:	1404      	asrs	r4, r0, #16
  Local_Vector_Components = MCM_Trig_Functions( Theta );
 8000b9e:	0008      	movs	r0, r1
 8000ba0:	f7ff ffaa 	bl	8000af8 <MCM_Trig_Functions>
  q_tmp_1 = Input.alpha * ( int32_t )Local_Vector_Components.hCos;
 8000ba4:	b201      	sxth	r1, r0
  q_tmp_2 = Input.beta * ( int32_t )Local_Vector_Components.hSin;
 8000ba6:	1403      	asrs	r3, r0, #16
  q_tmp_1 = Input.alpha * ( int32_t )Local_Vector_Components.hCos;
 8000ba8:	000a      	movs	r2, r1
  q_tmp_2 = Input.beta * ( int32_t )Local_Vector_Components.hSin;
 8000baa:	0018      	movs	r0, r3
  q_tmp_1 = Input.alpha * ( int32_t )Local_Vector_Components.hCos;
 8000bac:	436a      	muls	r2, r5
  q_tmp_2 = Input.beta * ( int32_t )Local_Vector_Components.hSin;
 8000bae:	4360      	muls	r0, r4
  wqd_tmp = ( q_tmp_1 - q_tmp_2 ) >> 15;
 8000bb0:	1a12      	subs	r2, r2, r0
  if ( wqd_tmp > INT16_MAX )
 8000bb2:	2080      	movs	r0, #128	; 0x80
  wqd_tmp = ( q_tmp_1 - q_tmp_2 ) >> 15;
 8000bb4:	13d2      	asrs	r2, r2, #15
  if ( wqd_tmp > INT16_MAX )
 8000bb6:	0200      	lsls	r0, r0, #8
 8000bb8:	4282      	cmp	r2, r0
 8000bba:	da12      	bge.n	8000be2 <MCM_Park+0x4e>
  else if ( wqd_tmp < ( -32768 ) )
 8000bbc:	481a      	ldr	r0, [pc, #104]	; (8000c28 <MCM_Park+0x94>)
 8000bbe:	4282      	cmp	r2, r0
 8000bc0:	da24      	bge.n	8000c0c <MCM_Park+0x78>
  if ( wqd_tmp > INT16_MAX )
 8000bc2:	2280      	movs	r2, #128	; 0x80
  d_tmp_1 = Input.alpha * ( int32_t )Local_Vector_Components.hSin;
 8000bc4:	436b      	muls	r3, r5
  d_tmp_2 = Input.beta * ( int32_t )Local_Vector_Components.hCos;
 8000bc6:	4361      	muls	r1, r4
  wqd_tmp = ( d_tmp_1 + d_tmp_2 ) >> 15;
 8000bc8:	185b      	adds	r3, r3, r1
 8000bca:	4818      	ldr	r0, [pc, #96]	; (8000c2c <MCM_Park+0x98>)
 8000bcc:	13db      	asrs	r3, r3, #15
  if ( wqd_tmp > INT16_MAX )
 8000bce:	0212      	lsls	r2, r2, #8
 8000bd0:	4293      	cmp	r3, r2
 8000bd2:	db0f      	blt.n	8000bf4 <MCM_Park+0x60>
 8000bd4:	4b16      	ldr	r3, [pc, #88]	; (8000c30 <MCM_Park+0x9c>)
  return ( Output );
 8000bd6:	0400      	lsls	r0, r0, #16
 8000bd8:	041b      	lsls	r3, r3, #16
 8000bda:	0c00      	lsrs	r0, r0, #16
 8000bdc:	4318      	orrs	r0, r3
}
 8000bde:	b004      	add	sp, #16
 8000be0:	bd70      	pop	{r4, r5, r6, pc}
 8000be2:	4813      	ldr	r0, [pc, #76]	; (8000c30 <MCM_Park+0x9c>)
  if ( wqd_tmp > INT16_MAX )
 8000be4:	2280      	movs	r2, #128	; 0x80
  d_tmp_1 = Input.alpha * ( int32_t )Local_Vector_Components.hSin;
 8000be6:	436b      	muls	r3, r5
  d_tmp_2 = Input.beta * ( int32_t )Local_Vector_Components.hCos;
 8000be8:	4361      	muls	r1, r4
  wqd_tmp = ( d_tmp_1 + d_tmp_2 ) >> 15;
 8000bea:	185b      	adds	r3, r3, r1
 8000bec:	13db      	asrs	r3, r3, #15
  if ( wqd_tmp > INT16_MAX )
 8000bee:	0212      	lsls	r2, r2, #8
 8000bf0:	4293      	cmp	r3, r2
 8000bf2:	daef      	bge.n	8000bd4 <MCM_Park+0x40>
  else if ( wqd_tmp < ( -32768 ) )
 8000bf4:	4a0c      	ldr	r2, [pc, #48]	; (8000c28 <MCM_Park+0x94>)
 8000bf6:	4293      	cmp	r3, r2
 8000bf8:	da01      	bge.n	8000bfe <MCM_Park+0x6a>
 8000bfa:	4b0c      	ldr	r3, [pc, #48]	; (8000c2c <MCM_Park+0x98>)
 8000bfc:	e7eb      	b.n	8000bd6 <MCM_Park+0x42>
    hqd_tmp = ( int16_t )( wqd_tmp );
 8000bfe:	490b      	ldr	r1, [pc, #44]	; (8000c2c <MCM_Park+0x98>)
 8000c00:	1c1a      	adds	r2, r3, #0
 8000c02:	b21b      	sxth	r3, r3
 8000c04:	428b      	cmp	r3, r1
 8000c06:	db0b      	blt.n	8000c20 <MCM_Park+0x8c>
 8000c08:	b213      	sxth	r3, r2
 8000c0a:	e7e4      	b.n	8000bd6 <MCM_Park+0x42>
    hqd_tmp = ( int16_t )( wqd_tmp );
 8000c0c:	4e07      	ldr	r6, [pc, #28]	; (8000c2c <MCM_Park+0x98>)
 8000c0e:	1c10      	adds	r0, r2, #0
 8000c10:	b212      	sxth	r2, r2
 8000c12:	42b2      	cmp	r2, r6
 8000c14:	db01      	blt.n	8000c1a <MCM_Park+0x86>
 8000c16:	b200      	sxth	r0, r0
 8000c18:	e7e4      	b.n	8000be4 <MCM_Park+0x50>
 8000c1a:	1c30      	adds	r0, r6, #0
 8000c1c:	b200      	sxth	r0, r0
 8000c1e:	e7e1      	b.n	8000be4 <MCM_Park+0x50>
 8000c20:	1c0a      	adds	r2, r1, #0
 8000c22:	b213      	sxth	r3, r2
 8000c24:	e7d7      	b.n	8000bd6 <MCM_Park+0x42>
 8000c26:	46c0      	nop			; (mov r8, r8)
 8000c28:	ffff8000 	.word	0xffff8000
 8000c2c:	ffff8001 	.word	0xffff8001
 8000c30:	00007fff 	.word	0x00007fff

08000c34 <MCM_Rev_Park>:
{
 8000c34:	b530      	push	{r4, r5, lr}
 8000c36:	b085      	sub	sp, #20
 8000c38:	b205      	sxth	r5, r0
 8000c3a:	9001      	str	r0, [sp, #4]
 8000c3c:	1404      	asrs	r4, r0, #16
  Local_Vector_Components = MCM_Trig_Functions( Theta );
 8000c3e:	0008      	movs	r0, r1
 8000c40:	f7ff ff5a 	bl	8000af8 <MCM_Trig_Functions>
  alpha_tmp1 = Input.q * ( int32_t )Local_Vector_Components.hCos;
 8000c44:	b202      	sxth	r2, r0
  alpha_tmp2 = Input.d * ( int32_t )Local_Vector_Components.hSin;
 8000c46:	1403      	asrs	r3, r0, #16
 8000c48:	0019      	movs	r1, r3
  alpha_tmp1 = Input.q * ( int32_t )Local_Vector_Components.hCos;
 8000c4a:	0010      	movs	r0, r2
  alpha_tmp2 = Input.d * ( int32_t )Local_Vector_Components.hSin;
 8000c4c:	4361      	muls	r1, r4
  alpha_tmp1 = Input.q * ( int32_t )Local_Vector_Components.hCos;
 8000c4e:	4368      	muls	r0, r5
  beta_tmp2 = Input.d * ( int32_t )Local_Vector_Components.hCos;
 8000c50:	4354      	muls	r4, r2
  beta_tmp1 = Input.q * ( int32_t )Local_Vector_Components.hSin;
 8000c52:	436b      	muls	r3, r5
  Output.alpha = ( int16_t )( ( ( alpha_tmp1 ) + ( alpha_tmp2 ) ) >> 15 );
 8000c54:	1840      	adds	r0, r0, r1
  Output.beta = ( int16_t )( ( beta_tmp2 - beta_tmp1 ) >> 15 );
 8000c56:	1ae4      	subs	r4, r4, r3
 8000c58:	13e4      	asrs	r4, r4, #15
  return ( Output );
 8000c5a:	0040      	lsls	r0, r0, #1
 8000c5c:	0424      	lsls	r4, r4, #16
 8000c5e:	0c00      	lsrs	r0, r0, #16
 8000c60:	4320      	orrs	r0, r4
}
 8000c62:	b005      	add	sp, #20
 8000c64:	bd30      	pop	{r4, r5, pc}
 8000c66:	46c0      	nop			; (mov r8, r8)

08000c68 <FOC_Clear>:
  /* USER CODE END FOC_Clear 0 */
  ab_t NULL_ab = {(int16_t)0, (int16_t)0};
  qd_t NULL_qd = {(int16_t)0, (int16_t)0};
  alphabeta_t NULL_alphabeta = {(int16_t)0, (int16_t)0};

  FOCVars[bMotor].Iab = NULL_ab;
 8000c68:	2126      	movs	r1, #38	; 0x26
 8000c6a:	2200      	movs	r2, #0
 8000c6c:	4341      	muls	r1, r0
 8000c6e:	4b12      	ldr	r3, [pc, #72]	; (8000cb8 <FOC_Clear+0x50>)
{
 8000c70:	b510      	push	{r4, lr}
  FOCVars[bMotor].Iab = NULL_ab;
 8000c72:	52ca      	strh	r2, [r1, r3]
 8000c74:	185b      	adds	r3, r3, r1
 8000c76:	805a      	strh	r2, [r3, #2]
  FOCVars[bMotor].Ialphabeta = NULL_alphabeta;
 8000c78:	809a      	strh	r2, [r3, #4]
 8000c7a:	80da      	strh	r2, [r3, #6]
  FOCVars[bMotor].Iqd = NULL_qd;
 8000c7c:	819a      	strh	r2, [r3, #12]
 8000c7e:	81da      	strh	r2, [r3, #14]
  FOCVars[bMotor].Iqdref = NULL_qd;
 8000c80:	821a      	strh	r2, [r3, #16]
 8000c82:	825a      	strh	r2, [r3, #18]
  FOCVars[bMotor].hTeref = (int16_t)0;
 8000c84:	83da      	strh	r2, [r3, #30]
  FOCVars[bMotor].Vqd = NULL_qd;
 8000c86:	82da      	strh	r2, [r3, #22]
 8000c88:	831a      	strh	r2, [r3, #24]
  FOCVars[bMotor].Valphabeta = NULL_alphabeta;
 8000c8a:	835a      	strh	r2, [r3, #26]
 8000c8c:	839a      	strh	r2, [r3, #28]
  FOCVars[bMotor].hElAngle = (int16_t)0;
 8000c8e:	841a      	strh	r2, [r3, #32]

  PID_SetIntegralTerm(pPIDIq[bMotor], (int32_t)0);
 8000c90:	4b0a      	ldr	r3, [pc, #40]	; (8000cbc <FOC_Clear+0x54>)
 8000c92:	0084      	lsls	r4, r0, #2
 8000c94:	58e0      	ldr	r0, [r4, r3]
 8000c96:	2100      	movs	r1, #0
 8000c98:	f003 ff12 	bl	8004ac0 <PID_SetIntegralTerm>
  PID_SetIntegralTerm(pPIDId[bMotor], (int32_t)0);
 8000c9c:	4b08      	ldr	r3, [pc, #32]	; (8000cc0 <FOC_Clear+0x58>)
 8000c9e:	2100      	movs	r1, #0
 8000ca0:	58e0      	ldr	r0, [r4, r3]
 8000ca2:	f003 ff0d 	bl	8004ac0 <PID_SetIntegralTerm>

  STC_Clear(pSTC[bMotor]);
 8000ca6:	4b07      	ldr	r3, [pc, #28]	; (8000cc4 <FOC_Clear+0x5c>)
 8000ca8:	58e0      	ldr	r0, [r4, r3]
 8000caa:	f004 fd31 	bl	8005710 <STC_Clear>

  PWMC_SwitchOffPWM(pwmcHandle[bMotor]);
 8000cae:	4b06      	ldr	r3, [pc, #24]	; (8000cc8 <FOC_Clear+0x60>)
 8000cb0:	58e0      	ldr	r0, [r4, r3]
 8000cb2:	f004 f8ab 	bl	8004e0c <PWMC_SwitchOffPWM>

  /* USER CODE BEGIN FOC_Clear 1 */

  /* USER CODE END FOC_Clear 1 */
}
 8000cb6:	bd10      	pop	{r4, pc}
 8000cb8:	2000076c 	.word	0x2000076c
 8000cbc:	20000828 	.word	0x20000828
 8000cc0:	20000824 	.word	0x20000824
 8000cc4:	20000834 	.word	0x20000834
 8000cc8:	2000083c 	.word	0x2000083c

08000ccc <MCboot>:
{
 8000ccc:	b5f0      	push	{r4, r5, r6, r7, lr}
 8000cce:	46de      	mov	lr, fp
 8000cd0:	4657      	mov	r7, sl
 8000cd2:	464e      	mov	r6, r9
 8000cd4:	4645      	mov	r5, r8
  bMCBootCompleted = 0;
 8000cd6:	2400      	movs	r4, #0
{
 8000cd8:	b5e0      	push	{r5, r6, r7, lr}
  STM_Init(&STM[M1]);
 8000cda:	4b57      	ldr	r3, [pc, #348]	; (8000e38 <MCboot+0x16c>)
{
 8000cdc:	b08b      	sub	sp, #44	; 0x2c
 8000cde:	9001      	str	r0, [sp, #4]
  STM_Init(&STM[M1]);
 8000ce0:	0018      	movs	r0, r3
{
 8000ce2:	9102      	str	r1, [sp, #8]
  STM_Init(&STM[M1]);
 8000ce4:	9300      	str	r3, [sp, #0]
 8000ce6:	f004 fdcb 	bl	8005880 <STM_Init>
  bMCBootCompleted = 0;
 8000cea:	4b54      	ldr	r3, [pc, #336]	; (8000e3c <MCboot+0x170>)
  pCLM[M1] = &CircleLimitationM1;
 8000cec:	4a54      	ldr	r2, [pc, #336]	; (8000e40 <MCboot+0x174>)
  bMCBootCompleted = 0;
 8000cee:	701c      	strb	r4, [r3, #0]
 8000cf0:	9303      	str	r3, [sp, #12]
  pCLM[M1] = &CircleLimitationM1;
 8000cf2:	4b54      	ldr	r3, [pc, #336]	; (8000e44 <MCboot+0x178>)
  pwmcHandle[M1] = &PWM_Handle_M1._Super;
 8000cf4:	4854      	ldr	r0, [pc, #336]	; (8000e48 <MCboot+0x17c>)
  pCLM[M1] = &CircleLimitationM1;
 8000cf6:	601a      	str	r2, [r3, #0]
  pwmcHandle[M1] = &PWM_Handle_M1._Super;
 8000cf8:	4b54      	ldr	r3, [pc, #336]	; (8000e4c <MCboot+0x180>)
 8000cfa:	6018      	str	r0, [r3, #0]
 8000cfc:	9304      	str	r3, [sp, #16]
  R3_1_Init(&PWM_Handle_M1);
 8000cfe:	f004 f9ad 	bl	800505c <R3_1_Init>
  PID_HandleInit(&PIDSpeedHandle_M1);
 8000d02:	4d53      	ldr	r5, [pc, #332]	; (8000e50 <MCboot+0x184>)
 8000d04:	0028      	movs	r0, r5
 8000d06:	f003 fec7 	bl	8004a98 <PID_HandleInit>
  pPIDSpeed[M1] = &PIDSpeedHandle_M1;
 8000d0a:	4e52      	ldr	r6, [pc, #328]	; (8000e54 <MCboot+0x188>)
  pSTC[M1] = &SpeednTorqCtrlM1;
 8000d0c:	4b52      	ldr	r3, [pc, #328]	; (8000e58 <MCboot+0x18c>)
  pPIDSpeed[M1] = &PIDSpeedHandle_M1;
 8000d0e:	46b2      	mov	sl, r6
  STC_Init(pSTC[M1],pPIDSpeed[M1], &HALL_M1._Super);
 8000d10:	4657      	mov	r7, sl
  pPIDSpeed[M1] = &PIDSpeedHandle_M1;
 8000d12:	6035      	str	r5, [r6, #0]
  pSTC[M1] = &SpeednTorqCtrlM1;
 8000d14:	4d51      	ldr	r5, [pc, #324]	; (8000e5c <MCboot+0x190>)
  HALL_Init (&HALL_M1);
 8000d16:	4e52      	ldr	r6, [pc, #328]	; (8000e60 <MCboot+0x194>)
  pSTC[M1] = &SpeednTorqCtrlM1;
 8000d18:	602b      	str	r3, [r5, #0]
  HALL_Init (&HALL_M1);
 8000d1a:	0030      	movs	r0, r6
 8000d1c:	f003 fa2a 	bl	8004174 <HALL_Init>
  STC_Init(pSTC[M1],pPIDSpeed[M1], &HALL_M1._Super);
 8000d20:	0032      	movs	r2, r6
 8000d22:	6839      	ldr	r1, [r7, #0]
 8000d24:	6828      	ldr	r0, [r5, #0]
 8000d26:	9605      	str	r6, [sp, #20]
 8000d28:	f004 fcde 	bl	80056e8 <STC_Init>
  PID_HandleInit(&PIDIqHandle_M1);
 8000d2c:	4f4d      	ldr	r7, [pc, #308]	; (8000e64 <MCboot+0x198>)
 8000d2e:	0038      	movs	r0, r7
 8000d30:	f003 feb2 	bl	8004a98 <PID_HandleInit>
  PID_HandleInit(&PIDIdHandle_M1);
 8000d34:	4e4c      	ldr	r6, [pc, #304]	; (8000e68 <MCboot+0x19c>)
 8000d36:	0030      	movs	r0, r6
 8000d38:	f003 feae 	bl	8004a98 <PID_HandleInit>
  pPIDIq[M1] = &PIDIqHandle_M1;
 8000d3c:	494b      	ldr	r1, [pc, #300]	; (8000e6c <MCboot+0x1a0>)
  pBusSensorM1 = &VirtualBusVoltageSensorParamsM1;
 8000d3e:	484c      	ldr	r0, [pc, #304]	; (8000e70 <MCboot+0x1a4>)
  pPIDIq[M1] = &PIDIqHandle_M1;
 8000d40:	600f      	str	r7, [r1, #0]
  pPIDId[M1] = &PIDIdHandle_M1;
 8000d42:	4f4c      	ldr	r7, [pc, #304]	; (8000e74 <MCboot+0x1a8>)
  pPIDIq[M1] = &PIDIqHandle_M1;
 8000d44:	9106      	str	r1, [sp, #24]
  pPIDId[M1] = &PIDIdHandle_M1;
 8000d46:	603e      	str	r6, [r7, #0]
  pBusSensorM1 = &VirtualBusVoltageSensorParamsM1;
 8000d48:	4e4b      	ldr	r6, [pc, #300]	; (8000e78 <MCboot+0x1ac>)
  pPIDId[M1] = &PIDIdHandle_M1;
 8000d4a:	9707      	str	r7, [sp, #28]
  pBusSensorM1 = &VirtualBusVoltageSensorParamsM1;
 8000d4c:	6030      	str	r0, [r6, #0]
  VVBS_Init(pBusSensorM1);
 8000d4e:	f004 ff69 	bl	8005c24 <VVBS_Init>
  pMPM[M1] = &PQD_MotorPowMeasM1;
 8000d52:	4b4a      	ldr	r3, [pc, #296]	; (8000e7c <MCboot+0x1b0>)
 8000d54:	4a4a      	ldr	r2, [pc, #296]	; (8000e80 <MCboot+0x1b4>)
  pMPM[M1]->pVBS = &(pBusSensorM1->_Super);
 8000d56:	6831      	ldr	r1, [r6, #0]
  pMPM[M1] = &PQD_MotorPowMeasM1;
 8000d58:	4691      	mov	r9, r2
 8000d5a:	6013      	str	r3, [r2, #0]
  pMPM[M1]->pVBS = &(pBusSensorM1->_Super);
 8000d5c:	2288      	movs	r2, #136	; 0x88
 8000d5e:	0052      	lsls	r2, r2, #1
 8000d60:	5099      	str	r1, [r3, r2]
  pMPM[M1]->pFOCVars = &FOCVars[M1];
 8000d62:	4a48      	ldr	r2, [pc, #288]	; (8000e84 <MCboot+0x1b8>)
  NTC_Init(&TempSensorParamsM1);
 8000d64:	4f48      	ldr	r7, [pc, #288]	; (8000e88 <MCboot+0x1bc>)
  pMPM[M1]->pFOCVars = &FOCVars[M1];
 8000d66:	4690      	mov	r8, r2
 8000d68:	2286      	movs	r2, #134	; 0x86
 8000d6a:	4640      	mov	r0, r8
 8000d6c:	0052      	lsls	r2, r2, #1
 8000d6e:	5098      	str	r0, [r3, r2]
  NTC_Init(&TempSensorParamsM1);
 8000d70:	0038      	movs	r0, r7
 8000d72:	f003 fe4b 	bl	8004a0c <NTC_Init>
  pTemperatureSensor[M1] = &TempSensorParamsM1;
 8000d76:	4a45      	ldr	r2, [pc, #276]	; (8000e8c <MCboot+0x1c0>)
  pREMNG[M1] = &RampExtMngrHFParamsM1;
 8000d78:	4b45      	ldr	r3, [pc, #276]	; (8000e90 <MCboot+0x1c4>)
 8000d7a:	4846      	ldr	r0, [pc, #280]	; (8000e94 <MCboot+0x1c8>)
  pTemperatureSensor[M1] = &TempSensorParamsM1;
 8000d7c:	6017      	str	r7, [r2, #0]
  pREMNG[M1] = &RampExtMngrHFParamsM1;
 8000d7e:	6018      	str	r0, [r3, #0]
  pTemperatureSensor[M1] = &TempSensorParamsM1;
 8000d80:	4693      	mov	fp, r2
  REMNG_Init(pREMNG[M1]);
 8000d82:	f004 fc31 	bl	80055e8 <REMNG_Init>
  FOC_Clear(M1);
 8000d86:	2000      	movs	r0, #0
 8000d88:	f7ff ff6e 	bl	8000c68 <FOC_Clear>
  FOCVars[M1].bDriveInput = EXTERNAL;
 8000d8c:	2201      	movs	r2, #1
 8000d8e:	2324      	movs	r3, #36	; 0x24
 8000d90:	4640      	mov	r0, r8
 8000d92:	54c2      	strb	r2, [r0, r3]
  FOCVars[M1].Iqdref = STC_GetDefaultIqdref(pSTC[M1]);
 8000d94:	6828      	ldr	r0, [r5, #0]
 8000d96:	f004 fd63 	bl	8005860 <STC_GetDefaultIqdref>
 8000d9a:	4643      	mov	r3, r8
 8000d9c:	6118      	str	r0, [r3, #16]
  FOCVars[M1].UserIdref = STC_GetDefaultIqdref(pSTC[M1]).d;
 8000d9e:	6828      	ldr	r0, [r5, #0]
 8000da0:	f004 fd5e 	bl	8005860 <STC_GetDefaultIqdref>
 8000da4:	4643      	mov	r3, r8
 8000da6:	0c00      	lsrs	r0, r0, #16
  oMCInterface[M1] = & Mci[M1];
 8000da8:	4f3b      	ldr	r7, [pc, #236]	; (8000e98 <MCboot+0x1cc>)
  FOCVars[M1].UserIdref = STC_GetDefaultIqdref(pSTC[M1]).d;
 8000daa:	8298      	strh	r0, [r3, #20]
  oMCInterface[M1] = & Mci[M1];
 8000dac:	483b      	ldr	r0, [pc, #236]	; (8000e9c <MCboot+0x1d0>)
  MCI_Init(oMCInterface[M1], &STM[M1], pSTC[M1], &FOCVars[M1] );
 8000dae:	682a      	ldr	r2, [r5, #0]
 8000db0:	9900      	ldr	r1, [sp, #0]
  oMCInterface[M1] = & Mci[M1];
 8000db2:	6038      	str	r0, [r7, #0]
  MCI_Init(oMCInterface[M1], &STM[M1], pSTC[M1], &FOCVars[M1] );
 8000db4:	f7ff fd60 	bl	8000878 <MCI_Init>
  MCI_ExecSpeedRamp(oMCInterface[M1],
 8000db8:	6838      	ldr	r0, [r7, #0]
 8000dba:	4680      	mov	r8, r0
 8000dbc:	6828      	ldr	r0, [r5, #0]
 8000dbe:	f004 fd45 	bl	800584c <STC_GetMecSpeedRefUnitDefault>
 8000dc2:	2200      	movs	r2, #0
 8000dc4:	0001      	movs	r1, r0
 8000dc6:	4640      	mov	r0, r8
 8000dc8:	f7ff fd60 	bl	800088c <MCI_ExecSpeedRamp>
  pMCIList[M1] = oMCInterface[M1];
 8000dcc:	683b      	ldr	r3, [r7, #0]
 8000dce:	9801      	ldr	r0, [sp, #4]
  MCT[M1].pPIDIq = pPIDIq[M1];
 8000dd0:	9f06      	ldr	r7, [sp, #24]
  pMCIList[M1] = oMCInterface[M1];
 8000dd2:	6003      	str	r3, [r0, #0]
  MCT[M1].pPIDSpeed = pPIDSpeed[M1];
 8000dd4:	4650      	mov	r0, sl
 8000dd6:	4b32      	ldr	r3, [pc, #200]	; (8000ea0 <MCboot+0x1d4>)
 8000dd8:	6802      	ldr	r2, [r0, #0]
  MCT[M1].pPWMnCurrFdbk = pwmcHandle[M1];
 8000dda:	9804      	ldr	r0, [sp, #16]
  MCT[M1].pPIDSpeed = pPIDSpeed[M1];
 8000ddc:	601a      	str	r2, [r3, #0]
  MCT[M1].pPIDIq = pPIDIq[M1];
 8000dde:	683a      	ldr	r2, [r7, #0]
  MCT[M1].pPIDId = pPIDId[M1];
 8000de0:	9f07      	ldr	r7, [sp, #28]
  MCT[M1].pPIDIq = pPIDIq[M1];
 8000de2:	605a      	str	r2, [r3, #4]
  MCT[M1].pPIDId = pPIDId[M1];
 8000de4:	683a      	ldr	r2, [r7, #0]
  MCT[M1].pPIDFluxWeakening = MC_NULL; /* if M1 doesn't has FW */
 8000de6:	60dc      	str	r4, [r3, #12]
  MCT[M1].pPIDId = pPIDId[M1];
 8000de8:	609a      	str	r2, [r3, #8]
  MCT[M1].pPWMnCurrFdbk = pwmcHandle[M1];
 8000dea:	6802      	ldr	r2, [r0, #0]
  MCT[M1].pSpeedSensorMain = (SpeednPosFdbk_Handle_t *) &HALL_M1;
 8000dec:	9805      	ldr	r0, [sp, #20]
  MCT[M1].pPWMnCurrFdbk = pwmcHandle[M1];
 8000dee:	611a      	str	r2, [r3, #16]
  MCT[M1].pSpeedSensorMain = (SpeednPosFdbk_Handle_t *) &HALL_M1;
 8000df0:	6198      	str	r0, [r3, #24]
  MCT[M1].pStateMachine = &STM[M1];
 8000df2:	9800      	ldr	r0, [sp, #0]
  MCT[M1].pSpeednTorqueCtrl = pSTC[M1];
 8000df4:	682a      	ldr	r2, [r5, #0]
  MCT[M1].pStateMachine = &STM[M1];
 8000df6:	6298      	str	r0, [r3, #40]	; 0x28
  MCT[M1].pTemperatureSensor = (NTC_Handle_t *) pTemperatureSensor[M1];
 8000df8:	4658      	mov	r0, fp
  MCT[M1].pSpeednTorqueCtrl = pSTC[M1];
 8000dfa:	625a      	str	r2, [r3, #36]	; 0x24
  MCT[M1].pTemperatureSensor = (NTC_Handle_t *) pTemperatureSensor[M1];
 8000dfc:	6802      	ldr	r2, [r0, #0]
  MCT[M1].pMPM =  (MotorPowMeas_Handle_t*)pMPM[M1];
 8000dfe:	4648      	mov	r0, r9
  MCT[M1].pTemperatureSensor = (NTC_Handle_t *) pTemperatureSensor[M1];
 8000e00:	62da      	str	r2, [r3, #44]	; 0x2c
  MCT[M1].pBusVoltageSensor = &(pBusSensorM1->_Super);
 8000e02:	6832      	ldr	r2, [r6, #0]
  MCT[M1].pRevupCtrl = MC_NULL;              /* only if M1 is not sensorless*/
 8000e04:	615c      	str	r4, [r3, #20]
  MCT[M1].pBusVoltageSensor = &(pBusSensorM1->_Super);
 8000e06:	631a      	str	r2, [r3, #48]	; 0x30
  MCT[M1].pMPM =  (MotorPowMeas_Handle_t*)pMPM[M1];
 8000e08:	6802      	ldr	r2, [r0, #0]
  MCT[M1].pSpeedSensorAux = MC_NULL;
 8000e0a:	61dc      	str	r4, [r3, #28]
  MCT[M1].pSpeedSensorVirtual = MC_NULL;
 8000e0c:	621c      	str	r4, [r3, #32]
  MCT[M1].pBrakeDigitalOutput = MC_NULL;   /* brake is defined, oBrakeM1*/
 8000e0e:	635c      	str	r4, [r3, #52]	; 0x34
  MCT[M1].pNTCRelay = MC_NULL;             /* relay is defined, oRelayM1*/
 8000e10:	639c      	str	r4, [r3, #56]	; 0x38
  MCT[M1].pMPM =  (MotorPowMeas_Handle_t*)pMPM[M1];
 8000e12:	63da      	str	r2, [r3, #60]	; 0x3c
  bMCBootCompleted = 1;
 8000e14:	2201      	movs	r2, #1
  pMCTList[M1] = &MCT[M1];
 8000e16:	9902      	ldr	r1, [sp, #8]
  MCT[M1].pFW = MC_NULL;
 8000e18:	641c      	str	r4, [r3, #64]	; 0x40
  MCT[M1].pFF = MC_NULL;
 8000e1a:	645c      	str	r4, [r3, #68]	; 0x44
  MCT[M1].pPosCtrl = MC_NULL;
 8000e1c:	649c      	str	r4, [r3, #72]	; 0x48
  MCT[M1].pSCC = MC_NULL;
 8000e1e:	64dc      	str	r4, [r3, #76]	; 0x4c
  MCT[M1].pOTT = MC_NULL;
 8000e20:	651c      	str	r4, [r3, #80]	; 0x50
  pMCTList[M1] = &MCT[M1];
 8000e22:	600b      	str	r3, [r1, #0]
  bMCBootCompleted = 1;
 8000e24:	9b03      	ldr	r3, [sp, #12]
 8000e26:	701a      	strb	r2, [r3, #0]
}
 8000e28:	b00b      	add	sp, #44	; 0x2c
 8000e2a:	bcf0      	pop	{r4, r5, r6, r7}
 8000e2c:	46bb      	mov	fp, r7
 8000e2e:	46b2      	mov	sl, r6
 8000e30:	46a9      	mov	r9, r5
 8000e32:	46a0      	mov	r8, r4
 8000e34:	bdf0      	pop	{r4, r5, r6, r7, pc}
 8000e36:	46c0      	nop			; (mov r8, r8)
 8000e38:	20000804 	.word	0x20000804
 8000e3c:	2000080a 	.word	0x2000080a
 8000e40:	20000000 	.word	0x20000000
 8000e44:	2000081c 	.word	0x2000081c
 8000e48:	20000314 	.word	0x20000314
 8000e4c:	2000083c 	.word	0x2000083c
 8000e50:	200001d4 	.word	0x200001d4
 8000e54:	2000082c 	.word	0x2000082c
 8000e58:	200003e8 	.word	0x200003e8
 8000e5c:	20000834 	.word	0x20000834
 8000e60:	200000b4 	.word	0x200000b4
 8000e64:	200001a8 	.word	0x200001a8
 8000e68:	2000017c 	.word	0x2000017c
 8000e6c:	20000828 	.word	0x20000828
 8000e70:	20000444 	.word	0x20000444
 8000e74:	20000824 	.word	0x20000824
 8000e78:	20000818 	.word	0x20000818
 8000e7c:	20000200 	.word	0x20000200
 8000e80:	20000820 	.word	0x20000820
 8000e84:	2000076c 	.word	0x2000076c
 8000e88:	2000041c 	.word	0x2000041c
 8000e8c:	20000838 	.word	0x20000838
 8000e90:	20000830 	.word	0x20000830
 8000e94:	20000390 	.word	0x20000390
 8000e98:	20000814 	.word	0x20000814
 8000e9c:	200007e8 	.word	0x200007e8
 8000ea0:	20000794 	.word	0x20000794

08000ea4 <FOC_InitAdditionalMethods>:
__weak void FOC_InitAdditionalMethods(uint8_t bMotor)
{
  /* USER CODE BEGIN FOC_InitAdditionalMethods 0 */

  /* USER CODE END FOC_InitAdditionalMethods 0 */
}
 8000ea4:	4770      	bx	lr
 8000ea6:	46c0      	nop			; (mov r8, r8)

08000ea8 <FOC_CalcCurrRef>:
{

  /* USER CODE BEGIN FOC_CalcCurrRef 0 */

  /* USER CODE END FOC_CalcCurrRef 0 */
  if(FOCVars[bMotor].bDriveInput == INTERNAL)
 8000ea8:	2326      	movs	r3, #38	; 0x26
 8000eaa:	4343      	muls	r3, r0
{
 8000eac:	b510      	push	{r4, lr}
  if(FOCVars[bMotor].bDriveInput == INTERNAL)
 8000eae:	4c08      	ldr	r4, [pc, #32]	; (8000ed0 <FOC_CalcCurrRef+0x28>)
 8000eb0:	18e4      	adds	r4, r4, r3
 8000eb2:	0023      	movs	r3, r4
 8000eb4:	3324      	adds	r3, #36	; 0x24
 8000eb6:	781b      	ldrb	r3, [r3, #0]
 8000eb8:	2b00      	cmp	r3, #0
 8000eba:	d000      	beq.n	8000ebe <FOC_CalcCurrRef+0x16>

  }
  /* USER CODE BEGIN FOC_CalcCurrRef 1 */

  /* USER CODE END FOC_CalcCurrRef 1 */
}
 8000ebc:	bd10      	pop	{r4, pc}
    FOCVars[bMotor].hTeref = STC_CalcTorqueReference(pSTC[bMotor]);
 8000ebe:	4b05      	ldr	r3, [pc, #20]	; (8000ed4 <FOC_CalcCurrRef+0x2c>)
 8000ec0:	0080      	lsls	r0, r0, #2
 8000ec2:	58c0      	ldr	r0, [r0, r3]
 8000ec4:	f004 fc8c 	bl	80057e0 <STC_CalcTorqueReference>
 8000ec8:	83e0      	strh	r0, [r4, #30]
    FOCVars[bMotor].Iqdref.q = FOCVars[bMotor].hTeref;
 8000eca:	8220      	strh	r0, [r4, #16]
}
 8000ecc:	e7f6      	b.n	8000ebc <FOC_CalcCurrRef+0x14>
 8000ece:	46c0      	nop			; (mov r8, r8)
 8000ed0:	2000076c 	.word	0x2000076c
 8000ed4:	20000834 	.word	0x20000834

08000ed8 <TSK_SetChargeBootCapDelayM1>:
  * @param  hTickCount number of ticks to be counted
  * @retval void
  */
__weak void TSK_SetChargeBootCapDelayM1(uint16_t hTickCount)
{
   hBootCapDelayCounterM1 = hTickCount;
 8000ed8:	4b01      	ldr	r3, [pc, #4]	; (8000ee0 <TSK_SetChargeBootCapDelayM1+0x8>)
 8000eda:	8018      	strh	r0, [r3, #0]
}
 8000edc:	4770      	bx	lr
 8000ede:	46c0      	nop			; (mov r8, r8)
 8000ee0:	2000080c 	.word	0x2000080c

08000ee4 <TSK_ChargeBootCapDelayHasElapsedM1>:
  * @retval bool true if time has elapsed, false otherwise
  */
__weak bool TSK_ChargeBootCapDelayHasElapsedM1(void)
{
  bool retVal = false;
  if (hBootCapDelayCounterM1 == 0)
 8000ee4:	4b02      	ldr	r3, [pc, #8]	; (8000ef0 <TSK_ChargeBootCapDelayHasElapsedM1+0xc>)
 8000ee6:	8818      	ldrh	r0, [r3, #0]
 8000ee8:	4243      	negs	r3, r0
 8000eea:	4158      	adcs	r0, r3
  {
    retVal = true;
  }
  return (retVal);
 8000eec:	b2c0      	uxtb	r0, r0
}
 8000eee:	4770      	bx	lr
 8000ef0:	2000080c 	.word	0x2000080c

08000ef4 <TSK_SetStopPermanencyTimeM1>:
  * @param  hTickCount number of ticks to be counted
  * @retval void
  */
__weak void TSK_SetStopPermanencyTimeM1(uint16_t hTickCount)
{
  hStopPermanencyCounterM1 = hTickCount;
 8000ef4:	4b01      	ldr	r3, [pc, #4]	; (8000efc <TSK_SetStopPermanencyTimeM1+0x8>)
 8000ef6:	8018      	strh	r0, [r3, #0]
}
 8000ef8:	4770      	bx	lr
 8000efa:	46c0      	nop			; (mov r8, r8)
 8000efc:	20000810 	.word	0x20000810

08000f00 <TSK_StopPermanencyTimeHasElapsedM1>:
  * @retval bool true if time is elapsed, false otherwise
  */
__weak bool TSK_StopPermanencyTimeHasElapsedM1(void)
{
  bool retVal = false;
  if (hStopPermanencyCounterM1 == 0)
 8000f00:	4b02      	ldr	r3, [pc, #8]	; (8000f0c <TSK_StopPermanencyTimeHasElapsedM1+0xc>)
 8000f02:	8818      	ldrh	r0, [r3, #0]
 8000f04:	4243      	negs	r3, r0
 8000f06:	4158      	adcs	r0, r3
  {
    retVal = true;
  }
  return (retVal);
 8000f08:	b2c0      	uxtb	r0, r0
}
 8000f0a:	4770      	bx	lr
 8000f0c:	20000810 	.word	0x20000810

08000f10 <TSK_MediumFrequencyTaskM1>:
{
 8000f10:	b5f0      	push	{r4, r5, r6, r7, lr}
 8000f12:	b083      	sub	sp, #12
  int16_t wAux = 0;
 8000f14:	466b      	mov	r3, sp
 8000f16:	1d99      	adds	r1, r3, #6
 8000f18:	2300      	movs	r3, #0
  bool IsSpeedReliable = HALL_CalcAvrgMecSpeedUnit( &HALL_M1, &wAux );
 8000f1a:	4e4b      	ldr	r6, [pc, #300]	; (8001048 <TSK_MediumFrequencyTaskM1+0x138>)
  int16_t wAux = 0;
 8000f1c:	800b      	strh	r3, [r1, #0]
  bool IsSpeedReliable = HALL_CalcAvrgMecSpeedUnit( &HALL_M1, &wAux );
 8000f1e:	0030      	movs	r0, r6
 8000f20:	f003 fa7c 	bl	800441c <HALL_CalcAvrgMecSpeedUnit>
  PQD_CalcElMotorPower( pMPM[M1] );
 8000f24:	4f49      	ldr	r7, [pc, #292]	; (800104c <TSK_MediumFrequencyTaskM1+0x13c>)
  bool IsSpeedReliable = HALL_CalcAvrgMecSpeedUnit( &HALL_M1, &wAux );
 8000f26:	0004      	movs	r4, r0
  PQD_CalcElMotorPower( pMPM[M1] );
 8000f28:	6838      	ldr	r0, [r7, #0]
 8000f2a:	f003 fe15 	bl	8004b58 <PQD_CalcElMotorPower>
  StateM1 = STM_GetState( &STM[M1] );
 8000f2e:	4d48      	ldr	r5, [pc, #288]	; (8001050 <TSK_MediumFrequencyTaskM1+0x140>)
 8000f30:	0028      	movs	r0, r5
 8000f32:	f004 fd39 	bl	80059a8 <STM_GetState>
  switch ( StateM1 )
 8000f36:	3803      	subs	r0, #3
 8000f38:	b2c0      	uxtb	r0, r0
 8000f3a:	280f      	cmp	r0, #15
 8000f3c:	d807      	bhi.n	8000f4e <TSK_MediumFrequencyTaskM1+0x3e>
 8000f3e:	4a45      	ldr	r2, [pc, #276]	; (8001054 <TSK_MediumFrequencyTaskM1+0x144>)
 8000f40:	0083      	lsls	r3, r0, #2
 8000f42:	58d3      	ldr	r3, [r2, r3]
 8000f44:	469f      	mov	pc, r3
    STM_NextState( &STM[M1], IDLE );
 8000f46:	2100      	movs	r1, #0
 8000f48:	0028      	movs	r0, r5
 8000f4a:	f004 fcb9 	bl	80058c0 <STM_NextState>
}
 8000f4e:	b003      	add	sp, #12
 8000f50:	bdf0      	pop	{r4, r5, r6, r7, pc}
    HALL_Clear( &HALL_M1 );
 8000f52:	0030      	movs	r0, r6
 8000f54:	f003 f99a 	bl	800428c <HALL_Clear>
    if ( STM_NextState( &STM[M1], START ) == true )
 8000f58:	2104      	movs	r1, #4
 8000f5a:	0028      	movs	r0, r5
 8000f5c:	f004 fcb0 	bl	80058c0 <STM_NextState>
 8000f60:	2800      	cmp	r0, #0
 8000f62:	d0f4      	beq.n	8000f4e <TSK_MediumFrequencyTaskM1+0x3e>
      FOC_Clear( M1 );
 8000f64:	2000      	movs	r0, #0
 8000f66:	f7ff fe7f 	bl	8000c68 <FOC_Clear>
      R3_1_SwitchOnPWM( pwmcHandle[M1] );
 8000f6a:	4b3b      	ldr	r3, [pc, #236]	; (8001058 <TSK_MediumFrequencyTaskM1+0x148>)
 8000f6c:	6818      	ldr	r0, [r3, #0]
 8000f6e:	f004 f973 	bl	8005258 <R3_1_SwitchOnPWM>
 8000f72:	e7ec      	b.n	8000f4e <TSK_MediumFrequencyTaskM1+0x3e>
    R3_1_TurnOnLowSides( pwmcHandle[M1] );
 8000f74:	4b38      	ldr	r3, [pc, #224]	; (8001058 <TSK_MediumFrequencyTaskM1+0x148>)
 8000f76:	6818      	ldr	r0, [r3, #0]
 8000f78:	f004 f94a 	bl	8005210 <R3_1_TurnOnLowSides>
    TSK_SetChargeBootCapDelayM1( CHARGE_BOOT_CAP_TICKS );
 8000f7c:	2014      	movs	r0, #20
 8000f7e:	f7ff ffab 	bl	8000ed8 <TSK_SetChargeBootCapDelayM1>
    STM_NextState( &STM[M1], CHARGE_BOOT_CAP );
 8000f82:	2110      	movs	r1, #16
 8000f84:	0028      	movs	r0, r5
 8000f86:	f004 fc9b 	bl	80058c0 <STM_NextState>
    break;
 8000f8a:	e7e0      	b.n	8000f4e <TSK_MediumFrequencyTaskM1+0x3e>
        STM_NextState( &STM[M1], START_RUN ); /* only for sensored*/
 8000f8c:	2105      	movs	r1, #5
 8000f8e:	0028      	movs	r0, r5
 8000f90:	f004 fc96 	bl	80058c0 <STM_NextState>
    break;
 8000f94:	e7db      	b.n	8000f4e <TSK_MediumFrequencyTaskM1+0x3e>
	  FOC_InitAdditionalMethods(M1);
 8000f96:	2000      	movs	r0, #0
 8000f98:	f7ff ff84 	bl	8000ea4 <FOC_InitAdditionalMethods>
      FOC_CalcCurrRef( M1 );
 8000f9c:	2000      	movs	r0, #0
 8000f9e:	f7ff ff83 	bl	8000ea8 <FOC_CalcCurrRef>
      STM_NextState( &STM[M1], RUN );
 8000fa2:	2106      	movs	r1, #6
 8000fa4:	0028      	movs	r0, r5
 8000fa6:	f004 fc8b 	bl	80058c0 <STM_NextState>
    STC_ForceSpeedReferenceToCurrentSpeed( pSTC[M1] ); /* Init the reference speed to current speed */
 8000faa:	4b2c      	ldr	r3, [pc, #176]	; (800105c <TSK_MediumFrequencyTaskM1+0x14c>)
 8000fac:	6818      	ldr	r0, [r3, #0]
 8000fae:	f004 fc5f 	bl	8005870 <STC_ForceSpeedReferenceToCurrentSpeed>
    MCI_ExecBufferedCommands( oMCInterface[M1] ); /* Exec the speed ramp after changing of the speed sensor */
 8000fb2:	4b2b      	ldr	r3, [pc, #172]	; (8001060 <TSK_MediumFrequencyTaskM1+0x150>)
 8000fb4:	6818      	ldr	r0, [r3, #0]
 8000fb6:	f7ff fca1 	bl	80008fc <MCI_ExecBufferedCommands>
    break;
 8000fba:	e7c8      	b.n	8000f4e <TSK_MediumFrequencyTaskM1+0x3e>
    MCI_ExecBufferedCommands( oMCInterface[M1] );
 8000fbc:	4b28      	ldr	r3, [pc, #160]	; (8001060 <TSK_MediumFrequencyTaskM1+0x150>)
 8000fbe:	6818      	ldr	r0, [r3, #0]
 8000fc0:	f7ff fc9c 	bl	80008fc <MCI_ExecBufferedCommands>
    FOC_CalcCurrRef( M1 );
 8000fc4:	2000      	movs	r0, #0
 8000fc6:	f7ff ff6f 	bl	8000ea8 <FOC_CalcCurrRef>
    if( !IsSpeedReliable )
 8000fca:	2c00      	cmp	r4, #0
 8000fcc:	d1bf      	bne.n	8000f4e <TSK_MediumFrequencyTaskM1+0x3e>
      STM_FaultProcessing( &STM[M1], MC_SPEED_FDBK, 0 );
 8000fce:	2200      	movs	r2, #0
 8000fd0:	2120      	movs	r1, #32
 8000fd2:	0028      	movs	r0, r5
 8000fd4:	f004 fc5a 	bl	800588c <STM_FaultProcessing>
 8000fd8:	e7b9      	b.n	8000f4e <TSK_MediumFrequencyTaskM1+0x3e>
    R3_1_SwitchOffPWM( pwmcHandle[M1] );
 8000fda:	4b1f      	ldr	r3, [pc, #124]	; (8001058 <TSK_MediumFrequencyTaskM1+0x148>)
 8000fdc:	6818      	ldr	r0, [r3, #0]
 8000fde:	f004 f9b1 	bl	8005344 <R3_1_SwitchOffPWM>
    FOC_Clear( M1 );
 8000fe2:	2000      	movs	r0, #0
 8000fe4:	f7ff fe40 	bl	8000c68 <FOC_Clear>
    MPM_Clear( (MotorPowMeas_Handle_t*) pMPM[M1] );
 8000fe8:	6838      	ldr	r0, [r7, #0]
 8000fea:	f003 fcc5 	bl	8004978 <MPM_Clear>
    TSK_SetStopPermanencyTimeM1( STOPPERMANENCY_TICKS );
 8000fee:	20c8      	movs	r0, #200	; 0xc8
 8000ff0:	0080      	lsls	r0, r0, #2
 8000ff2:	f7ff ff7f 	bl	8000ef4 <TSK_SetStopPermanencyTimeM1>
    STM_NextState( &STM[M1], STOP );
 8000ff6:	2108      	movs	r1, #8
 8000ff8:	0028      	movs	r0, r5
 8000ffa:	f004 fc61 	bl	80058c0 <STM_NextState>
    break;
 8000ffe:	e7a6      	b.n	8000f4e <TSK_MediumFrequencyTaskM1+0x3e>
    if ( TSK_StopPermanencyTimeHasElapsedM1() )
 8001000:	f7ff ff7e 	bl	8000f00 <TSK_StopPermanencyTimeHasElapsedM1>
 8001004:	2800      	cmp	r0, #0
 8001006:	d0a2      	beq.n	8000f4e <TSK_MediumFrequencyTaskM1+0x3e>
      STM_NextState( &STM[M1], STOP_IDLE );
 8001008:	2109      	movs	r1, #9
 800100a:	0028      	movs	r0, r5
 800100c:	f004 fc58 	bl	80058c0 <STM_NextState>
 8001010:	e79d      	b.n	8000f4e <TSK_MediumFrequencyTaskM1+0x3e>
    if ( TSK_ChargeBootCapDelayHasElapsedM1() )
 8001012:	f7ff ff67 	bl	8000ee4 <TSK_ChargeBootCapDelayHasElapsedM1>
 8001016:	2800      	cmp	r0, #0
 8001018:	d099      	beq.n	8000f4e <TSK_MediumFrequencyTaskM1+0x3e>
      PWMC_CurrentReadingCalibr( pwmcHandle[M1], CRC_START );
 800101a:	4b0f      	ldr	r3, [pc, #60]	; (8001058 <TSK_MediumFrequencyTaskM1+0x148>)
 800101c:	2100      	movs	r1, #0
 800101e:	6818      	ldr	r0, [r3, #0]
 8001020:	f003 fef8 	bl	8004e14 <PWMC_CurrentReadingCalibr>
      STM_NextState(&STM[M1],OFFSET_CALIB);
 8001024:	2111      	movs	r1, #17
 8001026:	0028      	movs	r0, r5
 8001028:	f004 fc4a 	bl	80058c0 <STM_NextState>
 800102c:	e78f      	b.n	8000f4e <TSK_MediumFrequencyTaskM1+0x3e>
    if ( PWMC_CurrentReadingCalibr( pwmcHandle[M1], CRC_EXEC ) )
 800102e:	4b0a      	ldr	r3, [pc, #40]	; (8001058 <TSK_MediumFrequencyTaskM1+0x148>)
 8001030:	2101      	movs	r1, #1
 8001032:	6818      	ldr	r0, [r3, #0]
 8001034:	f003 feee 	bl	8004e14 <PWMC_CurrentReadingCalibr>
 8001038:	2800      	cmp	r0, #0
 800103a:	d100      	bne.n	800103e <TSK_MediumFrequencyTaskM1+0x12e>
 800103c:	e787      	b.n	8000f4e <TSK_MediumFrequencyTaskM1+0x3e>
      STM_NextState( &STM[M1], CLEAR );
 800103e:	2112      	movs	r1, #18
 8001040:	0028      	movs	r0, r5
 8001042:	f004 fc3d 	bl	80058c0 <STM_NextState>
 8001046:	e782      	b.n	8000f4e <TSK_MediumFrequencyTaskM1+0x3e>
 8001048:	200000b4 	.word	0x200000b4
 800104c:	20000820 	.word	0x20000820
 8001050:	20000804 	.word	0x20000804
 8001054:	08005f28 	.word	0x08005f28
 8001058:	2000083c 	.word	0x2000083c
 800105c:	20000834 	.word	0x20000834
 8001060:	20000814 	.word	0x20000814

08001064 <MC_Scheduler>:
{
 8001064:	b570      	push	{r4, r5, r6, lr}
  if (bMCBootCompleted == 1)
 8001066:	4b11      	ldr	r3, [pc, #68]	; (80010ac <MC_Scheduler+0x48>)
 8001068:	781c      	ldrb	r4, [r3, #0]
 800106a:	2c01      	cmp	r4, #1
 800106c:	d000      	beq.n	8001070 <MC_Scheduler+0xc>
}
 800106e:	bd70      	pop	{r4, r5, r6, pc}
    if(hMFTaskCounterM1 > 0u)
 8001070:	4d0f      	ldr	r5, [pc, #60]	; (80010b0 <MC_Scheduler+0x4c>)
 8001072:	882b      	ldrh	r3, [r5, #0]
 8001074:	2b00      	cmp	r3, #0
 8001076:	d014      	beq.n	80010a2 <MC_Scheduler+0x3e>
      hMFTaskCounterM1--;
 8001078:	882b      	ldrh	r3, [r5, #0]
 800107a:	3b01      	subs	r3, #1
 800107c:	b29b      	uxth	r3, r3
 800107e:	802b      	strh	r3, [r5, #0]
    if(hBootCapDelayCounterM1 > 0u)
 8001080:	4b0c      	ldr	r3, [pc, #48]	; (80010b4 <MC_Scheduler+0x50>)
 8001082:	881a      	ldrh	r2, [r3, #0]
 8001084:	2a00      	cmp	r2, #0
 8001086:	d003      	beq.n	8001090 <MC_Scheduler+0x2c>
      hBootCapDelayCounterM1--;
 8001088:	881a      	ldrh	r2, [r3, #0]
 800108a:	3a01      	subs	r2, #1
 800108c:	b292      	uxth	r2, r2
 800108e:	801a      	strh	r2, [r3, #0]
    if(hStopPermanencyCounterM1 > 0u)
 8001090:	4b09      	ldr	r3, [pc, #36]	; (80010b8 <MC_Scheduler+0x54>)
 8001092:	881a      	ldrh	r2, [r3, #0]
 8001094:	2a00      	cmp	r2, #0
 8001096:	d0ea      	beq.n	800106e <MC_Scheduler+0xa>
      hStopPermanencyCounterM1--;
 8001098:	881a      	ldrh	r2, [r3, #0]
 800109a:	3a01      	subs	r2, #1
 800109c:	b292      	uxth	r2, r2
 800109e:	801a      	strh	r2, [r3, #0]
}
 80010a0:	e7e5      	b.n	800106e <MC_Scheduler+0xa>
      TSK_MediumFrequencyTaskM1();
 80010a2:	f7ff ff35 	bl	8000f10 <TSK_MediumFrequencyTaskM1>
      hMFTaskCounterM1 = MF_TASK_OCCURENCE_TICKS;
 80010a6:	802c      	strh	r4, [r5, #0]
 80010a8:	e7ea      	b.n	8001080 <MC_Scheduler+0x1c>
 80010aa:	46c0      	nop			; (mov r8, r8)
 80010ac:	2000080a 	.word	0x2000080a
 80010b0:	2000080e 	.word	0x2000080e
 80010b4:	2000080c 	.word	0x2000080c
 80010b8:	20000810 	.word	0x20000810

080010bc <TSK_HighFrequencyTask>:
  * subsystem (see the state machine(s)).
  *
  * @retval Number of the  motor instance which FOC loop was executed.
  */
__weak uint8_t TSK_HighFrequencyTask(void)
{
 80010bc:	b5f0      	push	{r4, r5, r6, r7, lr}
 80010be:	46ce      	mov	lr, r9
 80010c0:	4647      	mov	r7, r8
 80010c2:	b580      	push	{r7, lr}
  /* USER CODE END HighFrequencyTask 0 */

  uint8_t bMotorNbr = 0;
  uint16_t hFOCreturn;

  HALL_CalcElAngle (&HALL_M1);
 80010c4:	4835      	ldr	r0, [pc, #212]	; (800119c <TSK_HighFrequencyTask+0xe0>)
{
 80010c6:	b087      	sub	sp, #28
  HALL_CalcElAngle (&HALL_M1);
 80010c8:	f003 f98a 	bl	80043e0 <HALL_CalcElAngle>

  int16_t hElAngle;
  uint16_t hCodeError;
  SpeednPosFdbk_Handle_t *speedHandle;

  speedHandle = STC_GetSpeedSensor(pSTC[M1]);
 80010cc:	4b34      	ldr	r3, [pc, #208]	; (80011a0 <TSK_HighFrequencyTask+0xe4>)
 80010ce:	6818      	ldr	r0, [r3, #0]
 80010d0:	f004 fb1c 	bl	800570c <STC_GetSpeedSensor>
 80010d4:	0006      	movs	r6, r0
  hElAngle = SPD_GetElAngle(speedHandle);
 80010d6:	f004 fabf 	bl	8005658 <SPD_GetElAngle>
  PWMC_GetPhaseCurrents(pwmcHandle[M1], &Iab);
 80010da:	4f32      	ldr	r7, [pc, #200]	; (80011a4 <TSK_HighFrequencyTask+0xe8>)
  hElAngle = SPD_GetElAngle(speedHandle);
 80010dc:	0005      	movs	r5, r0
  PWMC_GetPhaseCurrents(pwmcHandle[M1], &Iab);
 80010de:	a903      	add	r1, sp, #12
 80010e0:	6838      	ldr	r0, [r7, #0]
 80010e2:	f003 fd8d 	bl	8004c00 <PWMC_GetPhaseCurrents>
  RCM_ExecNextConv();
 80010e6:	f000 fd69 	bl	8001bbc <RCM_ExecNextConv>
  Ialphabeta = MCM_Clarke(Iab);
 80010ea:	9803      	ldr	r0, [sp, #12]
 80010ec:	f7ff fcd8 	bl	8000aa0 <MCM_Clarke>
  Iqd = MCM_Park(Ialphabeta, hElAngle);
 80010f0:	0029      	movs	r1, r5
  Ialphabeta = MCM_Clarke(Iab);
 80010f2:	9004      	str	r0, [sp, #16]
  Iqd = MCM_Park(Ialphabeta, hElAngle);
 80010f4:	f7ff fd4e 	bl	8000b94 <MCM_Park>
  Vqd.q = PI_Controller(pPIDIq[M1],
            (int32_t)(FOCVars[M1].Iqdref.q) - Iqd.q);
 80010f8:	4c2b      	ldr	r4, [pc, #172]	; (80011a8 <TSK_HighFrequencyTask+0xec>)
  Iqd = MCM_Park(Ialphabeta, hElAngle);
 80010fa:	9001      	str	r0, [sp, #4]
            (int32_t)(FOCVars[M1].Iqdref.q) - Iqd.q);
 80010fc:	2310      	movs	r3, #16
 80010fe:	5ee1      	ldrsh	r1, [r4, r3]
 8001100:	b203      	sxth	r3, r0
  Vqd.q = PI_Controller(pPIDIq[M1],
 8001102:	1ac9      	subs	r1, r1, r3
 8001104:	4b29      	ldr	r3, [pc, #164]	; (80011ac <TSK_HighFrequencyTask+0xf0>)
 8001106:	6818      	ldr	r0, [r3, #0]
 8001108:	f003 fce6 	bl	8004ad8 <PI_Controller>
 800110c:	4680      	mov	r8, r0

  Vqd.d = PI_Controller(pPIDId[M1],
            (int32_t)(FOCVars[M1].Iqdref.d) - Iqd.d);
 800110e:	2312      	movs	r3, #18
 8001110:	5ee1      	ldrsh	r1, [r4, r3]
 8001112:	ab01      	add	r3, sp, #4
 8001114:	2202      	movs	r2, #2
 8001116:	5e9b      	ldrsh	r3, [r3, r2]
  Vqd.d = PI_Controller(pPIDId[M1],
 8001118:	1ac9      	subs	r1, r1, r3
 800111a:	4b25      	ldr	r3, [pc, #148]	; (80011b0 <TSK_HighFrequencyTask+0xf4>)
 800111c:	6818      	ldr	r0, [r3, #0]
 800111e:	f003 fcdb 	bl	8004ad8 <PI_Controller>

  Vqd = Circle_Limitation(pCLM[M1], Vqd);
 8001122:	4641      	mov	r1, r8
 8001124:	4b23      	ldr	r3, [pc, #140]	; (80011b4 <TSK_HighFrequencyTask+0xf8>)
 8001126:	681a      	ldr	r2, [r3, #0]
 8001128:	ab02      	add	r3, sp, #8
 800112a:	8058      	strh	r0, [r3, #2]
 800112c:	8019      	strh	r1, [r3, #0]
 800112e:	0010      	movs	r0, r2
 8001130:	9902      	ldr	r1, [sp, #8]
 8001132:	f002 ffaf 	bl	8004094 <Circle_Limitation>
 8001136:	b203      	sxth	r3, r0
 8001138:	4699      	mov	r9, r3
 800113a:	9002      	str	r0, [sp, #8]
 800113c:	1403      	asrs	r3, r0, #16
  hElAngle += SPD_GetInstElSpeedDpp(speedHandle)*REV_PARK_ANGLE_COMPENSATION_FACTOR;
 800113e:	0030      	movs	r0, r6
  Vqd = Circle_Limitation(pCLM[M1], Vqd);
 8001140:	4698      	mov	r8, r3
  hElAngle += SPD_GetInstElSpeedDpp(speedHandle)*REV_PARK_ANGLE_COMPENSATION_FACTOR;
 8001142:	f004 fa91 	bl	8005668 <SPD_GetInstElSpeedDpp>
  Valphabeta = MCM_Rev_Park(Vqd, hElAngle);
 8001146:	0029      	movs	r1, r5
 8001148:	9802      	ldr	r0, [sp, #8]
 800114a:	f7ff fd73 	bl	8000c34 <MCM_Rev_Park>
 800114e:	0001      	movs	r1, r0
 8001150:	9005      	str	r0, [sp, #20]
  hCodeError = PWMC_SetPhaseVoltage(pwmcHandle[M1], Valphabeta);
 8001152:	6838      	ldr	r0, [r7, #0]
 8001154:	f003 fd58 	bl	8004c08 <PWMC_SetPhaseVoltage>
 8001158:	0006      	movs	r6, r0
  RCM_ReadOngoingConv();
 800115a:	f000 fd6d 	bl	8001c38 <RCM_ReadOngoingConv>
  FOCVars[M1].Vqd = Vqd;
 800115e:	464b      	mov	r3, r9
 8001160:	82e3      	strh	r3, [r4, #22]
 8001162:	4643      	mov	r3, r8
  FOCVars[M1].Iab = Iab;
  FOCVars[M1].Ialphabeta = Ialphabeta;
  FOCVars[M1].Iqd = Iqd;
  FOCVars[M1].Valphabeta = Valphabeta;
 8001164:	0020      	movs	r0, r4
  FOCVars[M1].Vqd = Vqd;
 8001166:	8323      	strh	r3, [r4, #24]
  FOCVars[M1].Iab = Iab;
 8001168:	9b03      	ldr	r3, [sp, #12]
  FOCVars[M1].Valphabeta = Valphabeta;
 800116a:	2204      	movs	r2, #4
  FOCVars[M1].Iab = Iab;
 800116c:	6023      	str	r3, [r4, #0]
  FOCVars[M1].Ialphabeta = Ialphabeta;
 800116e:	9b04      	ldr	r3, [sp, #16]
  FOCVars[M1].Valphabeta = Valphabeta;
 8001170:	301a      	adds	r0, #26
  FOCVars[M1].Ialphabeta = Ialphabeta;
 8001172:	6063      	str	r3, [r4, #4]
  FOCVars[M1].Iqd = Iqd;
 8001174:	9b01      	ldr	r3, [sp, #4]
  FOCVars[M1].Valphabeta = Valphabeta;
 8001176:	a905      	add	r1, sp, #20
  FOCVars[M1].Iqd = Iqd;
 8001178:	60e3      	str	r3, [r4, #12]
  FOCVars[M1].Valphabeta = Valphabeta;
 800117a:	f004 fd85 	bl	8005c88 <memcpy>
  FOCVars[M1].hElAngle = hElAngle;
 800117e:	8425      	strh	r5, [r4, #32]
  if(hFOCreturn == MC_FOC_DURATION)
 8001180:	2e01      	cmp	r6, #1
 8001182:	d005      	beq.n	8001190 <TSK_HighFrequencyTask+0xd4>
}
 8001184:	2000      	movs	r0, #0
 8001186:	b007      	add	sp, #28
 8001188:	bcc0      	pop	{r6, r7}
 800118a:	46b9      	mov	r9, r7
 800118c:	46b0      	mov	r8, r6
 800118e:	bdf0      	pop	{r4, r5, r6, r7, pc}
    STM_FaultProcessing(&STM[M1], MC_FOC_DURATION, 0);
 8001190:	2200      	movs	r2, #0
 8001192:	2101      	movs	r1, #1
 8001194:	4808      	ldr	r0, [pc, #32]	; (80011b8 <TSK_HighFrequencyTask+0xfc>)
 8001196:	f004 fb79 	bl	800588c <STM_FaultProcessing>
 800119a:	e7f3      	b.n	8001184 <TSK_HighFrequencyTask+0xc8>
 800119c:	200000b4 	.word	0x200000b4
 80011a0:	20000834 	.word	0x20000834
 80011a4:	2000083c 	.word	0x2000083c
 80011a8:	2000076c 	.word	0x2000076c
 80011ac:	20000828 	.word	0x20000828
 80011b0:	20000824 	.word	0x20000824
 80011b4:	2000081c 	.word	0x2000081c
 80011b8:	20000804 	.word	0x20000804

080011bc <TSK_SafetyTask_PWMOFF>:
  * @param  bMotor Motor reference number defined
  *         \link Motors_reference_number here \endlink
  * @retval None
  */
__weak void TSK_SafetyTask_PWMOFF(uint8_t bMotor)
{
 80011bc:	b5f8      	push	{r3, r4, r5, r6, r7, lr}
  /* USER CODE END TSK_SafetyTask_PWMOFF 0 */

  uint16_t CodeReturn = MC_NO_ERROR;
  uint16_t errMask[NBR_OF_MOTORS] = {VBUS_TEMP_ERR_MASK};

  CodeReturn |= errMask[bMotor] & NTC_CalcAvTemp(pTemperatureSensor[bMotor]); /* check for fault if FW protection is activated. It returns MC_OVER_TEMP or MC_NO_ERROR */
 80011be:	4b17      	ldr	r3, [pc, #92]	; (800121c <TSK_SafetyTask_PWMOFF+0x60>)
 80011c0:	0086      	lsls	r6, r0, #2
{
 80011c2:	0005      	movs	r5, r0
  CodeReturn |= errMask[bMotor] & NTC_CalcAvTemp(pTemperatureSensor[bMotor]); /* check for fault if FW protection is activated. It returns MC_OVER_TEMP or MC_NO_ERROR */
 80011c4:	58f0      	ldr	r0, [r6, r3]
 80011c6:	f003 fc35 	bl	8004a34 <NTC_CalcAvTemp>
  CodeReturn |= PWMC_CheckOverCurrent(pwmcHandle[bMotor]);                    /* check for fault. It return MC_BREAK_IN or MC_NO_FAULTS
 80011ca:	4f15      	ldr	r7, [pc, #84]	; (8001220 <TSK_SafetyTask_PWMOFF+0x64>)
  CodeReturn |= errMask[bMotor] & NTC_CalcAvTemp(pTemperatureSensor[bMotor]); /* check for fault if FW protection is activated. It returns MC_OVER_TEMP or MC_NO_ERROR */
 80011cc:	0004      	movs	r4, r0
  CodeReturn |= PWMC_CheckOverCurrent(pwmcHandle[bMotor]);                    /* check for fault. It return MC_BREAK_IN or MC_NO_FAULTS
 80011ce:	59f0      	ldr	r0, [r6, r7]
 80011d0:	f003 fe44 	bl	8004e5c <PWMC_CheckOverCurrent>
  CodeReturn |= errMask[bMotor] & NTC_CalcAvTemp(pTemperatureSensor[bMotor]); /* check for fault if FW protection is activated. It returns MC_OVER_TEMP or MC_NO_ERROR */
 80011d4:	230e      	movs	r3, #14
 80011d6:	439c      	bics	r4, r3
  CodeReturn |= PWMC_CheckOverCurrent(pwmcHandle[bMotor]);                    /* check for fault. It return MC_BREAK_IN or MC_NO_FAULTS
 80011d8:	4320      	orrs	r0, r4
 80011da:	b281      	uxth	r1, r0
                                                                                 (for STM32F30x can return MC_OVER_VOLT in case of HW Overvoltage) */

  STM_FaultProcessing(&STM[bMotor], CodeReturn, ~CodeReturn); /* Update the STM according error code */
 80011dc:	43ca      	mvns	r2, r1
 80011de:	006b      	lsls	r3, r5, #1
 80011e0:	4c10      	ldr	r4, [pc, #64]	; (8001224 <TSK_SafetyTask_PWMOFF+0x68>)
 80011e2:	195b      	adds	r3, r3, r5
 80011e4:	005b      	lsls	r3, r3, #1
 80011e6:	18e4      	adds	r4, r4, r3
 80011e8:	0020      	movs	r0, r4
 80011ea:	b292      	uxth	r2, r2
 80011ec:	f004 fb4e 	bl	800588c <STM_FaultProcessing>
  switch (STM_GetState(&STM[bMotor])) /* Acts on PWM outputs in case of faults */
 80011f0:	0020      	movs	r0, r4
 80011f2:	f004 fbd9 	bl	80059a8 <STM_GetState>
 80011f6:	280a      	cmp	r0, #10
 80011f8:	d005      	beq.n	8001206 <TSK_SafetyTask_PWMOFF+0x4a>
 80011fa:	280b      	cmp	r0, #11
 80011fc:	d102      	bne.n	8001204 <TSK_SafetyTask_PWMOFF+0x48>
    /* USER CODE BEGIN TSK_SafetyTask_PWMOFF 1 */

    /* USER CODE END TSK_SafetyTask_PWMOFF 1 */
    break;
  case FAULT_OVER:
    PWMC_SwitchOffPWM(pwmcHandle[bMotor]);
 80011fe:	59f0      	ldr	r0, [r6, r7]
 8001200:	f003 fe04 	bl	8004e0c <PWMC_SwitchOffPWM>
    break;
  }
  /* USER CODE BEGIN TSK_SafetyTask_PWMOFF 3 */

  /* USER CODE END TSK_SafetyTask_PWMOFF 3 */
}
 8001204:	bdf8      	pop	{r3, r4, r5, r6, r7, pc}
    PWMC_SwitchOffPWM(pwmcHandle[bMotor]);
 8001206:	59f0      	ldr	r0, [r6, r7]
 8001208:	f003 fe00 	bl	8004e0c <PWMC_SwitchOffPWM>
    FOC_Clear(bMotor);
 800120c:	0028      	movs	r0, r5
 800120e:	f7ff fd2b 	bl	8000c68 <FOC_Clear>
    MPM_Clear((MotorPowMeas_Handle_t*)pMPM[bMotor]);
 8001212:	4b05      	ldr	r3, [pc, #20]	; (8001228 <TSK_SafetyTask_PWMOFF+0x6c>)
 8001214:	58f0      	ldr	r0, [r6, r3]
 8001216:	f003 fbaf 	bl	8004978 <MPM_Clear>
    break;
 800121a:	e7f3      	b.n	8001204 <TSK_SafetyTask_PWMOFF+0x48>
 800121c:	20000838 	.word	0x20000838
 8001220:	2000083c 	.word	0x2000083c
 8001224:	20000804 	.word	0x20000804
 8001228:	20000820 	.word	0x20000820

0800122c <TSK_SafetyTask>:
{
 800122c:	b510      	push	{r4, lr}
  if (bMCBootCompleted == 1)
 800122e:	4b05      	ldr	r3, [pc, #20]	; (8001244 <TSK_SafetyTask+0x18>)
 8001230:	781b      	ldrb	r3, [r3, #0]
 8001232:	2b01      	cmp	r3, #1
 8001234:	d000      	beq.n	8001238 <TSK_SafetyTask+0xc>
}
 8001236:	bd10      	pop	{r4, pc}
    TSK_SafetyTask_PWMOFF(M1);
 8001238:	2000      	movs	r0, #0
 800123a:	f7ff ffbf 	bl	80011bc <TSK_SafetyTask_PWMOFF>
    RCM_ExecUserConv ();
 800123e:	f000 fc8f 	bl	8001b60 <RCM_ExecUserConv>
}
 8001242:	e7f8      	b.n	8001236 <TSK_SafetyTask+0xa>
 8001244:	2000080a 	.word	0x2000080a

08001248 <MC_RunMotorControlTasks>:
{
 8001248:	b510      	push	{r4, lr}
  if ( bMCBootCompleted ) {
 800124a:	4b06      	ldr	r3, [pc, #24]	; (8001264 <MC_RunMotorControlTasks+0x1c>)
 800124c:	781b      	ldrb	r3, [r3, #0]
 800124e:	2b00      	cmp	r3, #0
 8001250:	d100      	bne.n	8001254 <MC_RunMotorControlTasks+0xc>
}
 8001252:	bd10      	pop	{r4, pc}
    MC_Scheduler();
 8001254:	f7ff ff06 	bl	8001064 <MC_Scheduler>
    TSK_SafetyTask();
 8001258:	f7ff ffe8 	bl	800122c <TSK_SafetyTask>
    UI_Scheduler();
 800125c:	f000 ff58 	bl	8002110 <UI_Scheduler>
}
 8001260:	e7f7      	b.n	8001252 <MC_RunMotorControlTasks+0xa>
 8001262:	46c0      	nop			; (mov r8, r8)
 8001264:	2000080a 	.word	0x2000080a

08001268 <TSK_HardwareFaultTask>:
  *
  *  This function is to be executed when a general hardware failure has been detected
  * by the microcontroller and is used to put the system in safety condition.
  */
__weak void TSK_HardwareFaultTask(void)
{
 8001268:	b510      	push	{r4, lr}
  /* USER CODE BEGIN TSK_HardwareFaultTask 0 */

  /* USER CODE END TSK_HardwareFaultTask 0 */

  R3_1_SwitchOffPWM(pwmcHandle[M1]);
 800126a:	4b05      	ldr	r3, [pc, #20]	; (8001280 <TSK_HardwareFaultTask+0x18>)
 800126c:	6818      	ldr	r0, [r3, #0]
 800126e:	f004 f869 	bl	8005344 <R3_1_SwitchOffPWM>
  STM_FaultProcessing(&STM[M1], MC_SW_ERROR, 0);
 8001272:	2200      	movs	r2, #0
 8001274:	2180      	movs	r1, #128	; 0x80
 8001276:	4803      	ldr	r0, [pc, #12]	; (8001284 <TSK_HardwareFaultTask+0x1c>)
 8001278:	f004 fb08 	bl	800588c <STM_FaultProcessing>
  /* USER CODE BEGIN TSK_HardwareFaultTask 1 */

  /* USER CODE END TSK_HardwareFaultTask 1 */
}
 800127c:	bd10      	pop	{r4, pc}
 800127e:	46c0      	nop			; (mov r8, r8)
 8001280:	2000083c 	.word	0x2000083c
 8001284:	20000804 	.word	0x20000804

08001288 <mc_lock_pins>:
  * @retval None
  */
__STATIC_INLINE void LL_GPIO_LockPin(GPIO_TypeDef *GPIOx, uint32_t PinMask)
{
  __IO uint32_t temp;
  WRITE_REG(GPIOx->LCKR, GPIO_LCKR_LCKK | PinMask);
 8001288:	2390      	movs	r3, #144	; 0x90
  WRITE_REG(GPIOx->LCKR, PinMask);
 800128a:	2108      	movs	r1, #8
  WRITE_REG(GPIOx->LCKR, GPIO_LCKR_LCKK | PinMask);
 800128c:	4a36      	ldr	r2, [pc, #216]	; (8001368 <mc_lock_pins+0xe0>)
 800128e:	05db      	lsls	r3, r3, #23
 8001290:	61da      	str	r2, [r3, #28]
  WRITE_REG(GPIOx->LCKR, PinMask);
 8001292:	61d9      	str	r1, [r3, #28]
  WRITE_REG(GPIOx->LCKR, GPIO_LCKR_LCKK | PinMask);
 8001294:	61da      	str	r2, [r3, #28]
  temp = READ_REG(GPIOx->LCKR);
 8001296:	69da      	ldr	r2, [r3, #28]
 /**
  * @brief  Locks GPIO pins used for Motor Control to prevent accidental reconfiguration
  */
__weak void mc_lock_pins (void)
{
 8001298:	b08c      	sub	sp, #48	; 0x30
 800129a:	920b      	str	r2, [sp, #44]	; 0x2c
  (void) temp;
 800129c:	9a0b      	ldr	r2, [sp, #44]	; 0x2c
  WRITE_REG(GPIOx->LCKR, GPIO_LCKR_LCKK | PinMask);
 800129e:	4a33      	ldr	r2, [pc, #204]	; (800136c <mc_lock_pins+0xe4>)
  WRITE_REG(GPIOx->LCKR, PinMask);
 80012a0:	3118      	adds	r1, #24
  WRITE_REG(GPIOx->LCKR, GPIO_LCKR_LCKK | PinMask);
 80012a2:	61da      	str	r2, [r3, #28]
  WRITE_REG(GPIOx->LCKR, PinMask);
 80012a4:	61d9      	str	r1, [r3, #28]
  WRITE_REG(GPIOx->LCKR, GPIO_LCKR_LCKK | PinMask);
 80012a6:	61da      	str	r2, [r3, #28]
  temp = READ_REG(GPIOx->LCKR);
 80012a8:	69da      	ldr	r2, [r3, #28]
  WRITE_REG(GPIOx->LCKR, PinMask);
 80012aa:	3910      	subs	r1, #16
  temp = READ_REG(GPIOx->LCKR);
 80012ac:	920a      	str	r2, [sp, #40]	; 0x28
  (void) temp;
 80012ae:	9a0a      	ldr	r2, [sp, #40]	; 0x28
  WRITE_REG(GPIOx->LCKR, GPIO_LCKR_LCKK | PinMask);
 80012b0:	4a2f      	ldr	r2, [pc, #188]	; (8001370 <mc_lock_pins+0xe8>)
  WRITE_REG(GPIOx->LCKR, PinMask);
 80012b2:	2080      	movs	r0, #128	; 0x80
  WRITE_REG(GPIOx->LCKR, GPIO_LCKR_LCKK | PinMask);
 80012b4:	61da      	str	r2, [r3, #28]
  WRITE_REG(GPIOx->LCKR, PinMask);
 80012b6:	61d9      	str	r1, [r3, #28]
  WRITE_REG(GPIOx->LCKR, GPIO_LCKR_LCKK | PinMask);
 80012b8:	61da      	str	r2, [r3, #28]
  temp = READ_REG(GPIOx->LCKR);
 80012ba:	69da      	ldr	r2, [r3, #28]
  WRITE_REG(GPIOx->LCKR, PinMask);
 80012bc:	390e      	subs	r1, #14
  temp = READ_REG(GPIOx->LCKR);
 80012be:	9209      	str	r2, [sp, #36]	; 0x24
  (void) temp;
 80012c0:	9a09      	ldr	r2, [sp, #36]	; 0x24
  WRITE_REG(GPIOx->LCKR, GPIO_LCKR_LCKK | PinMask);
 80012c2:	4a2c      	ldr	r2, [pc, #176]	; (8001374 <mc_lock_pins+0xec>)
  WRITE_REG(GPIOx->LCKR, PinMask);
 80012c4:	01c0      	lsls	r0, r0, #7
  WRITE_REG(GPIOx->LCKR, GPIO_LCKR_LCKK | PinMask);
 80012c6:	61da      	str	r2, [r3, #28]
  WRITE_REG(GPIOx->LCKR, PinMask);
 80012c8:	61d9      	str	r1, [r3, #28]
  WRITE_REG(GPIOx->LCKR, GPIO_LCKR_LCKK | PinMask);
 80012ca:	61da      	str	r2, [r3, #28]
  temp = READ_REG(GPIOx->LCKR);
 80012cc:	69da      	ldr	r2, [r3, #28]
  WRITE_REG(GPIOx->LCKR, PinMask);
 80012ce:	3102      	adds	r1, #2
  temp = READ_REG(GPIOx->LCKR);
 80012d0:	9208      	str	r2, [sp, #32]
  (void) temp;
 80012d2:	9a08      	ldr	r2, [sp, #32]
  WRITE_REG(GPIOx->LCKR, GPIO_LCKR_LCKK | PinMask);
 80012d4:	4a28      	ldr	r2, [pc, #160]	; (8001378 <mc_lock_pins+0xf0>)
 80012d6:	61da      	str	r2, [r3, #28]
  WRITE_REG(GPIOx->LCKR, PinMask);
 80012d8:	61d9      	str	r1, [r3, #28]
  WRITE_REG(GPIOx->LCKR, GPIO_LCKR_LCKK | PinMask);
 80012da:	61da      	str	r2, [r3, #28]
  temp = READ_REG(GPIOx->LCKR);
 80012dc:	69da      	ldr	r2, [r3, #28]
  WRITE_REG(GPIOx->LCKR, PinMask);
 80012de:	3903      	subs	r1, #3
  temp = READ_REG(GPIOx->LCKR);
 80012e0:	9207      	str	r2, [sp, #28]
  (void) temp;
 80012e2:	9a07      	ldr	r2, [sp, #28]
  WRITE_REG(GPIOx->LCKR, GPIO_LCKR_LCKK | PinMask);
 80012e4:	4a25      	ldr	r2, [pc, #148]	; (800137c <mc_lock_pins+0xf4>)
 80012e6:	61da      	str	r2, [r3, #28]
  WRITE_REG(GPIOx->LCKR, PinMask);
 80012e8:	61d9      	str	r1, [r3, #28]
  WRITE_REG(GPIOx->LCKR, GPIO_LCKR_LCKK | PinMask);
 80012ea:	61da      	str	r2, [r3, #28]
  temp = READ_REG(GPIOx->LCKR);
 80012ec:	69da      	ldr	r2, [r3, #28]
  WRITE_REG(GPIOx->LCKR, PinMask);
 80012ee:	31ff      	adds	r1, #255	; 0xff
  temp = READ_REG(GPIOx->LCKR);
 80012f0:	9206      	str	r2, [sp, #24]
  (void) temp;
 80012f2:	9a06      	ldr	r2, [sp, #24]
  WRITE_REG(GPIOx->LCKR, GPIO_LCKR_LCKK | PinMask);
 80012f4:	4a22      	ldr	r2, [pc, #136]	; (8001380 <mc_lock_pins+0xf8>)
 80012f6:	61da      	str	r2, [r3, #28]
  WRITE_REG(GPIOx->LCKR, PinMask);
 80012f8:	61d9      	str	r1, [r3, #28]
  WRITE_REG(GPIOx->LCKR, GPIO_LCKR_LCKK | PinMask);
 80012fa:	61da      	str	r2, [r3, #28]
  temp = READ_REG(GPIOx->LCKR);
 80012fc:	69da      	ldr	r2, [r3, #28]
  WRITE_REG(GPIOx->LCKR, PinMask);
 80012fe:	3101      	adds	r1, #1
  temp = READ_REG(GPIOx->LCKR);
 8001300:	9205      	str	r2, [sp, #20]
  (void) temp;
 8001302:	9a05      	ldr	r2, [sp, #20]
  WRITE_REG(GPIOx->LCKR, GPIO_LCKR_LCKK | PinMask);
 8001304:	2281      	movs	r2, #129	; 0x81
  WRITE_REG(GPIOx->LCKR, PinMask);
 8001306:	31ff      	adds	r1, #255	; 0xff
  WRITE_REG(GPIOx->LCKR, GPIO_LCKR_LCKK | PinMask);
 8001308:	0252      	lsls	r2, r2, #9
 800130a:	61da      	str	r2, [r3, #28]
  WRITE_REG(GPIOx->LCKR, PinMask);
 800130c:	61d9      	str	r1, [r3, #28]
  WRITE_REG(GPIOx->LCKR, GPIO_LCKR_LCKK | PinMask);
 800130e:	21a0      	movs	r1, #160	; 0xa0
  WRITE_REG(GPIOx->LCKR, GPIO_LCKR_LCKK | PinMask);
 8001310:	61da      	str	r2, [r3, #28]
  temp = READ_REG(GPIOx->LCKR);
 8001312:	69da      	ldr	r2, [r3, #28]
  WRITE_REG(GPIOx->LCKR, GPIO_LCKR_LCKK | PinMask);
 8001314:	0249      	lsls	r1, r1, #9
  temp = READ_REG(GPIOx->LCKR);
 8001316:	9204      	str	r2, [sp, #16]
  (void) temp;
 8001318:	9a04      	ldr	r2, [sp, #16]
  WRITE_REG(GPIOx->LCKR, GPIO_LCKR_LCKK | PinMask);
 800131a:	4a1a      	ldr	r2, [pc, #104]	; (8001384 <mc_lock_pins+0xfc>)
 800131c:	61d1      	str	r1, [r2, #28]
  WRITE_REG(GPIOx->LCKR, PinMask);
 800131e:	61d0      	str	r0, [r2, #28]
  WRITE_REG(GPIOx->LCKR, GPIO_LCKR_LCKK | PinMask);
 8001320:	61d1      	str	r1, [r2, #28]
  temp = READ_REG(GPIOx->LCKR);
 8001322:	69d1      	ldr	r1, [r2, #28]
  WRITE_REG(GPIOx->LCKR, PinMask);
 8001324:	2080      	movs	r0, #128	; 0x80
  temp = READ_REG(GPIOx->LCKR);
 8001326:	9103      	str	r1, [sp, #12]
  (void) temp;
 8001328:	9903      	ldr	r1, [sp, #12]
  WRITE_REG(GPIOx->LCKR, GPIO_LCKR_LCKK | PinMask);
 800132a:	2182      	movs	r1, #130	; 0x82
  WRITE_REG(GPIOx->LCKR, PinMask);
 800132c:	00c0      	lsls	r0, r0, #3
  WRITE_REG(GPIOx->LCKR, GPIO_LCKR_LCKK | PinMask);
 800132e:	0249      	lsls	r1, r1, #9
 8001330:	61d9      	str	r1, [r3, #28]
  WRITE_REG(GPIOx->LCKR, PinMask);
 8001332:	61d8      	str	r0, [r3, #28]
  WRITE_REG(GPIOx->LCKR, GPIO_LCKR_LCKK | PinMask);
 8001334:	61d9      	str	r1, [r3, #28]
  temp = READ_REG(GPIOx->LCKR);
 8001336:	69db      	ldr	r3, [r3, #28]
  WRITE_REG(GPIOx->LCKR, PinMask);
 8001338:	2180      	movs	r1, #128	; 0x80
  temp = READ_REG(GPIOx->LCKR);
 800133a:	9302      	str	r3, [sp, #8]
  (void) temp;
 800133c:	9b02      	ldr	r3, [sp, #8]
  WRITE_REG(GPIOx->LCKR, GPIO_LCKR_LCKK | PinMask);
 800133e:	23c0      	movs	r3, #192	; 0xc0
  WRITE_REG(GPIOx->LCKR, PinMask);
 8001340:	0209      	lsls	r1, r1, #8
  WRITE_REG(GPIOx->LCKR, GPIO_LCKR_LCKK | PinMask);
 8001342:	025b      	lsls	r3, r3, #9
 8001344:	61d3      	str	r3, [r2, #28]
  WRITE_REG(GPIOx->LCKR, PinMask);
 8001346:	61d1      	str	r1, [r2, #28]
  WRITE_REG(GPIOx->LCKR, GPIO_LCKR_LCKK | PinMask);
 8001348:	61d3      	str	r3, [r2, #28]
  temp = READ_REG(GPIOx->LCKR);
 800134a:	69d3      	ldr	r3, [r2, #28]
  WRITE_REG(GPIOx->LCKR, PinMask);
 800134c:	2180      	movs	r1, #128	; 0x80
  temp = READ_REG(GPIOx->LCKR);
 800134e:	9301      	str	r3, [sp, #4]
  (void) temp;
 8001350:	9b01      	ldr	r3, [sp, #4]
  WRITE_REG(GPIOx->LCKR, GPIO_LCKR_LCKK | PinMask);
 8001352:	2390      	movs	r3, #144	; 0x90
  WRITE_REG(GPIOx->LCKR, PinMask);
 8001354:	0189      	lsls	r1, r1, #6
  WRITE_REG(GPIOx->LCKR, GPIO_LCKR_LCKK | PinMask);
 8001356:	025b      	lsls	r3, r3, #9
 8001358:	61d3      	str	r3, [r2, #28]
  WRITE_REG(GPIOx->LCKR, PinMask);
 800135a:	61d1      	str	r1, [r2, #28]
  WRITE_REG(GPIOx->LCKR, GPIO_LCKR_LCKK | PinMask);
 800135c:	61d3      	str	r3, [r2, #28]
  temp = READ_REG(GPIOx->LCKR);
 800135e:	69d3      	ldr	r3, [r2, #28]
 8001360:	9300      	str	r3, [sp, #0]
  (void) temp;
 8001362:	9b00      	ldr	r3, [sp, #0]
LL_GPIO_LockPin(M1_PWM_VH_GPIO_Port, M1_PWM_VH_Pin);
LL_GPIO_LockPin(M1_PWM_VL_GPIO_Port, M1_PWM_VL_Pin);
LL_GPIO_LockPin(M1_PWM_WH_GPIO_Port, M1_PWM_WH_Pin);
LL_GPIO_LockPin(M1_PWM_WL_GPIO_Port, M1_PWM_WL_Pin);
LL_GPIO_LockPin(M1_PWM_UL_GPIO_Port, M1_PWM_UL_Pin);
}
 8001364:	b00c      	add	sp, #48	; 0x30
 8001366:	4770      	bx	lr
 8001368:	00010008 	.word	0x00010008
 800136c:	00010020 	.word	0x00010020
 8001370:	00010010 	.word	0x00010010
 8001374:	00010002 	.word	0x00010002
 8001378:	00010004 	.word	0x00010004
 800137c:	00010001 	.word	0x00010001
 8001380:	00010100 	.word	0x00010100
 8001384:	48000400 	.word	0x48000400

08001388 <MCP_ReceivedFrame>:
* @param  Code code value of frame to send.
* @param  buffer frame data buffer.
* @param  Size size of data frame.
*/
__weak void MCP_ReceivedFrame(MCP_Handle_t *pHandle, uint8_t Code, uint8_t *buffer, uint8_t Size)
{
 8001388:	b5f0      	push	{r4, r5, r6, r7, lr}
 800138a:	b08d      	sub	sp, #52	; 0x34
 800138c:	0016      	movs	r6, r2
 800138e:	001f      	movs	r7, r3
  bool RequireAck = true;
  bool bNoError = false; // Default is error
 8001390:	2200      	movs	r2, #0
 8001392:	466b      	mov	r3, sp
{
 8001394:	0005      	movs	r5, r0
  bool bNoError = false; // Default is error
 8001396:	725a      	strb	r2, [r3, #9]
{
 8001398:	000c      	movs	r4, r1
  uint8_t bErrorCode;

  /* Protocol version >3.3 motor selection inside Frame ID */
  uint8_t bMotorSelection = (Code & 0xE0) >> 5; /* Mask: 1110|0000 */
 800139a:	094a      	lsrs	r2, r1, #5
  if (bMotorSelection != 0)
 800139c:	d10f      	bne.n	80013be <MCP_ReceivedFrame+0x36>
      Code = MC_PROTOCOL_CODE_NONE; /* Error */
      bErrorCode = ERROR_BAD_MOTOR_SELECTED;
    }
  }

  switch (Code)
 800139e:	2912      	cmp	r1, #18
 80013a0:	d82b      	bhi.n	80013fa <MCP_ReceivedFrame+0x72>
 80013a2:	4bc9      	ldr	r3, [pc, #804]	; (80016c8 <MCP_ReceivedFrame+0x340>)
 80013a4:	008c      	lsls	r4, r1, #2
 80013a6:	591b      	ldr	r3, [r3, r4]
 80013a8:	469f      	mov	pc, r3
 80013aa:	240e      	movs	r4, #14
 80013ac:	446c      	add	r4, sp
    {
      pHandle->fFcpSend(pHandle->pFCP, ACK_NOERROR, MC_NULL, 0);
    }
    else
    {
      pHandle->fFcpSend(pHandle->pFCP, ACK_ERROR, &bErrorCode, 1);
 80013ae:	69a8      	ldr	r0, [r5, #24]
 80013b0:	2301      	movs	r3, #1
 80013b2:	0022      	movs	r2, r4
 80013b4:	21ff      	movs	r1, #255	; 0xff
 80013b6:	69ed      	ldr	r5, [r5, #28]
 80013b8:	47a8      	blx	r5
    }
  }
}
 80013ba:	b00d      	add	sp, #52	; 0x34
 80013bc:	bdf0      	pop	{r4, r5, r6, r7, pc}
    if (UI_SetReg(&pHandle->_Super, MC_PROTOCOL_REG_TARGET_MOTOR, bMotorSelection - 1))
 80013be:	2100      	movs	r1, #0
 80013c0:	3a01      	subs	r2, #1
 80013c2:	f000 feef 	bl	80021a4 <UI_SetReg>
 80013c6:	2800      	cmp	r0, #0
 80013c8:	d10e      	bne.n	80013e8 <MCP_ReceivedFrame+0x60>
      bErrorCode = ERROR_BAD_MOTOR_SELECTED;
 80013ca:	240e      	movs	r4, #14
 80013cc:	230b      	movs	r3, #11
 80013ce:	446c      	add	r4, sp
 80013d0:	7023      	strb	r3, [r4, #0]
    if (bNoError)
 80013d2:	466b      	mov	r3, sp
 80013d4:	7a58      	ldrb	r0, [r3, #9]
 80013d6:	2800      	cmp	r0, #0
 80013d8:	d0e7      	beq.n	80013aa <MCP_ReceivedFrame+0x22>
      pHandle->fFcpSend(pHandle->pFCP, ACK_NOERROR, MC_NULL, 0);
 80013da:	2300      	movs	r3, #0
 80013dc:	2200      	movs	r2, #0
 80013de:	21f0      	movs	r1, #240	; 0xf0
 80013e0:	69a8      	ldr	r0, [r5, #24]
 80013e2:	69ec      	ldr	r4, [r5, #28]
 80013e4:	47a0      	blx	r4
 80013e6:	e7e8      	b.n	80013ba <MCP_ReceivedFrame+0x32>
  switch (Code)
 80013e8:	231f      	movs	r3, #31
 80013ea:	4023      	ands	r3, r4
 80013ec:	2b12      	cmp	r3, #18
 80013ee:	d900      	bls.n	80013f2 <MCP_ReceivedFrame+0x6a>
 80013f0:	e1b1      	b.n	8001756 <MCP_ReceivedFrame+0x3ce>
 80013f2:	4ab6      	ldr	r2, [pc, #728]	; (80016cc <MCP_ReceivedFrame+0x344>)
 80013f4:	009b      	lsls	r3, r3, #2
 80013f6:	58d3      	ldr	r3, [r2, r3]
 80013f8:	469f      	mov	pc, r3
      bErrorCode = ERROR_BAD_FRAME_ID;
 80013fa:	240e      	movs	r4, #14
 80013fc:	2301      	movs	r3, #1
 80013fe:	446c      	add	r4, sp
 8001400:	7023      	strb	r3, [r4, #0]
    if (bNoError)
 8001402:	e7d4      	b.n	80013ae <MCP_ReceivedFrame+0x26>
        outBuff[i] = 0;
 8001404:	ac04      	add	r4, sp, #16
 8001406:	2220      	movs	r2, #32
 8001408:	2100      	movs	r1, #0
 800140a:	0020      	movs	r0, r4
 800140c:	f004 fc10 	bl	8005c30 <memset>
      for (i = 0; (i<29) && (pHandle->s_fwVer[i]!='\t'); i++)
 8001410:	23a8      	movs	r3, #168	; 0xa8
 8001412:	58e8      	ldr	r0, [r5, r3]
 8001414:	2300      	movs	r3, #0
 8001416:	e005      	b.n	8001424 <MCP_ReceivedFrame+0x9c>
        outBuff[3+i] = pHandle->s_fwVer[i];
 8001418:	18e1      	adds	r1, r4, r3
      for (i = 0; (i<29) && (pHandle->s_fwVer[i]!='\t'); i++)
 800141a:	3301      	adds	r3, #1
        outBuff[3+i] = pHandle->s_fwVer[i];
 800141c:	70ca      	strb	r2, [r1, #3]
      for (i = 0; (i<29) && (pHandle->s_fwVer[i]!='\t'); i++)
 800141e:	2b1d      	cmp	r3, #29
 8001420:	d100      	bne.n	8001424 <MCP_ReceivedFrame+0x9c>
 8001422:	e1b6      	b.n	8001792 <MCP_ReceivedFrame+0x40a>
 8001424:	5cc2      	ldrb	r2, [r0, r3]
 8001426:	2a09      	cmp	r2, #9
 8001428:	d1f6      	bne.n	8001418 <MCP_ReceivedFrame+0x90>
      outBuff[0] = pHandle->s_fwVer[i+5];
 800142a:	1d5a      	adds	r2, r3, #5
      outBuff[1] = pHandle->s_fwVer[i+7];
 800142c:	1dd9      	adds	r1, r3, #7
      outBuff[2] = pHandle->s_fwVer[i+9];
 800142e:	3309      	adds	r3, #9
      outBuff[0] = pHandle->s_fwVer[i+5];
 8001430:	5c82      	ldrb	r2, [r0, r2]
 8001432:	7022      	strb	r2, [r4, #0]
      outBuff[1] = pHandle->s_fwVer[i+7];
 8001434:	5c42      	ldrb	r2, [r0, r1]
 8001436:	7062      	strb	r2, [r4, #1]
      outBuff[2] = pHandle->s_fwVer[i+9];
 8001438:	5cc3      	ldrb	r3, [r0, r3]
 800143a:	70a3      	strb	r3, [r4, #2]
      pHandle->fFcpSend(pHandle->pFCP, ACK_NOERROR, outBuff, 32 );
 800143c:	2320      	movs	r3, #32
 800143e:	0022      	movs	r2, r4
 8001440:	21f0      	movs	r1, #240	; 0xf0
 8001442:	69a8      	ldr	r0, [r5, #24]
 8001444:	69ee      	ldr	r6, [r5, #28]
 8001446:	47b0      	blx	r6
      bNoError = true;
 8001448:	2301      	movs	r3, #1
 800144a:	466a      	mov	r2, sp
 800144c:	7253      	strb	r3, [r2, #9]
  if (RequireAck)
 800144e:	e7c4      	b.n	80013da <MCP_ReceivedFrame+0x52>
      uint16_t duration = buffer[4] + (buffer[5] << 8);
 8001450:	7973      	ldrb	r3, [r6, #5]
 8001452:	7932      	ldrb	r2, [r6, #4]
      int32_t rpm = buffer[0] + (buffer[1] << 8) + (buffer[2] << 16) + (buffer[3] << 24);
 8001454:	7871      	ldrb	r1, [r6, #1]
      uint16_t duration = buffer[4] + (buffer[5] << 8);
 8001456:	021b      	lsls	r3, r3, #8
 8001458:	18d2      	adds	r2, r2, r3
      int32_t rpm = buffer[0] + (buffer[1] << 8) + (buffer[2] << 16) + (buffer[3] << 24);
 800145a:	7833      	ldrb	r3, [r6, #0]
 800145c:	0209      	lsls	r1, r1, #8
 800145e:	18c9      	adds	r1, r1, r3
 8001460:	78b3      	ldrb	r3, [r6, #2]
      bNoError = UI_ExecSpeedRamp(&pHandle->_Super, rpm,duration);
 8001462:	0028      	movs	r0, r5
      int32_t rpm = buffer[0] + (buffer[1] << 8) + (buffer[2] << 16) + (buffer[3] << 24);
 8001464:	041b      	lsls	r3, r3, #16
 8001466:	18c9      	adds	r1, r1, r3
 8001468:	78f3      	ldrb	r3, [r6, #3]
      bNoError = UI_ExecSpeedRamp(&pHandle->_Super, rpm,duration);
 800146a:	b292      	uxth	r2, r2
      int32_t rpm = buffer[0] + (buffer[1] << 8) + (buffer[2] << 16) + (buffer[3] << 24);
 800146c:	061b      	lsls	r3, r3, #24
 800146e:	18c9      	adds	r1, r1, r3
      bNoError = UI_ExecSpeedRamp(&pHandle->_Super, rpm,duration);
 8001470:	f001 f86e 	bl	8002550 <UI_ExecSpeedRamp>
 8001474:	466b      	mov	r3, sp
 8001476:	7258      	strb	r0, [r3, #9]
  if (RequireAck)
 8001478:	e7ad      	b.n	80013d6 <MCP_ReceivedFrame+0x4e>
      UI_GetRevupData(&pHandle->_Super, buffer[0], &Durationms, &FinalMecSpeedUnit, &FinalTorque);
 800147a:	240e      	movs	r4, #14
 800147c:	220a      	movs	r2, #10
 800147e:	446c      	add	r4, sp
 8001480:	af03      	add	r7, sp, #12
 8001482:	7831      	ldrb	r1, [r6, #0]
 8001484:	003b      	movs	r3, r7
 8001486:	9400      	str	r4, [sp, #0]
 8001488:	446a      	add	r2, sp
 800148a:	0028      	movs	r0, r5
 800148c:	f001 f87c 	bl	8002588 <UI_GetRevupData>
      outBuff[6] = (uint8_t)(Durationms);
 8001490:	466b      	mov	r3, sp
 8001492:	895a      	ldrh	r2, [r3, #10]
      rpm = (FinalMecSpeedUnit * _RPM) / SPEED_UNIT;
 8001494:	2300      	movs	r3, #0
 8001496:	5ef9      	ldrsh	r1, [r7, r3]
      outBuff[0] = (uint8_t)(rpm);
 8001498:	7820      	ldrb	r0, [r4, #0]
      rpm = (FinalMecSpeedUnit * _RPM) / SPEED_UNIT;
 800149a:	004b      	lsls	r3, r1, #1
 800149c:	185b      	adds	r3, r3, r1
      outBuff[0] = (uint8_t)(rpm);
 800149e:	4669      	mov	r1, sp
      rpm = (FinalMecSpeedUnit * _RPM) / SPEED_UNIT;
 80014a0:	005b      	lsls	r3, r3, #1
      outBuff[0] = (uint8_t)(rpm);
 80014a2:	9304      	str	r3, [sp, #16]
 80014a4:	7863      	ldrb	r3, [r4, #1]
 80014a6:	7a89      	ldrb	r1, [r1, #10]
 80014a8:	021b      	lsls	r3, r3, #8
 80014aa:	0409      	lsls	r1, r1, #16
 80014ac:	4303      	orrs	r3, r0
 80014ae:	430b      	orrs	r3, r1
 80014b0:	0a12      	lsrs	r2, r2, #8
 80014b2:	021b      	lsls	r3, r3, #8
 80014b4:	0612      	lsls	r2, r2, #24
 80014b6:	0a1b      	lsrs	r3, r3, #8
 80014b8:	4313      	orrs	r3, r2
 80014ba:	9305      	str	r3, [sp, #20]
      pHandle->fFcpSend(pHandle->pFCP, ACK_NOERROR, outBuff, 8 );
 80014bc:	21f0      	movs	r1, #240	; 0xf0
 80014be:	2308      	movs	r3, #8
 80014c0:	69a8      	ldr	r0, [r5, #24]
 80014c2:	69ec      	ldr	r4, [r5, #28]
 80014c4:	aa04      	add	r2, sp, #16
 80014c6:	47a0      	blx	r4
    if (bNoError)
 80014c8:	466b      	mov	r3, sp
 80014ca:	7a58      	ldrb	r0, [r3, #9]
 80014cc:	e783      	b.n	80013d6 <MCP_ReceivedFrame+0x4e>
      rpm = buffer[1] + (buffer[2] << 8) + (buffer[3] << 16) + (buffer[4] << 24);
 80014ce:	78b0      	ldrb	r0, [r6, #2]
 80014d0:	7873      	ldrb	r3, [r6, #1]
 80014d2:	0200      	lsls	r0, r0, #8
 80014d4:	18c0      	adds	r0, r0, r3
 80014d6:	78f3      	ldrb	r3, [r6, #3]
      hFinalMecSpeedUnit = (rpm * SPEED_UNIT ) / _RPM ;
 80014d8:	2106      	movs	r1, #6
      rpm = buffer[1] + (buffer[2] << 8) + (buffer[3] << 16) + (buffer[4] << 24);
 80014da:	041b      	lsls	r3, r3, #16
 80014dc:	18c0      	adds	r0, r0, r3
 80014de:	7933      	ldrb	r3, [r6, #4]
 80014e0:	061b      	lsls	r3, r3, #24
 80014e2:	18c0      	adds	r0, r0, r3
      hFinalMecSpeedUnit = (rpm * SPEED_UNIT ) / _RPM ;
 80014e4:	f7fe fe9a 	bl	800021c <__divsi3>
      bNoError = UI_SetRevupData( &pHandle->_Super, bStage, hDurationms, hFinalMecSpeedUnit, hFinalTorque );
 80014e8:	b203      	sxth	r3, r0
      hFinalTorque = buffer[5] + (buffer[6] << 8);
 80014ea:	79b0      	ldrb	r0, [r6, #6]
      hDurationms = buffer[7] + (buffer[8] << 8);
 80014ec:	7a31      	ldrb	r1, [r6, #8]
      hFinalTorque = buffer[5] + (buffer[6] << 8);
 80014ee:	7974      	ldrb	r4, [r6, #5]
      hDurationms = buffer[7] + (buffer[8] << 8);
 80014f0:	79f2      	ldrb	r2, [r6, #7]
      hFinalTorque = buffer[5] + (buffer[6] << 8);
 80014f2:	0200      	lsls	r0, r0, #8
      hDurationms = buffer[7] + (buffer[8] << 8);
 80014f4:	0209      	lsls	r1, r1, #8
      hFinalTorque = buffer[5] + (buffer[6] << 8);
 80014f6:	1824      	adds	r4, r4, r0
      hDurationms = buffer[7] + (buffer[8] << 8);
 80014f8:	1852      	adds	r2, r2, r1
      bNoError = UI_SetRevupData( &pHandle->_Super, bStage, hDurationms, hFinalMecSpeedUnit, hFinalTorque );
 80014fa:	b224      	sxth	r4, r4
 80014fc:	7831      	ldrb	r1, [r6, #0]
 80014fe:	0028      	movs	r0, r5
 8001500:	b292      	uxth	r2, r2
 8001502:	9400      	str	r4, [sp, #0]
 8001504:	f001 f85e 	bl	80025c4 <UI_SetRevupData>
 8001508:	466b      	mov	r3, sp
 800150a:	7258      	strb	r0, [r3, #9]
  if (RequireAck)
 800150c:	e763      	b.n	80013d6 <MCP_ReceivedFrame+0x4e>
      bErrorCode = ERROR_CODE_GET_WRITE_ONLY;
 800150e:	240e      	movs	r4, #14
 8001510:	2303      	movs	r3, #3
 8001512:	446c      	add	r4, sp
 8001514:	7023      	strb	r3, [r4, #0]
 8001516:	2300      	movs	r3, #0
 8001518:	56f3      	ldrsb	r3, [r6, r3]
      MC_Protocol_REG_t bRegID = (MC_Protocol_REG_t)buffer[0];
 800151a:	7831      	ldrb	r1, [r6, #0]
      switch (bRegID)
 800151c:	2b00      	cmp	r3, #0
 800151e:	da00      	bge.n	8001522 <MCP_ReceivedFrame+0x19a>
 8001520:	e090      	b.n	8001644 <MCP_ReceivedFrame+0x2bc>
 8001522:	2963      	cmp	r1, #99	; 0x63
 8001524:	d900      	bls.n	8001528 <MCP_ReceivedFrame+0x1a0>
 8001526:	e0f3      	b.n	8001710 <MCP_ReceivedFrame+0x388>
 8001528:	2941      	cmp	r1, #65	; 0x41
 800152a:	d86b      	bhi.n	8001604 <MCP_ReceivedFrame+0x27c>
 800152c:	4a68      	ldr	r2, [pc, #416]	; (80016d0 <MCP_ReceivedFrame+0x348>)
 800152e:	008b      	lsls	r3, r1, #2
 8001530:	58d3      	ldr	r3, [r2, r3]
 8001532:	469f      	mov	pc, r3
      bErrorCode = ERROR_MP_NOT_ENABLED;
 8001534:	240e      	movs	r4, #14
 8001536:	230c      	movs	r3, #12
      stepList.data = buffer;
 8001538:	9604      	str	r6, [sp, #16]
      bNoError = UI_GetMPInfo(&stepList, &MPInfo);
 800153a:	4e66      	ldr	r6, [pc, #408]	; (80016d4 <MCP_ReceivedFrame+0x34c>)
      stepList.data = buffer;
 800153c:	a804      	add	r0, sp, #16
      bErrorCode = ERROR_MP_NOT_ENABLED;
 800153e:	446c      	add	r4, sp
 8001540:	7023      	strb	r3, [r4, #0]
      bNoError = UI_GetMPInfo(&stepList, &MPInfo);
 8001542:	0031      	movs	r1, r6
      stepList.len = Size;
 8001544:	7107      	strb	r7, [r0, #4]
      bNoError = UI_GetMPInfo(&stepList, &MPInfo);
 8001546:	f001 f867 	bl	8002618 <UI_GetMPInfo>
 800154a:	466b      	mov	r3, sp
 800154c:	7258      	strb	r0, [r3, #9]
      if (bNoError)
 800154e:	2800      	cmp	r0, #0
 8001550:	d100      	bne.n	8001554 <MCP_ReceivedFrame+0x1cc>
 8001552:	e72c      	b.n	80013ae <MCP_ReceivedFrame+0x26>
        pHandle->fFcpSend(pHandle->pFCP, ACK_NOERROR, MPInfo.data, MPInfo.len);
 8001554:	21f0      	movs	r1, #240	; 0xf0
 8001556:	7933      	ldrb	r3, [r6, #4]
 8001558:	6832      	ldr	r2, [r6, #0]
 800155a:	69a8      	ldr	r0, [r5, #24]
 800155c:	69ec      	ldr	r4, [r5, #28]
 800155e:	47a0      	blx	r4
  if (RequireAck)
 8001560:	e72b      	b.n	80013ba <MCP_ReceivedFrame+0x32>
      bErrorCode = ERROR_CODE_WRONG_SET;
 8001562:	240e      	movs	r4, #14
 8001564:	2305      	movs	r3, #5
      MC_Protocol_REG_t bRegID = (MC_Protocol_REG_t)buffer[0];
 8001566:	7831      	ldrb	r1, [r6, #0]
      bErrorCode = ERROR_CODE_WRONG_SET;
 8001568:	446c      	add	r4, sp
 800156a:	7023      	strb	r3, [r4, #0]
      switch (bRegID)
 800156c:	2948      	cmp	r1, #72	; 0x48
 800156e:	d900      	bls.n	8001572 <MCP_ReceivedFrame+0x1ea>
 8001570:	e086      	b.n	8001680 <MCP_ReceivedFrame+0x2f8>
 8001572:	4a59      	ldr	r2, [pc, #356]	; (80016d8 <MCP_ReceivedFrame+0x350>)
 8001574:	008b      	lsls	r3, r1, #2
 8001576:	58d3      	ldr	r3, [r2, r3]
 8001578:	469f      	mov	pc, r3
      hIdRef = buffer[2] + (buffer[3] << 8);
 800157a:	78f3      	ldrb	r3, [r6, #3]
 800157c:	78b2      	ldrb	r2, [r6, #2]
 800157e:	021b      	lsls	r3, r3, #8
 8001580:	18d2      	adds	r2, r2, r3
      hIqRef = buffer[0] + (buffer[1] << 8);
 8001582:	7873      	ldrb	r3, [r6, #1]
 8001584:	7831      	ldrb	r1, [r6, #0]
 8001586:	021b      	lsls	r3, r3, #8
 8001588:	18c9      	adds	r1, r1, r3
      UI_SetCurrentReferences(&pHandle->_Super, hIqRef, hIdRef);
 800158a:	b212      	sxth	r2, r2
 800158c:	0028      	movs	r0, r5
 800158e:	b209      	sxth	r1, r1
 8001590:	f001 f834 	bl	80025fc <UI_SetCurrentReferences>
      bNoError = true;
 8001594:	2301      	movs	r3, #1
 8001596:	466a      	mov	r2, sp
 8001598:	7253      	strb	r3, [r2, #9]
  if (RequireAck)
 800159a:	e71e      	b.n	80013da <MCP_ReceivedFrame+0x52>
      bErrorCode = ERROR_CODE_WRONG_CMD;
 800159c:	240e      	movs	r4, #14
 800159e:	2307      	movs	r3, #7
 80015a0:	446c      	add	r4, sp
 80015a2:	7023      	strb	r3, [r4, #0]
      bNoError = UI_ExecCmd(&pHandle->_Super,bCmdID);
 80015a4:	0028      	movs	r0, r5
      uint8_t bCmdID = buffer[0];
 80015a6:	7831      	ldrb	r1, [r6, #0]
      bNoError = UI_ExecCmd(&pHandle->_Super,bCmdID);
 80015a8:	f000 ff98 	bl	80024dc <UI_ExecCmd>
 80015ac:	466b      	mov	r3, sp
 80015ae:	7258      	strb	r0, [r3, #9]
  if (RequireAck)
 80015b0:	e711      	b.n	80013d6 <MCP_ReceivedFrame+0x4e>
      uint16_t duration = buffer[4] + (buffer[5] << 8);
 80015b2:	7973      	ldrb	r3, [r6, #5]
 80015b4:	7932      	ldrb	r2, [r6, #4]
      int32_t torque = buffer[0] + (buffer[1] << 8) + (buffer[2] << 16) + (buffer[3] << 24);
 80015b6:	7871      	ldrb	r1, [r6, #1]
      uint16_t duration = buffer[4] + (buffer[5] << 8);
 80015b8:	021b      	lsls	r3, r3, #8
 80015ba:	18d2      	adds	r2, r2, r3
      int32_t torque = buffer[0] + (buffer[1] << 8) + (buffer[2] << 16) + (buffer[3] << 24);
 80015bc:	7833      	ldrb	r3, [r6, #0]
 80015be:	0209      	lsls	r1, r1, #8
 80015c0:	18c9      	adds	r1, r1, r3
      bNoError = UI_ExecTorqueRamp(&pHandle->_Super, torque,duration);
 80015c2:	0028      	movs	r0, r5
 80015c4:	b292      	uxth	r2, r2
 80015c6:	b209      	sxth	r1, r1
 80015c8:	f000 ffd4 	bl	8002574 <UI_ExecTorqueRamp>
 80015cc:	466b      	mov	r3, sp
 80015ce:	7258      	strb	r0, [r3, #9]
  if (RequireAck)
 80015d0:	e701      	b.n	80013d6 <MCP_ReceivedFrame+0x4e>
      for (i = 0; (i<32) && (pHandle->s_fwVer[i]!=0); i++)
 80015d2:	23a8      	movs	r3, #168	; 0xa8
        outBuff[i] = pHandle->s_fwVer[i];
 80015d4:	240f      	movs	r4, #15
      for (i = 0; (i<32) && (pHandle->s_fwVer[i]!=0); i++)
 80015d6:	58e8      	ldr	r0, [r5, r3]
 80015d8:	2201      	movs	r2, #1
 80015da:	3801      	subs	r0, #1
        outBuff[i] = pHandle->s_fwVer[i];
 80015dc:	446c      	add	r4, sp
 80015de:	e004      	b.n	80015ea <MCP_ReceivedFrame+0x262>
 80015e0:	54a1      	strb	r1, [r4, r2]
      for (i = 0; (i<32) && (pHandle->s_fwVer[i]!=0); i++)
 80015e2:	3201      	adds	r2, #1
 80015e4:	2a21      	cmp	r2, #33	; 0x21
 80015e6:	d100      	bne.n	80015ea <MCP_ReceivedFrame+0x262>
 80015e8:	e0d7      	b.n	800179a <MCP_ReceivedFrame+0x412>
 80015ea:	5c81      	ldrb	r1, [r0, r2]
 80015ec:	1e53      	subs	r3, r2, #1
 80015ee:	b2db      	uxtb	r3, r3
 80015f0:	2900      	cmp	r1, #0
 80015f2:	d1f5      	bne.n	80015e0 <MCP_ReceivedFrame+0x258>
        outBuff[i] = 0;
 80015f4:	2200      	movs	r2, #0
 80015f6:	ac04      	add	r4, sp, #16
 80015f8:	54e2      	strb	r2, [r4, r3]
      for (; i < 32; i++)
 80015fa:	3301      	adds	r3, #1
 80015fc:	b2db      	uxtb	r3, r3
 80015fe:	2b20      	cmp	r3, #32
 8001600:	d1fa      	bne.n	80015f8 <MCP_ReceivedFrame+0x270>
 8001602:	e71b      	b.n	800143c <MCP_ReceivedFrame+0xb4>
 8001604:	000b      	movs	r3, r1
 8001606:	3b46      	subs	r3, #70	; 0x46
 8001608:	b2db      	uxtb	r3, r3
 800160a:	2b1b      	cmp	r3, #27
 800160c:	d900      	bls.n	8001610 <MCP_ReceivedFrame+0x288>
 800160e:	e75b      	b.n	80014c8 <MCP_ReceivedFrame+0x140>
 8001610:	2201      	movs	r2, #1
 8001612:	409a      	lsls	r2, r3
 8001614:	0013      	movs	r3, r2
 8001616:	4a31      	ldr	r2, [pc, #196]	; (80016dc <MCP_ReceivedFrame+0x354>)
 8001618:	4213      	tst	r3, r2
 800161a:	d100      	bne.n	800161e <MCP_ReceivedFrame+0x296>
 800161c:	e0a2      	b.n	8001764 <MCP_ReceivedFrame+0x3dc>
          int32_t value = UI_GetReg( &pHandle->_Super, bRegID, &bNoError );
 800161e:	2309      	movs	r3, #9
 8001620:	446b      	add	r3, sp
 8001622:	001a      	movs	r2, r3
 8001624:	0028      	movs	r0, r5
 8001626:	f000 fe4f 	bl	80022c8 <UI_GetReg>
          if ( bNoError == true )
 800162a:	466b      	mov	r3, sp
 800162c:	7a5b      	ldrb	r3, [r3, #9]
          int32_t value = UI_GetReg( &pHandle->_Super, bRegID, &bNoError );
 800162e:	9004      	str	r0, [sp, #16]
          if ( bNoError == true )
 8001630:	2b00      	cmp	r3, #0
 8001632:	d100      	bne.n	8001636 <MCP_ReceivedFrame+0x2ae>
 8001634:	e6bb      	b.n	80013ae <MCP_ReceivedFrame+0x26>
            pHandle->fFcpSend(pHandle->pFCP, ACK_NOERROR, (uint8_t*)(&value), 2);
 8001636:	2302      	movs	r3, #2
 8001638:	21f0      	movs	r1, #240	; 0xf0
 800163a:	69a8      	ldr	r0, [r5, #24]
 800163c:	69ec      	ldr	r4, [r5, #28]
 800163e:	aa04      	add	r2, sp, #16
 8001640:	47a0      	blx	r4
  if (RequireAck)
 8001642:	e6ba      	b.n	80013ba <MCP_ReceivedFrame+0x32>
 8001644:	2985      	cmp	r1, #133	; 0x85
 8001646:	d85c      	bhi.n	8001702 <MCP_ReceivedFrame+0x37a>
 8001648:	2982      	cmp	r1, #130	; 0x82
 800164a:	d912      	bls.n	8001672 <MCP_ReceivedFrame+0x2ea>
          int32_t value = UI_GetReg( &pHandle->_Super, bRegID, &bNoError);
 800164c:	2309      	movs	r3, #9
 800164e:	446b      	add	r3, sp
 8001650:	001a      	movs	r2, r3
 8001652:	0028      	movs	r0, r5
 8001654:	f000 fe38 	bl	80022c8 <UI_GetReg>
          if ( bNoError == true )
 8001658:	466b      	mov	r3, sp
 800165a:	7a5b      	ldrb	r3, [r3, #9]
          int32_t value = UI_GetReg( &pHandle->_Super, bRegID, &bNoError);
 800165c:	9004      	str	r0, [sp, #16]
          if ( bNoError == true )
 800165e:	2b00      	cmp	r3, #0
 8001660:	d100      	bne.n	8001664 <MCP_ReceivedFrame+0x2dc>
 8001662:	e6a4      	b.n	80013ae <MCP_ReceivedFrame+0x26>
            pHandle->fFcpSend(pHandle->pFCP, ACK_NOERROR, (uint8_t*)(&value), 4);
 8001664:	2304      	movs	r3, #4
 8001666:	21f0      	movs	r1, #240	; 0xf0
 8001668:	69a8      	ldr	r0, [r5, #24]
 800166a:	69ec      	ldr	r4, [r5, #28]
 800166c:	aa04      	add	r2, sp, #16
 800166e:	47a0      	blx	r4
  if (RequireAck)
 8001670:	e6a3      	b.n	80013ba <MCP_ReceivedFrame+0x32>
 8001672:	2302      	movs	r3, #2
 8001674:	000a      	movs	r2, r1
 8001676:	439a      	bics	r2, r3
 8001678:	2a80      	cmp	r2, #128	; 0x80
 800167a:	d000      	beq.n	800167e <MCP_ReceivedFrame+0x2f6>
 800167c:	e724      	b.n	80014c8 <MCP_ReceivedFrame+0x140>
 800167e:	e057      	b.n	8001730 <MCP_ReceivedFrame+0x3a8>
 8001680:	2974      	cmp	r1, #116	; 0x74
 8001682:	d077      	beq.n	8001774 <MCP_ReceivedFrame+0x3ec>
 8001684:	d92c      	bls.n	80016e0 <MCP_ReceivedFrame+0x358>
 8001686:	297e      	cmp	r1, #126	; 0x7e
 8001688:	d815      	bhi.n	80016b6 <MCP_ReceivedFrame+0x32e>
 800168a:	297c      	cmp	r1, #124	; 0x7c
 800168c:	d803      	bhi.n	8001696 <MCP_ReceivedFrame+0x30e>
 800168e:	000b      	movs	r3, r1
 8001690:	3b75      	subs	r3, #117	; 0x75
 8001692:	2b04      	cmp	r3, #4
 8001694:	d830      	bhi.n	80016f8 <MCP_ReceivedFrame+0x370>
          int32_t wValue = buffer[1] + (buffer[2] << 8) + (buffer[3] << 16) + (buffer[4] << 24);
 8001696:	78b2      	ldrb	r2, [r6, #2]
 8001698:	7873      	ldrb	r3, [r6, #1]
 800169a:	0212      	lsls	r2, r2, #8
 800169c:	18d2      	adds	r2, r2, r3
 800169e:	78f3      	ldrb	r3, [r6, #3]
 80016a0:	041b      	lsls	r3, r3, #16
 80016a2:	18d2      	adds	r2, r2, r3
 80016a4:	7933      	ldrb	r3, [r6, #4]
 80016a6:	061b      	lsls	r3, r3, #24
 80016a8:	18d2      	adds	r2, r2, r3
          bNoError = UI_SetReg(&pHandle->_Super, bRegID, wValue);
 80016aa:	0028      	movs	r0, r5
 80016ac:	f000 fd7a 	bl	80021a4 <UI_SetReg>
 80016b0:	466b      	mov	r3, sp
 80016b2:	7258      	strb	r0, [r3, #9]
  if (RequireAck)
 80016b4:	e68f      	b.n	80013d6 <MCP_ReceivedFrame+0x4e>
 80016b6:	000b      	movs	r3, r1
 80016b8:	337a      	adds	r3, #122	; 0x7a
 80016ba:	b2db      	uxtb	r3, r3
 80016bc:	2b02      	cmp	r3, #2
 80016be:	d81b      	bhi.n	80016f8 <MCP_ReceivedFrame+0x370>
          int32_t wValue = buffer[1] + (buffer[2] << 8);
 80016c0:	78b2      	ldrb	r2, [r6, #2]
 80016c2:	7873      	ldrb	r3, [r6, #1]
 80016c4:	0212      	lsls	r2, r2, #8
 80016c6:	e7ef      	b.n	80016a8 <MCP_ReceivedFrame+0x320>
 80016c8:	08005f68 	.word	0x08005f68
 80016cc:	08005fb4 	.word	0x08005fb4
 80016d0:	08006000 	.word	0x08006000
 80016d4:	20000840 	.word	0x20000840
 80016d8:	08006108 	.word	0x08006108
 80016dc:	0f8ffe78 	.word	0x0f8ffe78
 80016e0:	000b      	movs	r3, r1
 80016e2:	3b4f      	subs	r3, #79	; 0x4f
 80016e4:	b2db      	uxtb	r3, r3
 80016e6:	2b16      	cmp	r3, #22
 80016e8:	d806      	bhi.n	80016f8 <MCP_ReceivedFrame+0x370>
 80016ea:	2201      	movs	r2, #1
 80016ec:	409a      	lsls	r2, r3
 80016ee:	482c      	ldr	r0, [pc, #176]	; (80017a0 <MCP_ReceivedFrame+0x418>)
 80016f0:	4202      	tst	r2, r0
 80016f2:	d1e5      	bne.n	80016c0 <MCP_ReceivedFrame+0x338>
 80016f4:	2b0c      	cmp	r3, #12
 80016f6:	d0ce      	beq.n	8001696 <MCP_ReceivedFrame+0x30e>
          bErrorCode = ERROR_CODE_SET_READ_ONLY;
 80016f8:	2302      	movs	r3, #2
 80016fa:	7023      	strb	r3, [r4, #0]
    if (bNoError)
 80016fc:	466b      	mov	r3, sp
 80016fe:	7a58      	ldrb	r0, [r3, #9]
 8001700:	e669      	b.n	80013d6 <MCP_ReceivedFrame+0x4e>
 8001702:	000b      	movs	r3, r1
 8001704:	337a      	adds	r3, #122	; 0x7a
 8001706:	b2db      	uxtb	r3, r3
 8001708:	2b02      	cmp	r3, #2
 800170a:	d900      	bls.n	800170e <MCP_ReceivedFrame+0x386>
 800170c:	e6dc      	b.n	80014c8 <MCP_ReceivedFrame+0x140>
 800170e:	e786      	b.n	800161e <MCP_ReceivedFrame+0x296>
 8001710:	000a      	movs	r2, r1
 8001712:	2301      	movs	r3, #1
 8001714:	3a64      	subs	r2, #100	; 0x64
 8001716:	b2d2      	uxtb	r2, r2
 8001718:	4093      	lsls	r3, r2
 800171a:	4a22      	ldr	r2, [pc, #136]	; (80017a4 <MCP_ReceivedFrame+0x41c>)
 800171c:	4213      	tst	r3, r2
 800171e:	d195      	bne.n	800164c <MCP_ReceivedFrame+0x2c4>
 8001720:	4a21      	ldr	r2, [pc, #132]	; (80017a8 <MCP_ReceivedFrame+0x420>)
 8001722:	4213      	tst	r3, r2
 8001724:	d000      	beq.n	8001728 <MCP_ReceivedFrame+0x3a0>
 8001726:	e77a      	b.n	800161e <MCP_ReceivedFrame+0x296>
 8001728:	4a20      	ldr	r2, [pc, #128]	; (80017ac <MCP_ReceivedFrame+0x424>)
 800172a:	4213      	tst	r3, r2
 800172c:	d100      	bne.n	8001730 <MCP_ReceivedFrame+0x3a8>
 800172e:	e6cb      	b.n	80014c8 <MCP_ReceivedFrame+0x140>
          int32_t value = UI_GetReg( &pHandle->_Super, bRegID, &bNoError );
 8001730:	2309      	movs	r3, #9
 8001732:	446b      	add	r3, sp
 8001734:	001a      	movs	r2, r3
 8001736:	0028      	movs	r0, r5
 8001738:	f000 fdc6 	bl	80022c8 <UI_GetReg>
           if ( bNoError == true )
 800173c:	466b      	mov	r3, sp
 800173e:	7a5b      	ldrb	r3, [r3, #9]
          int32_t value = UI_GetReg( &pHandle->_Super, bRegID, &bNoError );
 8001740:	9004      	str	r0, [sp, #16]
           if ( bNoError == true )
 8001742:	2b00      	cmp	r3, #0
 8001744:	d100      	bne.n	8001748 <MCP_ReceivedFrame+0x3c0>
 8001746:	e632      	b.n	80013ae <MCP_ReceivedFrame+0x26>
            pHandle->fFcpSend(pHandle->pFCP, ACK_NOERROR, (uint8_t*)(&value), 1);
 8001748:	2301      	movs	r3, #1
 800174a:	21f0      	movs	r1, #240	; 0xf0
 800174c:	69a8      	ldr	r0, [r5, #24]
 800174e:	69ec      	ldr	r4, [r5, #28]
 8001750:	aa04      	add	r2, sp, #16
 8001752:	47a0      	blx	r4
  if (RequireAck)
 8001754:	e631      	b.n	80013ba <MCP_ReceivedFrame+0x32>
    if (bNoError)
 8001756:	466b      	mov	r3, sp
      bErrorCode = ERROR_BAD_FRAME_ID;
 8001758:	240e      	movs	r4, #14
    if (bNoError)
 800175a:	7a58      	ldrb	r0, [r3, #9]
      bErrorCode = ERROR_BAD_FRAME_ID;
 800175c:	2301      	movs	r3, #1
 800175e:	446c      	add	r4, sp
 8001760:	7023      	strb	r3, [r4, #0]
  if (RequireAck)
 8001762:	e638      	b.n	80013d6 <MCP_ReceivedFrame+0x4e>
 8001764:	4a12      	ldr	r2, [pc, #72]	; (80017b0 <MCP_ReceivedFrame+0x428>)
 8001766:	4213      	tst	r3, r2
 8001768:	d000      	beq.n	800176c <MCP_ReceivedFrame+0x3e4>
 800176a:	e76f      	b.n	800164c <MCP_ReceivedFrame+0x2c4>
 800176c:	4a11      	ldr	r2, [pc, #68]	; (80017b4 <MCP_ReceivedFrame+0x42c>)
 800176e:	4213      	tst	r3, r2
 8001770:	d1de      	bne.n	8001730 <MCP_ReceivedFrame+0x3a8>
 8001772:	e6a9      	b.n	80014c8 <MCP_ReceivedFrame+0x140>
          bNoError = UI_SetReg(&pHandle->_Super, bRegID, (int32_t)(buffer[1]));
 8001774:	0028      	movs	r0, r5
 8001776:	7872      	ldrb	r2, [r6, #1]
 8001778:	f000 fd14 	bl	80021a4 <UI_SetReg>
 800177c:	466b      	mov	r3, sp
 800177e:	7258      	strb	r0, [r3, #9]
  if (RequireAck)
 8001780:	e629      	b.n	80013d6 <MCP_ReceivedFrame+0x4e>
          bNoError = UI_SetReg(&pHandle->_Super, bRegID, wValue);
 8001782:	2100      	movs	r1, #0
 8001784:	0028      	movs	r0, r5
          int32_t wValue = (int32_t)(buffer[1]);
 8001786:	7872      	ldrb	r2, [r6, #1]
          bNoError = UI_SetReg(&pHandle->_Super, bRegID, wValue);
 8001788:	f000 fd0c 	bl	80021a4 <UI_SetReg>
 800178c:	466b      	mov	r3, sp
 800178e:	7258      	strb	r0, [r3, #9]
  if (RequireAck)
 8001790:	e621      	b.n	80013d6 <MCP_ReceivedFrame+0x4e>
 8001792:	2326      	movs	r3, #38	; 0x26
 8001794:	2124      	movs	r1, #36	; 0x24
 8001796:	2222      	movs	r2, #34	; 0x22
 8001798:	e64a      	b.n	8001430 <MCP_ReceivedFrame+0xa8>
 800179a:	ac04      	add	r4, sp, #16
      pHandle->fFcpSend(pHandle->pFCP, ACK_NOERROR, outBuff, 32 );
 800179c:	e64e      	b.n	800143c <MCP_ReceivedFrame+0xb4>
 800179e:	46c0      	nop			; (mov r8, r8)
 80017a0:	006407f1 	.word	0x006407f1
 80017a4:	0ffe11f0 	.word	0x0ffe11f0
 80017a8:	0000cc03 	.word	0x0000cc03
 80017ac:	0001020c 	.word	0x0001020c
 80017b0:	00200107 	.word	0x00200107
 80017b4:	00100080 	.word	0x00100080

080017b8 <MCP_WaitNextFrame>:
{
 80017b8:	b510      	push	{r4, lr}
 80017ba:	0004      	movs	r4, r0
  pHandle->fFcpAbortReceive(pHandle->pFCP);
 80017bc:	6a63      	ldr	r3, [r4, #36]	; 0x24
 80017be:	6980      	ldr	r0, [r0, #24]
 80017c0:	4798      	blx	r3
  pHandle->BufferSize = FCP_MAX_PAYLOAD_SIZE;
 80017c2:	2280      	movs	r2, #128	; 0x80
 80017c4:	23ac      	movs	r3, #172	; 0xac
 80017c6:	54e2      	strb	r2, [r4, r3]
  pHandle->fFcpReceive(pHandle->pFCP);
 80017c8:	69a0      	ldr	r0, [r4, #24]
 80017ca:	6a23      	ldr	r3, [r4, #32]
 80017cc:	4798      	blx	r3
}
 80017ce:	bd10      	pop	{r4, pc}

080017d0 <MCP_Init>:
{
 80017d0:	b570      	push	{r4, r5, r6, lr}
 80017d2:	0004      	movs	r4, r0
 80017d4:	001d      	movs	r5, r3
  pHandle->s_fwVer = s_fwVer;
 80017d6:	23a8      	movs	r3, #168	; 0xa8
{
 80017d8:	0016      	movs	r6, r2
 80017da:	b082      	sub	sp, #8
  pHandle->s_fwVer = s_fwVer;
 80017dc:	9a07      	ldr	r2, [sp, #28]
  pHandle->pFCP = pFCP;
 80017de:	61a1      	str	r1, [r4, #24]
{
 80017e0:	0008      	movs	r0, r1
  FCP_SetClient( pFCP, pHandle,
 80017e2:	4908      	ldr	r1, [pc, #32]	; (8001804 <MCP_Init+0x34>)
  pHandle->s_fwVer = s_fwVer;
 80017e4:	50e2      	str	r2, [r4, r3]
  FCP_SetClient( pFCP, pHandle,
 80017e6:	9100      	str	r1, [sp, #0]
 80017e8:	4a07      	ldr	r2, [pc, #28]	; (8001808 <MCP_Init+0x38>)
 80017ea:	0021      	movs	r1, r4
 80017ec:	4b07      	ldr	r3, [pc, #28]	; (800180c <MCP_Init+0x3c>)
 80017ee:	f002 fca1 	bl	8004134 <FCP_SetClient>
  pHandle->fFcpAbortReceive = fFcpAbortReceive;
 80017f2:	9b06      	ldr	r3, [sp, #24]
  MCP_WaitNextFrame(pHandle);
 80017f4:	0020      	movs	r0, r4
  pHandle->fFcpSend = fFcpSend;
 80017f6:	61e6      	str	r6, [r4, #28]
  pHandle->fFcpReceive = fFcpReceive;
 80017f8:	6225      	str	r5, [r4, #32]
  pHandle->fFcpAbortReceive = fFcpAbortReceive;
 80017fa:	6263      	str	r3, [r4, #36]	; 0x24
  MCP_WaitNextFrame(pHandle);
 80017fc:	f7ff ffdc 	bl	80017b8 <MCP_WaitNextFrame>
}
 8001800:	b002      	add	sp, #8
 8001802:	bd70      	pop	{r4, r5, r6, pc}
 8001804:	08001811 	.word	0x08001811
 8001808:	08001819 	.word	0x08001819
 800180c:	08001389 	.word	0x08001389

08001810 <MCP_OnTimeOut>:
{
 8001810:	b510      	push	{r4, lr}
     MCP_WaitNextFrame(pHandle);
 8001812:	f7ff ffd1 	bl	80017b8 <MCP_WaitNextFrame>
}
 8001816:	bd10      	pop	{r4, pc}

08001818 <MCP_SentFrame>:
{
 8001818:	b510      	push	{r4, lr}
    MCP_WaitNextFrame(pHandle);
 800181a:	f7ff ffcd 	bl	80017b8 <MCP_WaitNextFrame>
}
 800181e:	bd10      	pop	{r4, pc}

08001820 <MX_MotorControl_Init>:
 *
 * CubeMX calls this function after all peripherals initializations and
 * before the NVIC is configured
 */
__weak void MX_MotorControl_Init(void)
{
 8001820:	b530      	push	{r4, r5, lr}
 8001822:	b083      	sub	sp, #12
  /* Reconfigure the SysTick interrupt to fire every 500 us. */
  HAL_SYSTICK_Config(HAL_RCC_GetHCLKFreq()/SYS_TICK_FREQUENCY);
 8001824:	f001 fd70 	bl	8003308 <HAL_RCC_GetHCLKFreq>
 8001828:	21fa      	movs	r1, #250	; 0xfa
 800182a:	00c9      	lsls	r1, r1, #3
 800182c:	f7fe fc6c 	bl	8000108 <__udivsi3>
 8001830:	f001 f8b8 	bl	80029a4 <HAL_SYSTICK_Config>
  /* Initialize the Motor Control Subsystem */
  MCboot(pMCI,pMCT);
 8001834:	4d08      	ldr	r5, [pc, #32]	; (8001858 <MX_MotorControl_Init+0x38>)
 8001836:	4c09      	ldr	r4, [pc, #36]	; (800185c <MX_MotorControl_Init+0x3c>)
 8001838:	0029      	movs	r1, r5
 800183a:	0020      	movs	r0, r4
 800183c:	f7ff fa46 	bl	8000ccc <MCboot>
  mc_lock_pins();
 8001840:	f7ff fd22 	bl	8001288 <mc_lock_pins>

  /* Initialize the MC User Interface */
  UI_TaskInit(wConfig,NBR_OF_MOTORS,pMCI,pMCT,s_fwVer);
 8001844:	4b06      	ldr	r3, [pc, #24]	; (8001860 <MX_MotorControl_Init+0x40>)
 8001846:	0022      	movs	r2, r4
 8001848:	9300      	str	r3, [sp, #0]
 800184a:	2101      	movs	r1, #1
 800184c:	002b      	movs	r3, r5
 800184e:	4805      	ldr	r0, [pc, #20]	; (8001864 <MX_MotorControl_Init+0x44>)
 8001850:	f000 fc1e 	bl	8002090 <UI_TaskInit>
}
 8001854:	b003      	add	sp, #12
 8001856:	bd30      	pop	{r4, r5, pc}
 8001858:	2000084c 	.word	0x2000084c
 800185c:	20000848 	.word	0x20000848
 8001860:	0800622c 	.word	0x0800622c
 8001864:	2000058c 	.word	0x2000058c

08001868 <RCM_RegisterRegConv>:
  *         Contains ADC, Channel and sampling time to be used.
  *
  *  @retval the handle of the registered conversion or 255 if the registration failed
  */
uint8_t RCM_RegisterRegConv(RegConv_t * regConv)
{
 8001868:	b570      	push	{r4, r5, r6, lr}

    /* Parse the array to be sure that same
     * conversion does not already exist*/
    while (i < RCM_MAX_CONV)
    {
      if (  RCM_handle_array [i] == 0 && handle > RCM_MAX_CONV)
 800186a:	4d56      	ldr	r5, [pc, #344]	; (80019c4 <RCM_RegisterRegConv+0x15c>)
{
 800186c:	0003      	movs	r3, r0
      if (  RCM_handle_array [i] == 0 && handle > RCM_MAX_CONV)
 800186e:	6829      	ldr	r1, [r5, #0]
 8001870:	2900      	cmp	r1, #0
 8001872:	d02a      	beq.n	80018ca <RCM_RegisterRegConv+0x62>
        handle = i; /* First location available, but still looping to check that this config does not already exist*/
      }
      /* Ticket 64042 : If RCM_handle_array [i] is null access to data member will cause Memory Fault. */
      if (  RCM_handle_array [i] != 0 )
      {
        if ((RCM_handle_array [i]->channel == regConv->channel) &&
 8001874:	7902      	ldrb	r2, [r0, #4]
 8001876:	7908      	ldrb	r0, [r1, #4]
 8001878:	4282      	cmp	r2, r0
 800187a:	d01a      	beq.n	80018b2 <RCM_RegisterRegConv+0x4a>
      if (  RCM_handle_array [i] == 0 && handle > RCM_MAX_CONV)
 800187c:	6869      	ldr	r1, [r5, #4]
 800187e:	2900      	cmp	r1, #0
 8001880:	d034      	beq.n	80018ec <RCM_RegisterRegConv+0x84>
        if ((RCM_handle_array [i]->channel == regConv->channel) &&
 8001882:	790c      	ldrb	r4, [r1, #4]
  uint8_t handle=255;
 8001884:	20ff      	movs	r0, #255	; 0xff
        if ((RCM_handle_array [i]->channel == regConv->channel) &&
 8001886:	4294      	cmp	r4, r2
 8001888:	d027      	beq.n	80018da <RCM_RegisterRegConv+0x72>
      if (  RCM_handle_array [i] == 0 && handle > RCM_MAX_CONV)
 800188a:	68a9      	ldr	r1, [r5, #8]
 800188c:	2900      	cmp	r1, #0
 800188e:	d066      	beq.n	800195e <RCM_RegisterRegConv+0xf6>
        if ((RCM_handle_array [i]->channel == regConv->channel) &&
 8001890:	790c      	ldrb	r4, [r1, #4]
 8001892:	4294      	cmp	r4, r2
 8001894:	d032      	beq.n	80018fc <RCM_RegisterRegConv+0x94>
      if (  RCM_handle_array [i] == 0 && handle > RCM_MAX_CONV)
 8001896:	68e9      	ldr	r1, [r5, #12]
 8001898:	2900      	cmp	r1, #0
 800189a:	d100      	bne.n	800189e <RCM_RegisterRegConv+0x36>
 800189c:	e06c      	b.n	8001978 <RCM_RegisterRegConv+0x110>
        if ((RCM_handle_array [i]->channel == regConv->channel) &&
 800189e:	790c      	ldrb	r4, [r1, #4]
 80018a0:	4294      	cmp	r4, r2
 80018a2:	d100      	bne.n	80018a6 <RCM_RegisterRegConv+0x3e>
 80018a4:	e06f      	b.n	8001986 <RCM_RegisterRegConv+0x11e>
    while (i < RCM_MAX_CONV)
 80018a6:	0201      	lsls	r1, r0, #8
 80018a8:	4301      	orrs	r1, r0
           i = RCM_MAX_CONV; /* we can skip the rest of the loop*/
          }
      }
      i++;
    }
    if (handle < RCM_MAX_CONV )
 80018aa:	2803      	cmp	r0, #3
 80018ac:	d962      	bls.n	8001974 <RCM_RegisterRegConv+0x10c>
 80018ae:	20ff      	movs	r0, #255	; 0xff
    else
    {
      /* Nothing to do handle is already set to error value : 255 */
    }
  return handle;
}
 80018b0:	bd70      	pop	{r4, r5, r6, pc}
        if ((RCM_handle_array [i]->channel == regConv->channel) &&
 80018b2:	6809      	ldr	r1, [r1, #0]
 80018b4:	681c      	ldr	r4, [r3, #0]
 80018b6:	42a1      	cmp	r1, r4
 80018b8:	d028      	beq.n	800190c <RCM_RegisterRegConv+0xa4>
      if (  RCM_handle_array [i] == 0 && handle > RCM_MAX_CONV)
 80018ba:	6869      	ldr	r1, [r5, #4]
 80018bc:	2900      	cmp	r1, #0
 80018be:	d1e0      	bne.n	8001882 <RCM_RegisterRegConv+0x1a>
 80018c0:	68a9      	ldr	r1, [r5, #8]
 80018c2:	2900      	cmp	r1, #0
 80018c4:	d071      	beq.n	80019aa <RCM_RegisterRegConv+0x142>
      i++;
 80018c6:	2001      	movs	r0, #1
 80018c8:	e7e2      	b.n	8001890 <RCM_RegisterRegConv+0x28>
      if (  RCM_handle_array [i] == 0 && handle > RCM_MAX_CONV)
 80018ca:	6869      	ldr	r1, [r5, #4]
  uint8_t i=0;
 80018cc:	2000      	movs	r0, #0
      if (  RCM_handle_array [i] == 0 && handle > RCM_MAX_CONV)
 80018ce:	2900      	cmp	r1, #0
 80018d0:	d00d      	beq.n	80018ee <RCM_RegisterRegConv+0x86>
 80018d2:	791a      	ldrb	r2, [r3, #4]
        if ((RCM_handle_array [i]->channel == regConv->channel) &&
 80018d4:	790c      	ldrb	r4, [r1, #4]
 80018d6:	4294      	cmp	r4, r2
 80018d8:	d1d7      	bne.n	800188a <RCM_RegisterRegConv+0x22>
 80018da:	6809      	ldr	r1, [r1, #0]
 80018dc:	681c      	ldr	r4, [r3, #0]
 80018de:	42a1      	cmp	r1, r4
 80018e0:	d1d3      	bne.n	800188a <RCM_RegisterRegConv+0x22>
 80018e2:	2202      	movs	r2, #2
 80018e4:	32ff      	adds	r2, #255	; 0xff
      i++;
 80018e6:	2001      	movs	r0, #1
        if ((RCM_handle_array [i]->channel == regConv->channel) &&
 80018e8:	1c11      	adds	r1, r2, #0
 80018ea:	e011      	b.n	8001910 <RCM_RegisterRegConv+0xa8>
      i++;
 80018ec:	2001      	movs	r0, #1
      if (  RCM_handle_array [i] == 0 && handle > RCM_MAX_CONV)
 80018ee:	68a9      	ldr	r1, [r5, #8]
 80018f0:	2900      	cmp	r1, #0
 80018f2:	d02f      	beq.n	8001954 <RCM_RegisterRegConv+0xec>
 80018f4:	791a      	ldrb	r2, [r3, #4]
        if ((RCM_handle_array [i]->channel == regConv->channel) &&
 80018f6:	790c      	ldrb	r4, [r1, #4]
 80018f8:	4294      	cmp	r4, r2
 80018fa:	d1cc      	bne.n	8001896 <RCM_RegisterRegConv+0x2e>
 80018fc:	6809      	ldr	r1, [r1, #0]
 80018fe:	681c      	ldr	r4, [r3, #0]
 8001900:	42a1      	cmp	r1, r4
 8001902:	d1c8      	bne.n	8001896 <RCM_RegisterRegConv+0x2e>
 8001904:	4a30      	ldr	r2, [pc, #192]	; (80019c8 <RCM_RegisterRegConv+0x160>)
      i++;
 8001906:	2002      	movs	r0, #2
        if ((RCM_handle_array [i]->channel == regConv->channel) &&
 8001908:	1c11      	adds	r1, r2, #0
 800190a:	e001      	b.n	8001910 <RCM_RegisterRegConv+0xa8>
 800190c:	2100      	movs	r1, #0
  uint8_t i=0;
 800190e:	2000      	movs	r0, #0
      RCM_handle_array [handle] = regConv;
 8001910:	0082      	lsls	r2, r0, #2
 8001912:	50ab      	str	r3, [r5, r2]
      RCM_CB_array [handle].cb = NULL; /* if a previous callback was attached, it is cleared*/
 8001914:	2500      	movs	r5, #0
 8001916:	4b2d      	ldr	r3, [pc, #180]	; (80019cc <RCM_RegisterRegConv+0x164>)
 8001918:	00c2      	lsls	r2, r0, #3
 800191a:	50d5      	str	r5, [r2, r3]
  * @param  ADCx ADC instance
  * @retval 0: ADC is disabled, 1: ADC is enabled.
  */
__STATIC_INLINE uint32_t LL_ADC_IsEnabled(ADC_TypeDef *ADCx)
{
  return (READ_BIT(ADCx->CR, ADC_CR_ADEN) == (ADC_CR_ADEN));
 800191c:	68a3      	ldr	r3, [r4, #8]
      if (LL_ADC_IsEnabled(regConv->regADC) == 0 )
 800191e:	07db      	lsls	r3, r3, #31
 8001920:	d40e      	bmi.n	8001940 <RCM_RegisterRegConv+0xd8>
__STATIC_INLINE void LL_ADC_StartCalibration(ADC_TypeDef *ADCx)
{
  /* Note: Write register with some additional bits forced to state reset     */
  /*       instead of modifying only the selected bit for this function,      */
  /*       to not interfere with bits with HW property "rs".                  */
  MODIFY_REG(ADCx->CR,
 8001922:	68a2      	ldr	r2, [r4, #8]
 8001924:	4b2a      	ldr	r3, [pc, #168]	; (80019d0 <RCM_RegisterRegConv+0x168>)
 8001926:	401a      	ands	r2, r3
 8001928:	3318      	adds	r3, #24
 800192a:	4313      	orrs	r3, r2
 800192c:	60a3      	str	r3, [r4, #8]
  * @param  ADCx ADC instance
  * @retval 0: calibration complete, 1: calibration in progress.
  */
__STATIC_INLINE uint32_t LL_ADC_IsCalibrationOnGoing(ADC_TypeDef *ADCx)
{
  return (READ_BIT(ADCx->CR, ADC_CR_ADCAL) == (ADC_CR_ADCAL));
 800192e:	68a3      	ldr	r3, [r4, #8]
        while ( LL_ADC_IsCalibrationOnGoing( regConv->regADC ) )
 8001930:	2b00      	cmp	r3, #0
 8001932:	dbfc      	blt.n	800192e <RCM_RegisterRegConv+0xc6>
  MODIFY_REG(ADCx->CR,
 8001934:	68a3      	ldr	r3, [r4, #8]
 8001936:	4a26      	ldr	r2, [pc, #152]	; (80019d0 <RCM_RegisterRegConv+0x168>)
 8001938:	4013      	ands	r3, r2
 800193a:	2201      	movs	r2, #1
 800193c:	4313      	orrs	r3, r2
 800193e:	60a3      	str	r3, [r4, #8]
      RCM_NoInj_array [handle].enable = false;
 8001940:	2400      	movs	r4, #0
 8001942:	0042      	lsls	r2, r0, #1
 8001944:	4b23      	ldr	r3, [pc, #140]	; (80019d4 <RCM_RegisterRegConv+0x16c>)
 8001946:	1812      	adds	r2, r2, r0
 8001948:	0052      	lsls	r2, r2, #1
 800194a:	54d4      	strb	r4, [r2, r3]
      RCM_NoInj_array [handle].prev = handle;
 800194c:	189b      	adds	r3, r3, r2
 800194e:	8099      	strh	r1, [r3, #4]
 8001950:	e7ae      	b.n	80018b0 <RCM_RegisterRegConv+0x48>
      if (  RCM_handle_array [i] == 0 && handle > RCM_MAX_CONV)
 8001952:	2000      	movs	r0, #0
 8001954:	68e9      	ldr	r1, [r5, #12]
 8001956:	2900      	cmp	r1, #0
 8001958:	d01e      	beq.n	8001998 <RCM_RegisterRegConv+0x130>
 800195a:	791a      	ldrb	r2, [r3, #4]
 800195c:	e79f      	b.n	800189e <RCM_RegisterRegConv+0x36>
 800195e:	2804      	cmp	r0, #4
 8001960:	d9f7      	bls.n	8001952 <RCM_RegisterRegConv+0xea>
 8001962:	68e9      	ldr	r1, [r5, #12]
 8001964:	2900      	cmp	r1, #0
 8001966:	d002      	beq.n	800196e <RCM_RegisterRegConv+0x106>
        if ((RCM_handle_array [i]->channel == regConv->channel) &&
 8001968:	7908      	ldrb	r0, [r1, #4]
 800196a:	4282      	cmp	r2, r0
 800196c:	d018      	beq.n	80019a0 <RCM_RegisterRegConv+0x138>
      i++;
 800196e:	2002      	movs	r0, #2
      if (  RCM_handle_array [i] == 0 && handle > RCM_MAX_CONV)
 8001970:	4a15      	ldr	r2, [pc, #84]	; (80019c8 <RCM_RegisterRegConv+0x160>)
 8001972:	1c11      	adds	r1, r2, #0
 8001974:	681c      	ldr	r4, [r3, #0]
 8001976:	e7cb      	b.n	8001910 <RCM_RegisterRegConv+0xa8>
 8001978:	2804      	cmp	r0, #4
 800197a:	d90d      	bls.n	8001998 <RCM_RegisterRegConv+0x130>
 800197c:	4a16      	ldr	r2, [pc, #88]	; (80019d8 <RCM_RegisterRegConv+0x170>)
      i++;
 800197e:	2003      	movs	r0, #3
 8001980:	681c      	ldr	r4, [r3, #0]
 8001982:	1c11      	adds	r1, r2, #0
 8001984:	e7c4      	b.n	8001910 <RCM_RegisterRegConv+0xa8>
 8001986:	681c      	ldr	r4, [r3, #0]
        if ((RCM_handle_array [i]->channel == regConv->channel) &&
 8001988:	680a      	ldr	r2, [r1, #0]
 800198a:	42a2      	cmp	r2, r4
 800198c:	d000      	beq.n	8001990 <RCM_RegisterRegConv+0x128>
 800198e:	e78a      	b.n	80018a6 <RCM_RegisterRegConv+0x3e>
 8001990:	4a11      	ldr	r2, [pc, #68]	; (80019d8 <RCM_RegisterRegConv+0x170>)
      i++;
 8001992:	2003      	movs	r0, #3
        if ((RCM_handle_array [i]->channel == regConv->channel) &&
 8001994:	1c11      	adds	r1, r2, #0
 8001996:	e7bb      	b.n	8001910 <RCM_RegisterRegConv+0xa8>
 8001998:	681c      	ldr	r4, [r3, #0]
    while (i < RCM_MAX_CONV)
 800199a:	0201      	lsls	r1, r0, #8
 800199c:	4301      	orrs	r1, r0
    if (handle < RCM_MAX_CONV )
 800199e:	e7b7      	b.n	8001910 <RCM_RegisterRegConv+0xa8>
        if ((RCM_handle_array [i]->channel == regConv->channel) &&
 80019a0:	680a      	ldr	r2, [r1, #0]
 80019a2:	681c      	ldr	r4, [r3, #0]
 80019a4:	42a2      	cmp	r2, r4
 80019a6:	d0f3      	beq.n	8001990 <RCM_RegisterRegConv+0x128>
 80019a8:	e7ac      	b.n	8001904 <RCM_RegisterRegConv+0x9c>
      if (  RCM_handle_array [i] == 0 && handle > RCM_MAX_CONV)
 80019aa:	68e9      	ldr	r1, [r5, #12]
 80019ac:	2900      	cmp	r1, #0
 80019ae:	d007      	beq.n	80019c0 <RCM_RegisterRegConv+0x158>
        if ((RCM_handle_array [i]->channel == regConv->channel) &&
 80019b0:	790e      	ldrb	r6, [r1, #4]
      i++;
 80019b2:	2001      	movs	r0, #1
        if ((RCM_handle_array [i]->channel == regConv->channel) &&
 80019b4:	4296      	cmp	r6, r2
 80019b6:	d0e7      	beq.n	8001988 <RCM_RegisterRegConv+0x120>
 80019b8:	2202      	movs	r2, #2
 80019ba:	32ff      	adds	r2, #255	; 0xff
 80019bc:	1c11      	adds	r1, r2, #0
 80019be:	e7a7      	b.n	8001910 <RCM_RegisterRegConv+0xa8>
      i++;
 80019c0:	2001      	movs	r0, #1
 80019c2:	e7ea      	b.n	800199a <RCM_RegisterRegConv+0x132>
 80019c4:	20000890 	.word	0x20000890
 80019c8:	00000202 	.word	0x00000202
 80019cc:	20000850 	.word	0x20000850
 80019d0:	7fffffe8 	.word	0x7fffffe8
 80019d4:	20000870 	.word	0x20000870
 80019d8:	00000303 	.word	0x00000303

080019dc <RCM_ExecRegularConv>:
  uint16_t retVal;
  uint8_t formerNext;
  uint8_t i=0;
  uint8_t LastEnable = RCM_MAX_CONV;

  if (RCM_NoInj_array [handle].enable == false)
 80019dc:	0041      	lsls	r1, r0, #1
 80019de:	4b5a      	ldr	r3, [pc, #360]	; (8001b48 <RCM_ExecRegularConv+0x16c>)
 80019e0:	180a      	adds	r2, r1, r0
 80019e2:	0052      	lsls	r2, r2, #1
 80019e4:	5c9a      	ldrb	r2, [r3, r2]
{
 80019e6:	b5f0      	push	{r4, r5, r6, r7, lr}
  if (RCM_NoInj_array [handle].enable == false)
 80019e8:	2a00      	cmp	r2, #0
 80019ea:	d142      	bne.n	8001a72 <RCM_ExecRegularConv+0x96>
  {
    /* find position in the list */
    while (i < RCM_MAX_CONV)
    {
      if (RCM_NoInj_array [i].enable == true)
 80019ec:	781a      	ldrb	r2, [r3, #0]
 80019ee:	2a00      	cmp	r2, #0
 80019f0:	d11c      	bne.n	8001a2c <RCM_ExecRegularConv+0x50>
  uint8_t LastEnable = RCM_MAX_CONV;
 80019f2:	2504      	movs	r5, #4
      if (RCM_NoInj_array [i].enable == true)
 80019f4:	799a      	ldrb	r2, [r3, #6]
 80019f6:	2a00      	cmp	r2, #0
 80019f8:	d100      	bne.n	80019fc <RCM_ExecRegularConv+0x20>
 80019fa:	e07a      	b.n	8001af2 <RCM_ExecRegularConv+0x116>
      {
        if (RCM_NoInj_array [i].next > handle)
 80019fc:	7add      	ldrb	r5, [r3, #11]
 80019fe:	42a8      	cmp	r0, r5
 8001a00:	d200      	bcs.n	8001a04 <RCM_ExecRegularConv+0x28>
 8001a02:	e094      	b.n	8001b2e <RCM_ExecRegularConv+0x152>
      if (RCM_NoInj_array [i].enable == true)
 8001a04:	7b1a      	ldrb	r2, [r3, #12]
 8001a06:	2a00      	cmp	r2, #0
 8001a08:	d100      	bne.n	8001a0c <RCM_ExecRegularConv+0x30>
 8001a0a:	e093      	b.n	8001b34 <RCM_ExecRegularConv+0x158>
        if (RCM_NoInj_array [i].next > handle)
 8001a0c:	7c5d      	ldrb	r5, [r3, #17]
 8001a0e:	42a8      	cmp	r0, r5
 8001a10:	d200      	bcs.n	8001a14 <RCM_ExecRegularConv+0x38>
 8001a12:	e094      	b.n	8001b3e <RCM_ExecRegularConv+0x162>
      if (RCM_NoInj_array [i].enable == true)
 8001a14:	7c9a      	ldrb	r2, [r3, #18]
        }
      }
      else
      { /* nothing to do */
      }
      i++;
 8001a16:	2502      	movs	r5, #2
      if (RCM_NoInj_array [i].enable == true)
 8001a18:	2a00      	cmp	r2, #0
 8001a1a:	d100      	bne.n	8001a1e <RCM_ExecRegularConv+0x42>
 8001a1c:	e073      	b.n	8001b06 <RCM_ExecRegularConv+0x12a>
        if (RCM_NoInj_array [i].next > handle)
 8001a1e:	7ddd      	ldrb	r5, [r3, #23]
 8001a20:	4285      	cmp	r5, r0
 8001a22:	d800      	bhi.n	8001a26 <RCM_ExecRegularConv+0x4a>
 8001a24:	e08e      	b.n	8001b44 <RCM_ExecRegularConv+0x168>
      i++;
 8001a26:	2603      	movs	r6, #3
      if (RCM_NoInj_array [i].enable == true)
 8001a28:	2403      	movs	r4, #3
 8001a2a:	e005      	b.n	8001a38 <RCM_ExecRegularConv+0x5c>
        if (RCM_NoInj_array [i].next > handle)
 8001a2c:	795d      	ldrb	r5, [r3, #5]
 8001a2e:	42a8      	cmp	r0, r5
 8001a30:	d300      	bcc.n	8001a34 <RCM_ExecRegularConv+0x58>
 8001a32:	e076      	b.n	8001b22 <RCM_ExecRegularConv+0x146>
  uint8_t i=0;
 8001a34:	2600      	movs	r6, #0
      if (RCM_NoInj_array [i].enable == true)
 8001a36:	2400      	movs	r4, #0
          RCM_NoInj_array [handle].next = formerNext;
 8001a38:	180a      	adds	r2, r1, r0
 8001a3a:	0052      	lsls	r2, r2, #1
 8001a3c:	189a      	adds	r2, r3, r2
 8001a3e:	7155      	strb	r5, [r2, #5]
          RCM_NoInj_array [handle].prev = i;
 8001a40:	7116      	strb	r6, [r2, #4]
          RCM_NoInj_array [i].next = handle;
 8001a42:	0062      	lsls	r2, r4, #1
 8001a44:	1912      	adds	r2, r2, r4
 8001a46:	0052      	lsls	r2, r2, #1
 8001a48:	189a      	adds	r2, r3, r2
 8001a4a:	7150      	strb	r0, [r2, #5]
          RCM_NoInj_array [formerNext].prev = handle;
 8001a4c:	006a      	lsls	r2, r5, #1
 8001a4e:	1952      	adds	r2, r2, r5
       {
         formerNext = RCM_NoInj_array [LastEnable].next;
         RCM_NoInj_array [handle].next = formerNext;
         RCM_NoInj_array [handle].prev = LastEnable;
         RCM_NoInj_array [LastEnable].next = handle;
         RCM_NoInj_array [formerNext].prev = handle;
 8001a50:	0052      	lsls	r2, r2, #1
 8001a52:	189a      	adds	r2, r3, r2
 8001a54:	7110      	strb	r0, [r2, #4]
      }
    }
    /* The handle is now linked with others, we can set the enable flag */
    RCM_NoInj_array [handle].enable = true;
    RCM_NoInj_array [handle].status = notvalid;
    if (RCM_NoInj_array[RCM_currentHandle].status != ongoing )
 8001a56:	4a3d      	ldr	r2, [pc, #244]	; (8001b4c <RCM_ExecRegularConv+0x170>)
 8001a58:	7815      	ldrb	r5, [r2, #0]
    RCM_NoInj_array [handle].enable = true;
 8001a5a:	2601      	movs	r6, #1
 8001a5c:	180c      	adds	r4, r1, r0
 8001a5e:	0064      	lsls	r4, r4, #1
 8001a60:	531e      	strh	r6, [r3, r4]
    if (RCM_NoInj_array[RCM_currentHandle].status != ongoing )
 8001a62:	006c      	lsls	r4, r5, #1
 8001a64:	1964      	adds	r4, r4, r5
 8001a66:	0064      	lsls	r4, r4, #1
 8001a68:	191c      	adds	r4, r3, r4
 8001a6a:	7864      	ldrb	r4, [r4, #1]
 8001a6c:	2c01      	cmp	r4, #1
 8001a6e:	d000      	beq.n	8001a72 <RCM_ExecRegularConv+0x96>
    {/* select the new conversion to be the next scheduled only if a conversion is not ongoing*/
      RCM_currentHandle = handle;
 8001a70:	7010      	strb	r0, [r2, #0]
  }
  else
  {
  /* Nothing to do the current handle is already scheduled */
  }
  if (PWM_Handle_M1.ADCRegularLocked == false)
 8001a72:	2477      	movs	r4, #119	; 0x77
 8001a74:	4a36      	ldr	r2, [pc, #216]	; (8001b50 <RCM_ExecRegularConv+0x174>)
 8001a76:	5d12      	ldrb	r2, [r2, r4]
 8001a78:	2a00      	cmp	r2, #0
 8001a7a:	d135      	bne.n	8001ae8 <RCM_ExecRegularConv+0x10c>
  MODIFY_REG(ADCx->CFGR1, ADC_CFGR1_DMAEN | ADC_CFGR1_DMACFG, DMATransfer);
 8001a7c:	2703      	movs	r7, #3
  /* The ADC is free to be used asynchronously*/
  {
    LL_ADC_REG_SetDMATransfer(RCM_handle_array[handle]->regADC, LL_ADC_REG_DMA_TRANSFER_NONE);
 8001a7e:	4e35      	ldr	r6, [pc, #212]	; (8001b54 <RCM_ExecRegularConv+0x178>)
 8001a80:	0082      	lsls	r2, r0, #2
 8001a82:	58b5      	ldr	r5, [r6, r2]
 8001a84:	682a      	ldr	r2, [r5, #0]
 8001a86:	68d4      	ldr	r4, [r2, #12]
 8001a88:	43bc      	bics	r4, r7
 8001a8a:	60d4      	str	r4, [r2, #12]
  MODIFY_REG(ADCx->CFGR1, ADC_CFGR1_EXTEN | ADC_CFGR1_EXTSEL, TriggerSource);
 8001a8c:	68d4      	ldr	r4, [r2, #12]
 8001a8e:	4f32      	ldr	r7, [pc, #200]	; (8001b58 <RCM_ExecRegularConv+0x17c>)
 8001a90:	403c      	ands	r4, r7
  MODIFY_REG(ADCx->SMPR, ADC_SMPR_SMP, SamplingTime);
 8001a92:	2707      	movs	r7, #7
  MODIFY_REG(ADCx->CFGR1, ADC_CFGR1_EXTEN | ADC_CFGR1_EXTSEL, TriggerSource);
 8001a94:	60d4      	str	r4, [r2, #12]
  MODIFY_REG(ADCx->SMPR, ADC_SMPR_SMP, SamplingTime);
 8001a96:	6954      	ldr	r4, [r2, #20]
 8001a98:	43bc      	bics	r4, r7
 8001a9a:	68af      	ldr	r7, [r5, #8]
 8001a9c:	433c      	orrs	r4, r7
 8001a9e:	6154      	str	r4, [r2, #20]
  WRITE_REG(ADCx->CHSELR, (Channel & ADC_CHANNEL_ID_BITFIELD_MASK));
 8001aa0:	2480      	movs	r4, #128	; 0x80
    /* Disabling External Trigger of ADC */
    LL_ADC_REG_SetTriggerSource (RCM_handle_array[handle]->regADC, LL_ADC_REG_TRIG_SOFTWARE);

    /* Set Sampling time and channel */
    LL_ADC_SetSamplingTimeCommonChannels (RCM_handle_array[handle]->regADC,  RCM_handle_array[handle]->samplingTime );
    LL_ADC_REG_SetSequencerChannels (RCM_handle_array[handle]->regADC, __LL_ADC_DECIMAL_NB_TO_CHANNEL(RCM_handle_array[handle]->channel) );
 8001aa2:	792d      	ldrb	r5, [r5, #4]
 8001aa4:	01a4      	lsls	r4, r4, #6
 8001aa6:	40ac      	lsls	r4, r5
  * @param  ADCx ADC instance
  * @retval None
  */
__STATIC_INLINE void LL_ADC_ClearFlag_EOC(ADC_TypeDef *ADCx)
{
  WRITE_REG(ADCx->ISR, LL_ADC_FLAG_EOC);
 8001aa8:	2504      	movs	r5, #4
  WRITE_REG(ADCx->CHSELR, (Channel & ADC_CHANNEL_ID_BITFIELD_MASK));
 8001aaa:	0b64      	lsrs	r4, r4, #13
 8001aac:	6294      	str	r4, [r2, #40]	; 0x28
  WRITE_REG(ADCx->ISR, LL_ADC_FLAG_EOC);
 8001aae:	6015      	str	r5, [r2, #0]
  MODIFY_REG(ADCx->CR,
 8001ab0:	6894      	ldr	r4, [r2, #8]
 8001ab2:	4f2a      	ldr	r7, [pc, #168]	; (8001b5c <RCM_ExecRegularConv+0x180>)
 8001ab4:	403c      	ands	r4, r7
 8001ab6:	432c      	orrs	r4, r5
 8001ab8:	6094      	str	r4, [r2, #8]
  return (READ_BIT(ADCx->ISR, ADC_ISR_EOC) == (ADC_ISR_EOC));
 8001aba:	6814      	ldr	r4, [r2, #0]

    /* Start ADC conversion */
    LL_ADC_REG_StartConversion( RCM_handle_array[handle]->regADC );

    /* Wait EOC */
    while ( LL_ADC_IsActiveFlag_EOC( RCM_handle_array[handle]->regADC ) == RESET )
 8001abc:	4225      	tst	r5, r4
 8001abe:	d0fc      	beq.n	8001aba <RCM_ExecRegularConv+0xde>
  MODIFY_REG(ADCx->CFGR1, ADC_CFGR1_DMAEN | ADC_CFGR1_DMACFG, DMATransfer);
 8001ac0:	2703      	movs	r7, #3
  return (uint16_t)(READ_BIT(ADCx->DR, ADC_DR_DATA));
 8001ac2:	6c14      	ldr	r4, [r2, #64]	; 0x40
    {
    }

    /* Read the "Regular" conversion (Not related to current sampling) */
    RCM_NoInj_array [handle].value = LL_ADC_REG_ReadConversionData12( RCM_handle_array[handle]->regADC );
 8001ac4:	180a      	adds	r2, r1, r0
    LL_ADC_REG_SetDMATransfer( RCM_handle_array[RCM_currentHandle]->regADC, LL_ADC_REG_DMA_TRANSFER_LIMITED );
 8001ac6:	4d21      	ldr	r5, [pc, #132]	; (8001b4c <RCM_ExecRegularConv+0x170>)
    RCM_NoInj_array [handle].value = LL_ADC_REG_ReadConversionData12( RCM_handle_array[handle]->regADC );
 8001ac8:	0052      	lsls	r2, r2, #1
 8001aca:	189a      	adds	r2, r3, r2
 8001acc:	8054      	strh	r4, [r2, #2]
    LL_ADC_REG_SetDMATransfer( RCM_handle_array[RCM_currentHandle]->regADC, LL_ADC_REG_DMA_TRANSFER_LIMITED );
 8001ace:	782c      	ldrb	r4, [r5, #0]
 8001ad0:	00a4      	lsls	r4, r4, #2
 8001ad2:	5934      	ldr	r4, [r6, r4]
 8001ad4:	6826      	ldr	r6, [r4, #0]
  MODIFY_REG(ADCx->CFGR1, ADC_CFGR1_DMAEN | ADC_CFGR1_DMACFG, DMATransfer);
 8001ad6:	68f4      	ldr	r4, [r6, #12]
 8001ad8:	43bc      	bics	r4, r7
 8001ada:	3f02      	subs	r7, #2
 8001adc:	433c      	orrs	r4, r7
 8001ade:	60f4      	str	r4, [r6, #12]
    RCM_currentHandle = RCM_NoInj_array [handle].next;
 8001ae0:	7954      	ldrb	r4, [r2, #5]
 8001ae2:	702c      	strb	r4, [r5, #0]
    RCM_NoInj_array [handle].status = valid;
 8001ae4:	2402      	movs	r4, #2
 8001ae6:	7054      	strb	r4, [r2, #1]
  }
  retVal = RCM_NoInj_array [handle].value;
 8001ae8:	1809      	adds	r1, r1, r0
 8001aea:	0049      	lsls	r1, r1, #1
 8001aec:	185b      	adds	r3, r3, r1
return retVal;
 8001aee:	8858      	ldrh	r0, [r3, #2]
}
 8001af0:	bdf0      	pop	{r4, r5, r6, r7, pc}
      if (RCM_NoInj_array [i].enable == true)
 8001af2:	7b1a      	ldrb	r2, [r3, #12]
 8001af4:	2a00      	cmp	r2, #0
 8001af6:	d000      	beq.n	8001afa <RCM_ExecRegularConv+0x11e>
 8001af8:	e788      	b.n	8001a0c <RCM_ExecRegularConv+0x30>
 8001afa:	7c9a      	ldrb	r2, [r3, #18]
 8001afc:	2a00      	cmp	r2, #0
 8001afe:	d000      	beq.n	8001b02 <RCM_ExecRegularConv+0x126>
 8001b00:	e78d      	b.n	8001a1e <RCM_ExecRegularConv+0x42>
       if (LastEnable != RCM_MAX_CONV )
 8001b02:	2d04      	cmp	r5, #4
 8001b04:	d00f      	beq.n	8001b26 <RCM_ExecRegularConv+0x14a>
         formerNext = RCM_NoInj_array [LastEnable].next;
 8001b06:	006a      	lsls	r2, r5, #1
 8001b08:	1952      	adds	r2, r2, r5
 8001b0a:	0052      	lsls	r2, r2, #1
 8001b0c:	189a      	adds	r2, r3, r2
         RCM_NoInj_array [handle].next = formerNext;
 8001b0e:	180c      	adds	r4, r1, r0
         formerNext = RCM_NoInj_array [LastEnable].next;
 8001b10:	7956      	ldrb	r6, [r2, #5]
         RCM_NoInj_array [handle].next = formerNext;
 8001b12:	0064      	lsls	r4, r4, #1
 8001b14:	191c      	adds	r4, r3, r4
 8001b16:	7166      	strb	r6, [r4, #5]
         RCM_NoInj_array [LastEnable].next = handle;
 8001b18:	7150      	strb	r0, [r2, #5]
         RCM_NoInj_array [formerNext].prev = handle;
 8001b1a:	0072      	lsls	r2, r6, #1
         RCM_NoInj_array [handle].prev = LastEnable;
 8001b1c:	7125      	strb	r5, [r4, #4]
         RCM_NoInj_array [formerNext].prev = handle;
 8001b1e:	1992      	adds	r2, r2, r6
 8001b20:	e796      	b.n	8001a50 <RCM_ExecRegularConv+0x74>
  uint8_t i=0;
 8001b22:	2500      	movs	r5, #0
 8001b24:	e766      	b.n	80019f4 <RCM_ExecRegularConv+0x18>
         RCM_currentHandle = handle;
 8001b26:	4a09      	ldr	r2, [pc, #36]	; (8001b4c <RCM_ExecRegularConv+0x170>)
 8001b28:	0005      	movs	r5, r0
 8001b2a:	7010      	strb	r0, [r2, #0]
    while (i < RCM_MAX_CONV)
 8001b2c:	e795      	b.n	8001a5a <RCM_ExecRegularConv+0x7e>
      i++;
 8001b2e:	2601      	movs	r6, #1
      if (RCM_NoInj_array [i].enable == true)
 8001b30:	2401      	movs	r4, #1
 8001b32:	e781      	b.n	8001a38 <RCM_ExecRegularConv+0x5c>
 8001b34:	7c9a      	ldrb	r2, [r3, #18]
      i++;
 8001b36:	2501      	movs	r5, #1
      if (RCM_NoInj_array [i].enable == true)
 8001b38:	2a00      	cmp	r2, #0
 8001b3a:	d0e4      	beq.n	8001b06 <RCM_ExecRegularConv+0x12a>
 8001b3c:	e76f      	b.n	8001a1e <RCM_ExecRegularConv+0x42>
      i++;
 8001b3e:	2602      	movs	r6, #2
      if (RCM_NoInj_array [i].enable == true)
 8001b40:	2402      	movs	r4, #2
 8001b42:	e779      	b.n	8001a38 <RCM_ExecRegularConv+0x5c>
      i++;
 8001b44:	2503      	movs	r5, #3
 8001b46:	e7de      	b.n	8001b06 <RCM_ExecRegularConv+0x12a>
 8001b48:	20000870 	.word	0x20000870
 8001b4c:	2000088c 	.word	0x2000088c
 8001b50:	20000314 	.word	0x20000314
 8001b54:	20000890 	.word	0x20000890
 8001b58:	fffff23f 	.word	0xfffff23f
 8001b5c:	7fffffe8 	.word	0x7fffffe8

08001b60 <RCM_ExecUserConv>:
 *  latest call to RCM_RequestUserConv
 *
 * NOTE: This function is not part of the public API and users should not call it.
 */
void RCM_ExecUserConv ()
{
 8001b60:	b570      	push	{r4, r5, r6, lr}
  if (RCM_UserConvState == RCM_USERCONV_REQUESTED)
 8001b62:	4c11      	ldr	r4, [pc, #68]	; (8001ba8 <RCM_ExecUserConv+0x48>)
 8001b64:	7823      	ldrb	r3, [r4, #0]
 8001b66:	2b01      	cmp	r3, #1
 8001b68:	d000      	beq.n	8001b6c <RCM_ExecUserConv+0xc>
    {
      RCM_UserConvState = RCM_USERCONV_IDLE;
      RCM_CB_array [RCM_UserConvHandle].cb (RCM_UserConvHandle, RCM_UserConvValue ,RCM_CB_array [RCM_UserConvHandle].data);
    }
  }
}
 8001b6a:	bd70      	pop	{r4, r5, r6, pc}
    RCM_UserConvValue = RCM_ExecRegularConv (RCM_UserConvHandle);
 8001b6c:	4d0f      	ldr	r5, [pc, #60]	; (8001bac <RCM_ExecUserConv+0x4c>)
 8001b6e:	7828      	ldrb	r0, [r5, #0]
 8001b70:	f7ff ff34 	bl	80019dc <RCM_ExecRegularConv>
 8001b74:	4b0e      	ldr	r3, [pc, #56]	; (8001bb0 <RCM_ExecUserConv+0x50>)
 8001b76:	0001      	movs	r1, r0
 8001b78:	8018      	strh	r0, [r3, #0]
    if (RCM_NoInj_array [RCM_UserConvHandle].status != notvalid)
 8001b7a:	7828      	ldrb	r0, [r5, #0]
 8001b7c:	4b0d      	ldr	r3, [pc, #52]	; (8001bb4 <RCM_ExecUserConv+0x54>)
 8001b7e:	0042      	lsls	r2, r0, #1
 8001b80:	1812      	adds	r2, r2, r0
 8001b82:	0052      	lsls	r2, r2, #1
 8001b84:	189b      	adds	r3, r3, r2
 8001b86:	785b      	ldrb	r3, [r3, #1]
 8001b88:	2b00      	cmp	r3, #0
 8001b8a:	d001      	beq.n	8001b90 <RCM_ExecUserConv+0x30>
      RCM_UserConvState = RCM_USERCONV_EOC;
 8001b8c:	2302      	movs	r3, #2
 8001b8e:	7023      	strb	r3, [r4, #0]
    if (RCM_CB_array [RCM_UserConvHandle].cb != NULL)
 8001b90:	4b09      	ldr	r3, [pc, #36]	; (8001bb8 <RCM_ExecUserConv+0x58>)
 8001b92:	00c2      	lsls	r2, r0, #3
 8001b94:	58d5      	ldr	r5, [r2, r3]
 8001b96:	2d00      	cmp	r5, #0
 8001b98:	d0e7      	beq.n	8001b6a <RCM_ExecUserConv+0xa>
      RCM_UserConvState = RCM_USERCONV_IDLE;
 8001b9a:	2600      	movs	r6, #0
      RCM_CB_array [RCM_UserConvHandle].cb (RCM_UserConvHandle, RCM_UserConvValue ,RCM_CB_array [RCM_UserConvHandle].data);
 8001b9c:	189b      	adds	r3, r3, r2
 8001b9e:	685a      	ldr	r2, [r3, #4]
      RCM_UserConvState = RCM_USERCONV_IDLE;
 8001ba0:	7026      	strb	r6, [r4, #0]
      RCM_CB_array [RCM_UserConvHandle].cb (RCM_UserConvHandle, RCM_UserConvValue ,RCM_CB_array [RCM_UserConvHandle].data);
 8001ba2:	47a8      	blx	r5
}
 8001ba4:	e7e1      	b.n	8001b6a <RCM_ExecUserConv+0xa>
 8001ba6:	46c0      	nop			; (mov r8, r8)
 8001ba8:	20000889 	.word	0x20000889
 8001bac:	20000888 	.word	0x20000888
 8001bb0:	2000088a 	.word	0x2000088a
 8001bb4:	20000870 	.word	0x20000870
 8001bb8:	20000850 	.word	0x20000850

08001bbc <RCM_ExecNextConv>:
 * and user conversion.
 *
 * NOTE: This function is not part of the public API and users should not call it.
 */
void RCM_ExecNextConv (void)
{
 8001bbc:	b570      	push	{r4, r5, r6, lr}
  if (RCM_NoInj_array [RCM_currentHandle].enable == true)
 8001bbe:	4819      	ldr	r0, [pc, #100]	; (8001c24 <RCM_ExecNextConv+0x68>)
 8001bc0:	4919      	ldr	r1, [pc, #100]	; (8001c28 <RCM_ExecNextConv+0x6c>)
 8001bc2:	7802      	ldrb	r2, [r0, #0]
 8001bc4:	0053      	lsls	r3, r2, #1
 8001bc6:	189b      	adds	r3, r3, r2
 8001bc8:	005b      	lsls	r3, r3, #1
 8001bca:	5c5b      	ldrb	r3, [r3, r1]
 8001bcc:	2b00      	cmp	r3, #0
 8001bce:	d028      	beq.n	8001c22 <RCM_ExecNextConv+0x66>
  WRITE_REG(ADCx->ISR, LL_ADC_FLAG_EOC);
 8001bd0:	2504      	movs	r5, #4
  MODIFY_REG(ADCx->CFGR1, ADC_CFGR1_DMAEN | ADC_CFGR1_DMACFG, DMATransfer);
 8001bd2:	2603      	movs	r6, #3
    /* When this function is called, the ADC conversions triggered by External
       event for current reading has been completed.
       ADC is therefore ready to be started because already stopped.*/

    /* Clear EOC */
    LL_ADC_ClearFlag_EOC( RCM_handle_array[RCM_currentHandle]->regADC );
 8001bd4:	4b15      	ldr	r3, [pc, #84]	; (8001c2c <RCM_ExecNextConv+0x70>)
 8001bd6:	0092      	lsls	r2, r2, #2
 8001bd8:	58d2      	ldr	r2, [r2, r3]
 8001bda:	6812      	ldr	r2, [r2, #0]
  WRITE_REG(ADCx->ISR, LL_ADC_FLAG_EOC);
 8001bdc:	6015      	str	r5, [r2, #0]
    /* Disabling ADC DMA request  */
    LL_ADC_REG_SetDMATransfer(RCM_handle_array[RCM_currentHandle]->regADC, LL_ADC_REG_DMA_TRANSFER_NONE);
 8001bde:	7804      	ldrb	r4, [r0, #0]
 8001be0:	00a2      	lsls	r2, r4, #2
 8001be2:	58d0      	ldr	r0, [r2, r3]
 8001be4:	6803      	ldr	r3, [r0, #0]
  MODIFY_REG(ADCx->CFGR1, ADC_CFGR1_DMAEN | ADC_CFGR1_DMACFG, DMATransfer);
 8001be6:	68da      	ldr	r2, [r3, #12]
 8001be8:	43b2      	bics	r2, r6
 8001bea:	60da      	str	r2, [r3, #12]
  MODIFY_REG(ADCx->CFGR1, ADC_CFGR1_EXTEN | ADC_CFGR1_EXTSEL, TriggerSource);
 8001bec:	68da      	ldr	r2, [r3, #12]
 8001bee:	4e10      	ldr	r6, [pc, #64]	; (8001c30 <RCM_ExecNextConv+0x74>)
 8001bf0:	4032      	ands	r2, r6
  MODIFY_REG(ADCx->SMPR, ADC_SMPR_SMP, SamplingTime);
 8001bf2:	2607      	movs	r6, #7
  MODIFY_REG(ADCx->CFGR1, ADC_CFGR1_EXTEN | ADC_CFGR1_EXTSEL, TriggerSource);
 8001bf4:	60da      	str	r2, [r3, #12]
  MODIFY_REG(ADCx->SMPR, ADC_SMPR_SMP, SamplingTime);
 8001bf6:	695a      	ldr	r2, [r3, #20]
 8001bf8:	43b2      	bics	r2, r6
 8001bfa:	6886      	ldr	r6, [r0, #8]
 8001bfc:	4332      	orrs	r2, r6
 8001bfe:	615a      	str	r2, [r3, #20]
    /* Disabling External Trigger of ADC */
    LL_ADC_REG_SetTriggerSource (RCM_handle_array[RCM_currentHandle]->regADC, LL_ADC_REG_TRIG_SOFTWARE);

    /* Set Sampling time and channel of ADC for Regular Conversion */
    LL_ADC_SetSamplingTimeCommonChannels (RCM_handle_array[RCM_currentHandle]->regADC,  RCM_handle_array[RCM_currentHandle]->samplingTime );
    LL_ADC_REG_SetSequencerChannels (RCM_handle_array[RCM_currentHandle]->regADC, __LL_ADC_DECIMAL_NB_TO_CHANNEL(RCM_handle_array[RCM_currentHandle]->channel) );
 8001c00:	7902      	ldrb	r2, [r0, #4]
 8001c02:	2001      	movs	r0, #1
 8001c04:	0006      	movs	r6, r0
 8001c06:	4096      	lsls	r6, r2
  WRITE_REG(ADCx->CHSELR, (Channel & ADC_CHANNEL_ID_BITFIELD_MASK));
 8001c08:	0372      	lsls	r2, r6, #13
 8001c0a:	0b52      	lsrs	r2, r2, #13
 8001c0c:	629a      	str	r2, [r3, #40]	; 0x28
  MODIFY_REG(ADCx->CR,
 8001c0e:	689a      	ldr	r2, [r3, #8]
 8001c10:	4e08      	ldr	r6, [pc, #32]	; (8001c34 <RCM_ExecNextConv+0x78>)
 8001c12:	4032      	ands	r2, r6
 8001c14:	432a      	orrs	r2, r5
 8001c16:	609a      	str	r2, [r3, #8]
    /* Start ADC for regular conversion */
    LL_ADC_REG_StartConversion( RCM_handle_array[RCM_currentHandle]->regADC );
    RCM_NoInj_array [RCM_currentHandle].status = ongoing;
 8001c18:	0063      	lsls	r3, r4, #1
 8001c1a:	191b      	adds	r3, r3, r4
 8001c1c:	005b      	lsls	r3, r3, #1
 8001c1e:	18c9      	adds	r1, r1, r3
 8001c20:	7048      	strb	r0, [r1, #1]
  }
  else
  {
  /* nothing to do, conversion not enabled have already notvalid status */
  }
}
 8001c22:	bd70      	pop	{r4, r5, r6, pc}
 8001c24:	2000088c 	.word	0x2000088c
 8001c28:	20000870 	.word	0x20000870
 8001c2c:	20000890 	.word	0x20000890
 8001c30:	fffff23f 	.word	0xfffff23f
 8001c34:	7fffffe8 	.word	0x7fffffe8

08001c38 <RCM_ReadOngoingConv>:
 * and user conversion.
 *
 * NOTE: This function is not part of the public API and users should not call it.
 */
void RCM_ReadOngoingConv (void)
{
 8001c38:	b5f0      	push	{r4, r5, r6, r7, lr}
  if ( RCM_NoInj_array [RCM_currentHandle].status == ongoing &&
 8001c3a:	4c10      	ldr	r4, [pc, #64]	; (8001c7c <RCM_ReadOngoingConv+0x44>)
 8001c3c:	4910      	ldr	r1, [pc, #64]	; (8001c80 <RCM_ReadOngoingConv+0x48>)
 8001c3e:	7820      	ldrb	r0, [r4, #0]
 8001c40:	0043      	lsls	r3, r0, #1
 8001c42:	181a      	adds	r2, r3, r0
 8001c44:	0052      	lsls	r2, r2, #1
 8001c46:	188a      	adds	r2, r1, r2
 8001c48:	7855      	ldrb	r5, [r2, #1]
 8001c4a:	2d01      	cmp	r5, #1
 8001c4c:	d005      	beq.n	8001c5a <RCM_ReadOngoingConv+0x22>
    /* Restore back DMA configuration. */
    LL_ADC_REG_SetDMATransfer( RCM_handle_array[RCM_currentHandle]->regADC, LL_ADC_REG_DMA_TRANSFER_LIMITED );
  }

  /* Prepare next conversion */
  RCM_currentHandle = RCM_NoInj_array [RCM_currentHandle].next;
 8001c4e:	181b      	adds	r3, r3, r0
 8001c50:	005b      	lsls	r3, r3, #1
 8001c52:	18cb      	adds	r3, r1, r3
 8001c54:	795b      	ldrb	r3, [r3, #5]
 8001c56:	7023      	strb	r3, [r4, #0]
}
 8001c58:	bdf0      	pop	{r4, r5, r6, r7, pc}
      LL_ADC_IsActiveFlag_EOC( RCM_handle_array[RCM_currentHandle]->regADC ))
 8001c5a:	4e0a      	ldr	r6, [pc, #40]	; (8001c84 <RCM_ReadOngoingConv+0x4c>)
 8001c5c:	0087      	lsls	r7, r0, #2
 8001c5e:	59be      	ldr	r6, [r7, r6]
 8001c60:	6836      	ldr	r6, [r6, #0]
  return (READ_BIT(ADCx->ISR, ADC_ISR_EOC) == (ADC_ISR_EOC));
 8001c62:	6837      	ldr	r7, [r6, #0]
  if ( RCM_NoInj_array [RCM_currentHandle].status == ongoing &&
 8001c64:	077f      	lsls	r7, r7, #29
 8001c66:	d5f2      	bpl.n	8001c4e <RCM_ReadOngoingConv+0x16>
  return (uint16_t)(READ_BIT(ADCx->DR, ADC_DR_DATA));
 8001c68:	6c37      	ldr	r7, [r6, #64]	; 0x40
    RCM_NoInj_array [RCM_currentHandle].value = LL_ADC_REG_ReadConversionData12( RCM_handle_array[RCM_currentHandle]->regADC );
 8001c6a:	8057      	strh	r7, [r2, #2]
    RCM_NoInj_array [RCM_currentHandle].status = valid;
 8001c6c:	2702      	movs	r7, #2
 8001c6e:	7057      	strb	r7, [r2, #1]
  MODIFY_REG(ADCx->CFGR1, ADC_CFGR1_DMAEN | ADC_CFGR1_DMACFG, DMATransfer);
 8001c70:	68f2      	ldr	r2, [r6, #12]
 8001c72:	3701      	adds	r7, #1
 8001c74:	43ba      	bics	r2, r7
 8001c76:	432a      	orrs	r2, r5
 8001c78:	60f2      	str	r2, [r6, #12]
}
 8001c7a:	e7e8      	b.n	8001c4e <RCM_ReadOngoingConv+0x16>
 8001c7c:	2000088c 	.word	0x2000088c
 8001c80:	20000870 	.word	0x20000870
 8001c84:	20000890 	.word	0x20000890

08001c88 <HAL_MspInit>:
{
  /* USER CODE BEGIN MspInit 0 */

  /* USER CODE END MspInit 0 */

  __HAL_RCC_SYSCFG_CLK_ENABLE();
 8001c88:	2201      	movs	r2, #1
 8001c8a:	4b0a      	ldr	r3, [pc, #40]	; (8001cb4 <HAL_MspInit+0x2c>)
{
 8001c8c:	b082      	sub	sp, #8
  __HAL_RCC_SYSCFG_CLK_ENABLE();
 8001c8e:	6999      	ldr	r1, [r3, #24]
 8001c90:	4311      	orrs	r1, r2
 8001c92:	6199      	str	r1, [r3, #24]
 8001c94:	6999      	ldr	r1, [r3, #24]
 8001c96:	400a      	ands	r2, r1
  __HAL_RCC_PWR_CLK_ENABLE();
 8001c98:	2180      	movs	r1, #128	; 0x80
  __HAL_RCC_SYSCFG_CLK_ENABLE();
 8001c9a:	9200      	str	r2, [sp, #0]
 8001c9c:	9a00      	ldr	r2, [sp, #0]
  __HAL_RCC_PWR_CLK_ENABLE();
 8001c9e:	69da      	ldr	r2, [r3, #28]
 8001ca0:	0549      	lsls	r1, r1, #21
 8001ca2:	430a      	orrs	r2, r1
 8001ca4:	61da      	str	r2, [r3, #28]
 8001ca6:	69db      	ldr	r3, [r3, #28]
 8001ca8:	400b      	ands	r3, r1
 8001caa:	9301      	str	r3, [sp, #4]
 8001cac:	9b01      	ldr	r3, [sp, #4]
  /* System interrupt init*/

  /* USER CODE BEGIN MspInit 1 */

  /* USER CODE END MspInit 1 */
}
 8001cae:	b002      	add	sp, #8
 8001cb0:	4770      	bx	lr
 8001cb2:	46c0      	nop			; (mov r8, r8)
 8001cb4:	40021000 	.word	0x40021000

08001cb8 <HAL_ADC_MspInit>:
* This function configures the hardware resources used in this example
* @param hadc: ADC handle pointer
* @retval None
*/
void HAL_ADC_MspInit(ADC_HandleTypeDef* hadc)
{
 8001cb8:	b530      	push	{r4, r5, lr}
 8001cba:	0004      	movs	r4, r0
 8001cbc:	b089      	sub	sp, #36	; 0x24
  GPIO_InitTypeDef GPIO_InitStruct = {0};
 8001cbe:	2214      	movs	r2, #20
 8001cc0:	2100      	movs	r1, #0
 8001cc2:	a802      	add	r0, sp, #8
 8001cc4:	f003 ffb4 	bl	8005c30 <memset>
  if(hadc->Instance==ADC1)
 8001cc8:	4b1f      	ldr	r3, [pc, #124]	; (8001d48 <HAL_ADC_MspInit+0x90>)
 8001cca:	6822      	ldr	r2, [r4, #0]
 8001ccc:	429a      	cmp	r2, r3
 8001cce:	d001      	beq.n	8001cd4 <HAL_ADC_MspInit+0x1c>
  /* USER CODE BEGIN ADC1_MspInit 1 */

  /* USER CODE END ADC1_MspInit 1 */
  }

}
 8001cd0:	b009      	add	sp, #36	; 0x24
 8001cd2:	bd30      	pop	{r4, r5, pc}
    __HAL_RCC_ADC1_CLK_ENABLE();
 8001cd4:	2180      	movs	r1, #128	; 0x80
 8001cd6:	4b1d      	ldr	r3, [pc, #116]	; (8001d4c <HAL_ADC_MspInit+0x94>)
 8001cd8:	0089      	lsls	r1, r1, #2
 8001cda:	699a      	ldr	r2, [r3, #24]
    HAL_GPIO_Init(GPIOA, &GPIO_InitStruct);
 8001cdc:	2090      	movs	r0, #144	; 0x90
    __HAL_RCC_ADC1_CLK_ENABLE();
 8001cde:	430a      	orrs	r2, r1
 8001ce0:	619a      	str	r2, [r3, #24]
 8001ce2:	699a      	ldr	r2, [r3, #24]
    HAL_GPIO_Init(GPIOA, &GPIO_InitStruct);
 8001ce4:	05c0      	lsls	r0, r0, #23
    __HAL_RCC_ADC1_CLK_ENABLE();
 8001ce6:	400a      	ands	r2, r1
    __HAL_RCC_GPIOA_CLK_ENABLE();
 8001ce8:	2180      	movs	r1, #128	; 0x80
    __HAL_RCC_ADC1_CLK_ENABLE();
 8001cea:	9200      	str	r2, [sp, #0]
 8001cec:	9a00      	ldr	r2, [sp, #0]
    __HAL_RCC_GPIOA_CLK_ENABLE();
 8001cee:	695a      	ldr	r2, [r3, #20]
 8001cf0:	0289      	lsls	r1, r1, #10
 8001cf2:	430a      	orrs	r2, r1
 8001cf4:	615a      	str	r2, [r3, #20]
 8001cf6:	695b      	ldr	r3, [r3, #20]
    GPIO_InitStruct.Pin = M1_CURR_AMPL_W_Pin|M1_CURR_AMPL_V_Pin|M1_CURR_AMPL_U_Pin;
 8001cf8:	2238      	movs	r2, #56	; 0x38
    __HAL_RCC_GPIOA_CLK_ENABLE();
 8001cfa:	400b      	ands	r3, r1
 8001cfc:	9301      	str	r3, [sp, #4]
 8001cfe:	9b01      	ldr	r3, [sp, #4]
    GPIO_InitStruct.Pin = M1_CURR_AMPL_W_Pin|M1_CURR_AMPL_V_Pin|M1_CURR_AMPL_U_Pin;
 8001d00:	2303      	movs	r3, #3
    HAL_GPIO_Init(GPIOA, &GPIO_InitStruct);
 8001d02:	a902      	add	r1, sp, #8
    GPIO_InitStruct.Pin = M1_CURR_AMPL_W_Pin|M1_CURR_AMPL_V_Pin|M1_CURR_AMPL_U_Pin;
 8001d04:	9202      	str	r2, [sp, #8]
 8001d06:	9303      	str	r3, [sp, #12]
    HAL_GPIO_Init(GPIOA, &GPIO_InitStruct);
 8001d08:	f000 fea0 	bl	8002a4c <HAL_GPIO_Init>
    hdma_adc.Instance = DMA1_Channel1;
 8001d0c:	4d10      	ldr	r5, [pc, #64]	; (8001d50 <HAL_ADC_MspInit+0x98>)
 8001d0e:	4b11      	ldr	r3, [pc, #68]	; (8001d54 <HAL_ADC_MspInit+0x9c>)
    if (HAL_DMA_Init(&hdma_adc) != HAL_OK)
 8001d10:	0028      	movs	r0, r5
    hdma_adc.Instance = DMA1_Channel1;
 8001d12:	602b      	str	r3, [r5, #0]
    hdma_adc.Init.Direction = DMA_PERIPH_TO_MEMORY;
 8001d14:	2300      	movs	r3, #0
 8001d16:	606b      	str	r3, [r5, #4]
    hdma_adc.Init.PeriphInc = DMA_PINC_DISABLE;
 8001d18:	60ab      	str	r3, [r5, #8]
    hdma_adc.Init.MemInc = DMA_MINC_ENABLE;
 8001d1a:	3380      	adds	r3, #128	; 0x80
 8001d1c:	60eb      	str	r3, [r5, #12]
    hdma_adc.Init.PeriphDataAlignment = DMA_PDATAALIGN_HALFWORD;
 8001d1e:	3380      	adds	r3, #128	; 0x80
 8001d20:	612b      	str	r3, [r5, #16]
    hdma_adc.Init.MemDataAlignment = DMA_MDATAALIGN_HALFWORD;
 8001d22:	2380      	movs	r3, #128	; 0x80
 8001d24:	00db      	lsls	r3, r3, #3
 8001d26:	616b      	str	r3, [r5, #20]
    hdma_adc.Init.Mode = DMA_CIRCULAR;
 8001d28:	2320      	movs	r3, #32
 8001d2a:	61ab      	str	r3, [r5, #24]
    hdma_adc.Init.Priority = DMA_PRIORITY_HIGH;
 8001d2c:	2380      	movs	r3, #128	; 0x80
 8001d2e:	019b      	lsls	r3, r3, #6
 8001d30:	61eb      	str	r3, [r5, #28]
    if (HAL_DMA_Init(&hdma_adc) != HAL_OK)
 8001d32:	f000 fe57 	bl	80029e4 <HAL_DMA_Init>
 8001d36:	2800      	cmp	r0, #0
 8001d38:	d102      	bne.n	8001d40 <HAL_ADC_MspInit+0x88>
    __HAL_LINKDMA(hadc,DMA_Handle,hdma_adc);
 8001d3a:	6325      	str	r5, [r4, #48]	; 0x30
 8001d3c:	626c      	str	r4, [r5, #36]	; 0x24
}
 8001d3e:	e7c7      	b.n	8001cd0 <HAL_ADC_MspInit+0x18>
      Error_Handler();
 8001d40:	f7fe fd80 	bl	8000844 <Error_Handler>
 8001d44:	e7f9      	b.n	8001d3a <HAL_ADC_MspInit+0x82>
 8001d46:	46c0      	nop			; (mov r8, r8)
 8001d48:	40012400 	.word	0x40012400
 8001d4c:	40021000 	.word	0x40021000
 8001d50:	200005fc 	.word	0x200005fc
 8001d54:	40020008 	.word	0x40020008

08001d58 <HAL_TIM_PWM_MspInit>:
* @param htim_pwm: TIM_PWM handle pointer
* @retval None
*/
void HAL_TIM_PWM_MspInit(TIM_HandleTypeDef* htim_pwm)
{
  if(htim_pwm->Instance==TIM1)
 8001d58:	4b08      	ldr	r3, [pc, #32]	; (8001d7c <HAL_TIM_PWM_MspInit+0x24>)
 8001d5a:	6802      	ldr	r2, [r0, #0]
{
 8001d5c:	b082      	sub	sp, #8
  if(htim_pwm->Instance==TIM1)
 8001d5e:	429a      	cmp	r2, r3
 8001d60:	d001      	beq.n	8001d66 <HAL_TIM_PWM_MspInit+0xe>
  /* USER CODE BEGIN TIM1_MspInit 1 */

  /* USER CODE END TIM1_MspInit 1 */
  }

}
 8001d62:	b002      	add	sp, #8
 8001d64:	4770      	bx	lr
    __HAL_RCC_TIM1_CLK_ENABLE();
 8001d66:	2180      	movs	r1, #128	; 0x80
 8001d68:	4b05      	ldr	r3, [pc, #20]	; (8001d80 <HAL_TIM_PWM_MspInit+0x28>)
 8001d6a:	0109      	lsls	r1, r1, #4
 8001d6c:	699a      	ldr	r2, [r3, #24]
 8001d6e:	430a      	orrs	r2, r1
 8001d70:	619a      	str	r2, [r3, #24]
 8001d72:	699b      	ldr	r3, [r3, #24]
 8001d74:	400b      	ands	r3, r1
 8001d76:	9301      	str	r3, [sp, #4]
 8001d78:	9b01      	ldr	r3, [sp, #4]
}
 8001d7a:	e7f2      	b.n	8001d62 <HAL_TIM_PWM_MspInit+0xa>
 8001d7c:	40012c00 	.word	0x40012c00
 8001d80:	40021000 	.word	0x40021000

08001d84 <HAL_TIM_Base_MspInit>:
* This function configures the hardware resources used in this example
* @param htim_base: TIM_Base handle pointer
* @retval None
*/
void HAL_TIM_Base_MspInit(TIM_HandleTypeDef* htim_base)
{
 8001d84:	b510      	push	{r4, lr}
 8001d86:	0004      	movs	r4, r0
 8001d88:	b088      	sub	sp, #32
  GPIO_InitTypeDef GPIO_InitStruct = {0};
 8001d8a:	2214      	movs	r2, #20
 8001d8c:	2100      	movs	r1, #0
 8001d8e:	a802      	add	r0, sp, #8
 8001d90:	f003 ff4e 	bl	8005c30 <memset>
  if(htim_base->Instance==TIM2)
 8001d94:	2380      	movs	r3, #128	; 0x80
 8001d96:	6822      	ldr	r2, [r4, #0]
 8001d98:	05db      	lsls	r3, r3, #23
 8001d9a:	429a      	cmp	r2, r3
 8001d9c:	d001      	beq.n	8001da2 <HAL_TIM_Base_MspInit+0x1e>
  /* USER CODE BEGIN TIM2_MspInit 1 */

  /* USER CODE END TIM2_MspInit 1 */
  }

}
 8001d9e:	b008      	add	sp, #32
 8001da0:	bd10      	pop	{r4, pc}
    __HAL_RCC_TIM2_CLK_ENABLE();
 8001da2:	2201      	movs	r2, #1
 8001da4:	4b0f      	ldr	r3, [pc, #60]	; (8001de4 <HAL_TIM_Base_MspInit+0x60>)
    HAL_GPIO_Init(GPIOA, &GPIO_InitStruct);
 8001da6:	2090      	movs	r0, #144	; 0x90
    __HAL_RCC_TIM2_CLK_ENABLE();
 8001da8:	69d9      	ldr	r1, [r3, #28]
    HAL_GPIO_Init(GPIOA, &GPIO_InitStruct);
 8001daa:	05c0      	lsls	r0, r0, #23
    __HAL_RCC_TIM2_CLK_ENABLE();
 8001dac:	4311      	orrs	r1, r2
 8001dae:	61d9      	str	r1, [r3, #28]
 8001db0:	69d9      	ldr	r1, [r3, #28]
 8001db2:	400a      	ands	r2, r1
    __HAL_RCC_GPIOA_CLK_ENABLE();
 8001db4:	2180      	movs	r1, #128	; 0x80
    __HAL_RCC_TIM2_CLK_ENABLE();
 8001db6:	9200      	str	r2, [sp, #0]
 8001db8:	9a00      	ldr	r2, [sp, #0]
    __HAL_RCC_GPIOA_CLK_ENABLE();
 8001dba:	695a      	ldr	r2, [r3, #20]
 8001dbc:	0289      	lsls	r1, r1, #10
 8001dbe:	430a      	orrs	r2, r1
 8001dc0:	615a      	str	r2, [r3, #20]
 8001dc2:	695b      	ldr	r3, [r3, #20]
    GPIO_InitStruct.Pin = M1_HALL_H1_Pin|M1_HALL_H2_Pin|M1_HALL_H3_Pin;
 8001dc4:	2207      	movs	r2, #7
    __HAL_RCC_GPIOA_CLK_ENABLE();
 8001dc6:	400b      	ands	r3, r1
 8001dc8:	9301      	str	r3, [sp, #4]
 8001dca:	9b01      	ldr	r3, [sp, #4]
    GPIO_InitStruct.Pin = M1_HALL_H1_Pin|M1_HALL_H2_Pin|M1_HALL_H3_Pin;
 8001dcc:	2302      	movs	r3, #2
 8001dce:	9202      	str	r2, [sp, #8]
 8001dd0:	9303      	str	r3, [sp, #12]
    GPIO_InitStruct.Speed = GPIO_SPEED_FREQ_HIGH;
 8001dd2:	2303      	movs	r3, #3
    HAL_GPIO_Init(GPIOA, &GPIO_InitStruct);
 8001dd4:	a902      	add	r1, sp, #8
    GPIO_InitStruct.Speed = GPIO_SPEED_FREQ_HIGH;
 8001dd6:	9305      	str	r3, [sp, #20]
    GPIO_InitStruct.Alternate = GPIO_AF2_TIM2;
 8001dd8:	3b01      	subs	r3, #1
 8001dda:	9306      	str	r3, [sp, #24]
    HAL_GPIO_Init(GPIOA, &GPIO_InitStruct);
 8001ddc:	f000 fe36 	bl	8002a4c <HAL_GPIO_Init>
}
 8001de0:	e7dd      	b.n	8001d9e <HAL_TIM_Base_MspInit+0x1a>
 8001de2:	46c0      	nop			; (mov r8, r8)
 8001de4:	40021000 	.word	0x40021000

08001de8 <HAL_TIM_MspPostInit>:

void HAL_TIM_MspPostInit(TIM_HandleTypeDef* htim)
{
 8001de8:	b5d0      	push	{r4, r6, r7, lr}
 8001dea:	0004      	movs	r4, r0
 8001dec:	b088      	sub	sp, #32
  GPIO_InitTypeDef GPIO_InitStruct = {0};
 8001dee:	2214      	movs	r2, #20
 8001df0:	2100      	movs	r1, #0
 8001df2:	a802      	add	r0, sp, #8
 8001df4:	f003 ff1c 	bl	8005c30 <memset>
  if(htim->Instance==TIM1)
 8001df8:	4b1a      	ldr	r3, [pc, #104]	; (8001e64 <HAL_TIM_MspPostInit+0x7c>)
 8001dfa:	6822      	ldr	r2, [r4, #0]
 8001dfc:	429a      	cmp	r2, r3
 8001dfe:	d001      	beq.n	8001e04 <HAL_TIM_MspPostInit+0x1c>
  /* USER CODE BEGIN TIM1_MspPostInit 1 */

  /* USER CODE END TIM1_MspPostInit 1 */
  }

}
 8001e00:	b008      	add	sp, #32
 8001e02:	bdd0      	pop	{r4, r6, r7, pc}
    __HAL_RCC_GPIOB_CLK_ENABLE();
 8001e04:	2180      	movs	r1, #128	; 0x80
 8001e06:	4b18      	ldr	r3, [pc, #96]	; (8001e68 <HAL_TIM_MspPostInit+0x80>)
 8001e08:	02c9      	lsls	r1, r1, #11
 8001e0a:	695a      	ldr	r2, [r3, #20]
    GPIO_InitStruct.Pin = M1_PWM_UL_Pin|M1_PWM_VL_Pin|M1_PWM_WL_Pin;
 8001e0c:	2602      	movs	r6, #2
    __HAL_RCC_GPIOB_CLK_ENABLE();
 8001e0e:	430a      	orrs	r2, r1
 8001e10:	615a      	str	r2, [r3, #20]
 8001e12:	695a      	ldr	r2, [r3, #20]
    GPIO_InitStruct.Pin = M1_PWM_UL_Pin|M1_PWM_VL_Pin|M1_PWM_WL_Pin;
 8001e14:	2703      	movs	r7, #3
    __HAL_RCC_GPIOB_CLK_ENABLE();
 8001e16:	400a      	ands	r2, r1
    __HAL_RCC_GPIOA_CLK_ENABLE();
 8001e18:	2180      	movs	r1, #128	; 0x80
    __HAL_RCC_GPIOB_CLK_ENABLE();
 8001e1a:	9200      	str	r2, [sp, #0]
 8001e1c:	9a00      	ldr	r2, [sp, #0]
    __HAL_RCC_GPIOA_CLK_ENABLE();
 8001e1e:	695a      	ldr	r2, [r3, #20]
 8001e20:	0289      	lsls	r1, r1, #10
 8001e22:	430a      	orrs	r2, r1
 8001e24:	615a      	str	r2, [r3, #20]
 8001e26:	695b      	ldr	r3, [r3, #20]
    GPIO_InitStruct.Pin = M1_PWM_UL_Pin|M1_PWM_VL_Pin|M1_PWM_WL_Pin;
 8001e28:	22e0      	movs	r2, #224	; 0xe0
    __HAL_RCC_GPIOA_CLK_ENABLE();
 8001e2a:	400b      	ands	r3, r1
 8001e2c:	9301      	str	r3, [sp, #4]
    GPIO_InitStruct.Alternate = GPIO_AF2_TIM1;
 8001e2e:	2402      	movs	r4, #2
    __HAL_RCC_GPIOA_CLK_ENABLE();
 8001e30:	9b01      	ldr	r3, [sp, #4]
    GPIO_InitStruct.Pin = M1_PWM_UL_Pin|M1_PWM_VL_Pin|M1_PWM_WL_Pin;
 8001e32:	2302      	movs	r3, #2
 8001e34:	0212      	lsls	r2, r2, #8
    HAL_GPIO_Init(GPIOB, &GPIO_InitStruct);
 8001e36:	a902      	add	r1, sp, #8
 8001e38:	480c      	ldr	r0, [pc, #48]	; (8001e6c <HAL_TIM_MspPostInit+0x84>)
    GPIO_InitStruct.Pin = M1_PWM_UL_Pin|M1_PWM_VL_Pin|M1_PWM_WL_Pin;
 8001e3a:	9202      	str	r2, [sp, #8]
 8001e3c:	9303      	str	r3, [sp, #12]
 8001e3e:	9604      	str	r6, [sp, #16]
 8001e40:	9705      	str	r7, [sp, #20]
    GPIO_InitStruct.Alternate = GPIO_AF2_TIM1;
 8001e42:	9406      	str	r4, [sp, #24]
    HAL_GPIO_Init(GPIOB, &GPIO_InitStruct);
 8001e44:	f000 fe02 	bl	8002a4c <HAL_GPIO_Init>
    GPIO_InitStruct.Pin = M1_PWM_UH_Pin|M1_PWM_VH_Pin|M1_PWM_WH_Pin;
 8001e48:	22e0      	movs	r2, #224	; 0xe0
    HAL_GPIO_Init(GPIOA, &GPIO_InitStruct);
 8001e4a:	2090      	movs	r0, #144	; 0x90
    GPIO_InitStruct.Pin = M1_PWM_UH_Pin|M1_PWM_VH_Pin|M1_PWM_WH_Pin;
 8001e4c:	2302      	movs	r3, #2
 8001e4e:	00d2      	lsls	r2, r2, #3
    HAL_GPIO_Init(GPIOA, &GPIO_InitStruct);
 8001e50:	a902      	add	r1, sp, #8
 8001e52:	05c0      	lsls	r0, r0, #23
    GPIO_InitStruct.Pin = M1_PWM_UH_Pin|M1_PWM_VH_Pin|M1_PWM_WH_Pin;
 8001e54:	9202      	str	r2, [sp, #8]
 8001e56:	9303      	str	r3, [sp, #12]
 8001e58:	9604      	str	r6, [sp, #16]
 8001e5a:	9705      	str	r7, [sp, #20]
    GPIO_InitStruct.Alternate = GPIO_AF2_TIM1;
 8001e5c:	9406      	str	r4, [sp, #24]
    HAL_GPIO_Init(GPIOA, &GPIO_InitStruct);
 8001e5e:	f000 fdf5 	bl	8002a4c <HAL_GPIO_Init>
}
 8001e62:	e7cd      	b.n	8001e00 <HAL_TIM_MspPostInit+0x18>
 8001e64:	40012c00 	.word	0x40012c00
 8001e68:	40021000 	.word	0x40021000
 8001e6c:	48000400 	.word	0x48000400

08001e70 <HAL_UART_MspInit>:
* This function configures the hardware resources used in this example
* @param huart: UART handle pointer
* @retval None
*/
void HAL_UART_MspInit(UART_HandleTypeDef* huart)
{
 8001e70:	b510      	push	{r4, lr}
 8001e72:	0004      	movs	r4, r0
 8001e74:	b088      	sub	sp, #32
  GPIO_InitTypeDef GPIO_InitStruct = {0};
 8001e76:	2214      	movs	r2, #20
 8001e78:	2100      	movs	r1, #0
 8001e7a:	a802      	add	r0, sp, #8
 8001e7c:	f003 fed8 	bl	8005c30 <memset>
  if(huart->Instance==USART1)
 8001e80:	4b10      	ldr	r3, [pc, #64]	; (8001ec4 <HAL_UART_MspInit+0x54>)
 8001e82:	6822      	ldr	r2, [r4, #0]
 8001e84:	429a      	cmp	r2, r3
 8001e86:	d001      	beq.n	8001e8c <HAL_UART_MspInit+0x1c>
  /* USER CODE BEGIN USART1_MspInit 1 */

  /* USER CODE END USART1_MspInit 1 */
  }

}
 8001e88:	b008      	add	sp, #32
 8001e8a:	bd10      	pop	{r4, pc}
    __HAL_RCC_USART1_CLK_ENABLE();
 8001e8c:	2180      	movs	r1, #128	; 0x80
 8001e8e:	4b0e      	ldr	r3, [pc, #56]	; (8001ec8 <HAL_UART_MspInit+0x58>)
 8001e90:	01c9      	lsls	r1, r1, #7
 8001e92:	699a      	ldr	r2, [r3, #24]
    HAL_GPIO_Init(GPIOB, &GPIO_InitStruct);
 8001e94:	480d      	ldr	r0, [pc, #52]	; (8001ecc <HAL_UART_MspInit+0x5c>)
    __HAL_RCC_USART1_CLK_ENABLE();
 8001e96:	430a      	orrs	r2, r1
 8001e98:	619a      	str	r2, [r3, #24]
 8001e9a:	699a      	ldr	r2, [r3, #24]
 8001e9c:	400a      	ands	r2, r1
    __HAL_RCC_GPIOB_CLK_ENABLE();
 8001e9e:	2180      	movs	r1, #128	; 0x80
    __HAL_RCC_USART1_CLK_ENABLE();
 8001ea0:	9200      	str	r2, [sp, #0]
 8001ea2:	9a00      	ldr	r2, [sp, #0]
    __HAL_RCC_GPIOB_CLK_ENABLE();
 8001ea4:	695a      	ldr	r2, [r3, #20]
 8001ea6:	02c9      	lsls	r1, r1, #11
 8001ea8:	430a      	orrs	r2, r1
 8001eaa:	615a      	str	r2, [r3, #20]
 8001eac:	695b      	ldr	r3, [r3, #20]
    GPIO_InitStruct.Pin = UART_TX_Pin|UART_RX_Pin;
 8001eae:	22c0      	movs	r2, #192	; 0xc0
    __HAL_RCC_GPIOB_CLK_ENABLE();
 8001eb0:	400b      	ands	r3, r1
 8001eb2:	9301      	str	r3, [sp, #4]
 8001eb4:	9b01      	ldr	r3, [sp, #4]
    GPIO_InitStruct.Pin = UART_TX_Pin|UART_RX_Pin;
 8001eb6:	2302      	movs	r3, #2
    HAL_GPIO_Init(GPIOB, &GPIO_InitStruct);
 8001eb8:	a902      	add	r1, sp, #8
    GPIO_InitStruct.Pin = UART_TX_Pin|UART_RX_Pin;
 8001eba:	9202      	str	r2, [sp, #8]
 8001ebc:	9303      	str	r3, [sp, #12]
    HAL_GPIO_Init(GPIOB, &GPIO_InitStruct);
 8001ebe:	f000 fdc5 	bl	8002a4c <HAL_GPIO_Init>
}
 8001ec2:	e7e1      	b.n	8001e88 <HAL_UART_MspInit+0x18>
 8001ec4:	40013800 	.word	0x40013800
 8001ec8:	40021000 	.word	0x40021000
 8001ecc:	48000400 	.word	0x48000400

08001ed0 <DMA1_Channel1_IRQHandler>:
  /* USER CODE BEGIN CURRENT_REGULATION_IRQn 0 */

  /* USER CODE END CURRENT_REGULATION_IRQn 0 */

  /* Clear Flags */
  DMA1->IFCR = (LL_DMA_ISR_GIF1|LL_DMA_ISR_TCIF1|LL_DMA_ISR_HTIF1);
 8001ed0:	2207      	movs	r2, #7
{
 8001ed2:	b510      	push	{r4, lr}
  DMA1->IFCR = (LL_DMA_ISR_GIF1|LL_DMA_ISR_TCIF1|LL_DMA_ISR_HTIF1);
 8001ed4:	4b02      	ldr	r3, [pc, #8]	; (8001ee0 <DMA1_Channel1_IRQHandler+0x10>)
 8001ed6:	605a      	str	r2, [r3, #4]
  /* USER CODE BEGIN CURRENT_REGULATION_IRQn 1 */

  /* USER CODE END CURRENT_REGULATION_IRQn 1 */

    TSK_HighFrequencyTask();          /*GUI, this section is present only if DAC is disabled*/
 8001ed8:	f7ff f8f0 	bl	80010bc <TSK_HighFrequencyTask>
  /* USER CODE BEGIN CURRENT_REGULATION_IRQn 2 */

  /* USER CODE END CURRENT_REGULATION_IRQn 2 */
}
 8001edc:	bd10      	pop	{r4, pc}
 8001ede:	46c0      	nop			; (mov r8, r8)
 8001ee0:	40020000 	.word	0x40020000

08001ee4 <TIM1_BRK_UP_TRG_COM_IRQHandler>:
  * @param  TIMx Timer instance
  * @retval State of bit (1 or 0).
  */
__STATIC_INLINE uint32_t LL_TIM_IsActiveFlag_UPDATE(TIM_TypeDef *TIMx)
{
  return ((READ_BIT(TIMx->SR, TIM_SR_UIF) == (TIM_SR_UIF)) ? 1UL : 0UL);
 8001ee4:	2201      	movs	r2, #1
  * @brief  This function handles first motor TIMx Update, Break-in interrupt request.
  * @param  None
  * @retval None
  */
void TIMx_UP_BRK_M1_IRQHandler(void)
{
 8001ee6:	b510      	push	{r4, lr}
  /* USER CODE BEGIN TIMx_UP_BRK_M1_IRQn 0 */

  /* USER CODE END TIMx_UP_BRK_M1_IRQn 0 */

  if(LL_TIM_IsActiveFlag_UPDATE(PWM_Handle_M1.pParams_str->TIMx) && LL_TIM_IsEnabledIT_UPDATE(PWM_Handle_M1.pParams_str->TIMx))
 8001ee8:	4c0f      	ldr	r4, [pc, #60]	; (8001f28 <TIM1_BRK_UP_TRG_COM_IRQHandler+0x44>)
 8001eea:	6fa3      	ldr	r3, [r4, #120]	; 0x78
 8001eec:	681b      	ldr	r3, [r3, #0]
 8001eee:	6919      	ldr	r1, [r3, #16]
 8001ef0:	420a      	tst	r2, r1
 8001ef2:	d002      	beq.n	8001efa <TIM1_BRK_UP_TRG_COM_IRQHandler+0x16>
  * @param  TIMx Timer instance
  * @retval State of bit (1 or 0).
  */
__STATIC_INLINE uint32_t LL_TIM_IsEnabledIT_UPDATE(TIM_TypeDef *TIMx)
{
  return ((READ_BIT(TIMx->DIER, TIM_DIER_UIE) == (TIM_DIER_UIE)) ? 1UL : 0UL);
 8001ef4:	68d9      	ldr	r1, [r3, #12]
 8001ef6:	420a      	tst	r2, r1
 8001ef8:	d10d      	bne.n	8001f16 <TIM1_BRK_UP_TRG_COM_IRQHandler+0x32>
  return ((READ_BIT(TIMx->SR, TIM_SR_BIF) == (TIM_SR_BIF)) ? 1UL : 0UL);
 8001efa:	2280      	movs	r2, #128	; 0x80
 8001efc:	6919      	ldr	r1, [r3, #16]
 8001efe:	420a      	tst	r2, r1
 8001f00:	d008      	beq.n	8001f14 <TIM1_BRK_UP_TRG_COM_IRQHandler+0x30>
  * @param  TIMx Timer instance
  * @retval State of bit (1 or 0).
  */
__STATIC_INLINE uint32_t LL_TIM_IsEnabledIT_BRK(TIM_TypeDef *TIMx)
{
  return ((READ_BIT(TIMx->DIER, TIM_DIER_BIE) == (TIM_DIER_BIE)) ? 1UL : 0UL);
 8001f02:	68d9      	ldr	r1, [r3, #12]
 8001f04:	420a      	tst	r2, r1
 8001f06:	d005      	beq.n	8001f14 <TIM1_BRK_UP_TRG_COM_IRQHandler+0x30>
  WRITE_REG(TIMx->SR, ~(TIM_SR_BIF));
 8001f08:	3a02      	subs	r2, #2
 8001f0a:	3aff      	subs	r2, #255	; 0xff
    /* USER CODE END PWM_Update */
  }
  if(LL_TIM_IsActiveFlag_BRK(PWM_Handle_M1.pParams_str->TIMx) && LL_TIM_IsEnabledIT_BRK(PWM_Handle_M1.pParams_str->TIMx))
  {
    LL_TIM_ClearFlag_BRK(PWM_Handle_M1.pParams_str->TIMx);
    F0XX_BRK_IRQHandler(&PWM_Handle_M1);
 8001f0c:	0020      	movs	r0, r4
 8001f0e:	611a      	str	r2, [r3, #16]
 8001f10:	f003 fb40 	bl	8005594 <F0XX_BRK_IRQHandler>
   /* No other interrupts are routed to this handler */
  }
  /* USER CODE BEGIN TIMx_UP_BRK_M1_IRQn 1 */

  /* USER CODE END TIMx_UP_BRK_M1_IRQn 1 */
}
 8001f14:	bd10      	pop	{r4, pc}
  WRITE_REG(TIMx->SR, ~(TIM_SR_UIF));
 8001f16:	3a03      	subs	r2, #3
 8001f18:	611a      	str	r2, [r3, #16]
    R3_1_TIMx_UP_IRQHandler( &PWM_Handle_M1 );
 8001f1a:	0020      	movs	r0, r4
 8001f1c:	f003 fafc 	bl	8005518 <R3_1_TIMx_UP_IRQHandler>
  if(LL_TIM_IsActiveFlag_BRK(PWM_Handle_M1.pParams_str->TIMx) && LL_TIM_IsEnabledIT_BRK(PWM_Handle_M1.pParams_str->TIMx))
 8001f20:	6fa3      	ldr	r3, [r4, #120]	; 0x78
 8001f22:	681b      	ldr	r3, [r3, #0]
 8001f24:	e7e9      	b.n	8001efa <TIM1_BRK_UP_TRG_COM_IRQHandler+0x16>
 8001f26:	46c0      	nop			; (mov r8, r8)
 8001f28:	20000314 	.word	0x20000314

08001f2c <DMA1_Channel4_5_IRQHandler>:
  * @param  DMAx DMAx Instance
  * @retval State of bit (1 or 0).
  */
__STATIC_INLINE uint32_t LL_DMA_IsActiveFlag_TC4(DMA_TypeDef *DMAx)
{
  return (READ_BIT(DMAx->ISR, DMA_ISR_TCIF4) == (DMA_ISR_TCIF4));
 8001f2c:	2280      	movs	r2, #128	; 0x80
 8001f2e:	4b03      	ldr	r3, [pc, #12]	; (8001f3c <DMA1_Channel4_5_IRQHandler+0x10>)
 8001f30:	0192      	lsls	r2, r2, #6
 8001f32:	6819      	ldr	r1, [r3, #0]
{
  /* USER CODE BEGIN DMAx_R1_M1_IRQn 0 */

  /* USER CODE END DMAx_R1_M1_IRQn 0 */

  if (LL_DMA_IsActiveFlag_TC4(DMA1))
 8001f34:	4211      	tst	r1, r2
 8001f36:	d000      	beq.n	8001f3a <DMA1_Channel4_5_IRQHandler+0xe>
  * @param  DMAx DMAx Instance
  * @retval None
  */
__STATIC_INLINE void LL_DMA_ClearFlag_TC4(DMA_TypeDef *DMAx)
{
  WRITE_REG(DMAx->IFCR, DMA_IFCR_CTCIF4);
 8001f38:	605a      	str	r2, [r3, #4]
    /* USER CODE END DMAx_R1_M1_TC4 */
  }
  /* USER CODE BEGIN DMAx_R1_M1_IRQn 1 */

  /* USER CODE END DMAx_R1_M1_IRQn 1 */
}
 8001f3a:	4770      	bx	lr
 8001f3c:	40020000 	.word	0x40020000

08001f40 <TIM2_IRQHandler>:
  * @brief  This function handles TIMx global interrupt request for M1 Speed Sensor.
  * @param  None
  * @retval None
  */
void SPD_TIM_M1_IRQHandler(void)
{
 8001f40:	b510      	push	{r4, lr}
  /* USER CODE BEGIN SPD_TIM_M1_IRQn 0 */

  /* USER CODE END SPD_TIM_M1_IRQn 0 */

  /* HALL Timer Update IT always enabled, no need to check enable UPDATE state */
  if (LL_TIM_IsActiveFlag_UPDATE(HALL_M1.TIMx) != 0)
 8001f42:	4c0b      	ldr	r4, [pc, #44]	; (8001f70 <TIM2_IRQHandler+0x30>)
 8001f44:	6ae3      	ldr	r3, [r4, #44]	; 0x2c
  return ((READ_BIT(TIMx->SR, TIM_SR_UIF) == (TIM_SR_UIF)) ? 1UL : 0UL);
 8001f46:	691a      	ldr	r2, [r3, #16]
 8001f48:	07d2      	lsls	r2, r2, #31
 8001f4a:	d506      	bpl.n	8001f5a <TIM2_IRQHandler+0x1a>
  WRITE_REG(TIMx->SR, ~(TIM_SR_UIF));
 8001f4c:	2202      	movs	r2, #2
 8001f4e:	4252      	negs	r2, r2
 8001f50:	611a      	str	r2, [r3, #16]
  {
    LL_TIM_ClearFlag_UPDATE(HALL_M1.TIMx);
    HALL_TIMx_UP_IRQHandler(&HALL_M1);
 8001f52:	0020      	movs	r0, r4
 8001f54:	f002 fc4a 	bl	80047ec <HALL_TIMx_UP_IRQHandler>
  else
  {
    /* Nothing to do */
  }
  /* HALL Timer CC1 IT always enabled, no need to check enable CC1 state */
  if (LL_TIM_IsActiveFlag_CC1 (HALL_M1.TIMx))
 8001f58:	6ae3      	ldr	r3, [r4, #44]	; 0x2c
  return ((READ_BIT(TIMx->SR, TIM_SR_CC1IF) == (TIM_SR_CC1IF)) ? 1UL : 0UL);
 8001f5a:	691a      	ldr	r2, [r3, #16]
 8001f5c:	0792      	lsls	r2, r2, #30
 8001f5e:	d505      	bpl.n	8001f6c <TIM2_IRQHandler+0x2c>
  WRITE_REG(TIMx->SR, ~(TIM_SR_CC1IF));
 8001f60:	2203      	movs	r2, #3
 8001f62:	4252      	negs	r2, r2
  {
    LL_TIM_ClearFlag_CC1(HALL_M1.TIMx);
    HALL_TIMx_CC_IRQHandler(&HALL_M1);
 8001f64:	0020      	movs	r0, r4
 8001f66:	611a      	str	r2, [r3, #16]
 8001f68:	f002 faa4 	bl	80044b4 <HALL_TIMx_CC_IRQHandler>
  /* Nothing to do */
  }
  /* USER CODE BEGIN SPD_TIM_M1_IRQn 1 */

  /* USER CODE END SPD_TIM_M1_IRQn 1 */
}
 8001f6c:	bd10      	pop	{r4, pc}
 8001f6e:	46c0      	nop			; (mov r8, r8)
 8001f70:	200000b4 	.word	0x200000b4

08001f74 <USART1_IRQHandler>:
  * @brief  This function handles USART interrupt request.
  * @param  None
  * @retval None
  */
void USART_IRQHandler(void)
{
 8001f74:	b570      	push	{r4, r5, r6, lr}
  /* USER CODE BEGIN USART_IRQn 0 */

  /* USER CODE END USART_IRQn 0 */
  if (LL_USART_IsActiveFlag_RXNE(pUSART.USARTx)) /* Valid data have been received */
 8001f76:	2590      	movs	r5, #144	; 0x90
 8001f78:	4c18      	ldr	r4, [pc, #96]	; (8001fdc <USART1_IRQHandler+0x68>)
 8001f7a:	006d      	lsls	r5, r5, #1
 8001f7c:	5963      	ldr	r3, [r4, r5]
  * @param  USARTx USART Instance
  * @retval State of bit (1 or 0).
  */
__STATIC_INLINE uint32_t LL_USART_IsActiveFlag_RXNE(USART_TypeDef *USARTx)
{
  return ((READ_BIT(USARTx->ISR, USART_ISR_RXNE) == (USART_ISR_RXNE)) ? 1UL : 0UL);
 8001f7e:	69da      	ldr	r2, [r3, #28]
 8001f80:	0692      	lsls	r2, r2, #26
 8001f82:	d50b      	bpl.n	8001f9c <USART1_IRQHandler+0x28>
  {
    uint16_t retVal;
    retVal = *(uint16_t*)(UFCP_RX_IRQ_Handler(&pUSART,LL_USART_ReceiveData8(pUSART.USARTx)));
 8001f84:	21ff      	movs	r1, #255	; 0xff
  * @param  USARTx USART Instance
  * @retval Value between Min_Data=0x00 and Max_Data=0xFF
  */
__STATIC_INLINE uint8_t LL_USART_ReceiveData8(USART_TypeDef *USARTx)
{
  return (uint8_t)(READ_BIT(USARTx->RDR, USART_RDR_RDR) & 0xFFU);
 8001f86:	8c9b      	ldrh	r3, [r3, #36]	; 0x24
 8001f88:	0020      	movs	r0, r4
 8001f8a:	4019      	ands	r1, r3
 8001f8c:	f003 fdd0 	bl	8005b30 <UFCP_RX_IRQ_Handler>
 8001f90:	8803      	ldrh	r3, [r0, #0]
    if (retVal == 1)
 8001f92:	2b01      	cmp	r3, #1
 8001f94:	d01d      	beq.n	8001fd2 <USART1_IRQHandler+0x5e>
    {
      UI_SerialCommunicationTimeOutStart();
    }
    if (retVal == 2)
 8001f96:	2b02      	cmp	r3, #2
 8001f98:	d017      	beq.n	8001fca <USART1_IRQHandler+0x56>
  /* USER CODE BEGIN USART_RXNE */

  /* USER CODE END USART_RXNE  */
  }

  if (LL_USART_IsActiveFlag_TXE(pUSART.USARTx))
 8001f9a:	5963      	ldr	r3, [r4, r5]
  return ((READ_BIT(USARTx->ISR, USART_ISR_TXE) == (USART_ISR_TXE)) ? 1UL : 0UL);
 8001f9c:	69da      	ldr	r2, [r3, #28]
 8001f9e:	0612      	lsls	r2, r2, #24
 8001fa0:	d505      	bpl.n	8001fae <USART1_IRQHandler+0x3a>
  {
    UFCP_TX_IRQ_Handler(&pUSART);
 8001fa2:	0020      	movs	r0, r4
 8001fa4:	f003 fd16 	bl	80059d4 <UFCP_TX_IRQ_Handler>
    /* USER CODE BEGIN USART_TXE */

    /* USER CODE END USART_TXE   */
  }

  if (LL_USART_IsActiveFlag_ORE(pUSART.USARTx)) /* Overrun error occurs */
 8001fa8:	2390      	movs	r3, #144	; 0x90
 8001faa:	005b      	lsls	r3, r3, #1
 8001fac:	58e3      	ldr	r3, [r4, r3]
  return ((READ_BIT(USARTx->ISR, USART_ISR_ORE) == (USART_ISR_ORE)) ? 1UL : 0UL);
 8001fae:	2508      	movs	r5, #8
 8001fb0:	69db      	ldr	r3, [r3, #28]
 8001fb2:	421d      	tst	r5, r3
 8001fb4:	d008      	beq.n	8001fc8 <USART1_IRQHandler+0x54>
  {
    /* Send Overrun message */
    UFCP_OVR_IRQ_Handler(&pUSART);
 8001fb6:	0020      	movs	r0, r4
 8001fb8:	f003 fe22 	bl	8005c00 <UFCP_OVR_IRQ_Handler>
    LL_USART_ClearFlag_ORE(pUSART.USARTx); /* Clear overrun flag */
 8001fbc:	2390      	movs	r3, #144	; 0x90
 8001fbe:	005b      	lsls	r3, r3, #1
 8001fc0:	58e3      	ldr	r3, [r4, r3]
  WRITE_REG(USARTx->ICR, USART_ICR_ORECF);
 8001fc2:	621d      	str	r5, [r3, #32]
    UI_SerialCommunicationTimeOutStop();
 8001fc4:	f000 f8c4 	bl	8002150 <UI_SerialCommunicationTimeOutStop>
    /* USER CODE END USART_ORE   */
  }
  /* USER CODE BEGIN USART_IRQn 1 */

  /* USER CODE END USART_IRQn 1 */
}
 8001fc8:	bd70      	pop	{r4, r5, r6, pc}
      UI_SerialCommunicationTimeOutStop();
 8001fca:	f000 f8c1 	bl	8002150 <UI_SerialCommunicationTimeOutStop>
  if (LL_USART_IsActiveFlag_TXE(pUSART.USARTx))
 8001fce:	5963      	ldr	r3, [r4, r5]
 8001fd0:	e7e4      	b.n	8001f9c <USART1_IRQHandler+0x28>
      UI_SerialCommunicationTimeOutStart();
 8001fd2:	f000 f8c3 	bl	800215c <UI_SerialCommunicationTimeOutStart>
  if (LL_USART_IsActiveFlag_TXE(pUSART.USARTx))
 8001fd6:	5963      	ldr	r3, [r4, r5]
 8001fd8:	e7e0      	b.n	8001f9c <USART1_IRQHandler+0x28>
 8001fda:	46c0      	nop			; (mov r8, r8)
 8001fdc:	20000450 	.word	0x20000450

08001fe0 <HardFault_Handler>:
  * @brief  This function handles Hard Fault exception.
  * @param  None
  * @retval None
  */
void HardFault_Handler(void)
{
 8001fe0:	b5f8      	push	{r3, r4, r5, r6, r7, lr}

  /* Go to infinite loop when Hard Fault exception occurs */
  while (1)
  {
    {
      if (LL_USART_IsActiveFlag_ORE(pUSART.USARTx)) /* Overrun error occurs */
 8001fe2:	2590      	movs	r5, #144	; 0x90
  TSK_HardwareFaultTask();
 8001fe4:	f7ff f940 	bl	8001268 <TSK_HardwareFaultTask>
 8001fe8:	4c17      	ldr	r4, [pc, #92]	; (8002048 <HardFault_Handler+0x68>)
      if (LL_USART_IsActiveFlag_ORE(pUSART.USARTx)) /* Overrun error occurs */
 8001fea:	006d      	lsls	r5, r5, #1
  return ((READ_BIT(USARTx->ISR, USART_ISR_ORE) == (USART_ISR_ORE)) ? 1UL : 0UL);
 8001fec:	2608      	movs	r6, #8
  return ((READ_BIT(USARTx->ISR, USART_ISR_TXE) == (USART_ISR_TXE)) ? 1UL : 0UL);
 8001fee:	2780      	movs	r7, #128	; 0x80
 8001ff0:	5963      	ldr	r3, [r4, r5]
  return ((READ_BIT(USARTx->ISR, USART_ISR_ORE) == (USART_ISR_ORE)) ? 1UL : 0UL);
 8001ff2:	69da      	ldr	r2, [r3, #28]
 8001ff4:	4216      	tst	r6, r2
 8001ff6:	d007      	beq.n	8002008 <HardFault_Handler+0x28>
      {
        /* Send Overrun message */
        UFCP_OVR_IRQ_Handler(&pUSART);
 8001ff8:	0020      	movs	r0, r4
 8001ffa:	f003 fe01 	bl	8005c00 <UFCP_OVR_IRQ_Handler>
        LL_USART_ClearFlag_ORE(pUSART.USARTx); /* Clear overrun flag */
 8001ffe:	5963      	ldr	r3, [r4, r5]
  WRITE_REG(USARTx->ICR, USART_ICR_ORECF);
 8002000:	621e      	str	r6, [r3, #32]
        UI_SerialCommunicationTimeOutStop();
 8002002:	f000 f8a5 	bl	8002150 <UI_SerialCommunicationTimeOutStop>
      }

      if (LL_USART_IsActiveFlag_TXE(pUSART.USARTx))
 8002006:	5963      	ldr	r3, [r4, r5]
  return ((READ_BIT(USARTx->ISR, USART_ISR_TXE) == (USART_ISR_TXE)) ? 1UL : 0UL);
 8002008:	69da      	ldr	r2, [r3, #28]
 800200a:	4217      	tst	r7, r2
 800200c:	d014      	beq.n	8002038 <HardFault_Handler+0x58>
      {
        UFCP_TX_IRQ_Handler(&pUSART);
 800200e:	0020      	movs	r0, r4
 8002010:	f003 fce0 	bl	80059d4 <UFCP_TX_IRQ_Handler>
      }

      if (LL_USART_IsActiveFlag_RXNE(pUSART.USARTx)) /* Valid data have been received */
 8002014:	5963      	ldr	r3, [r4, r5]
  return ((READ_BIT(USARTx->ISR, USART_ISR_RXNE) == (USART_ISR_RXNE)) ? 1UL : 0UL);
 8002016:	69da      	ldr	r2, [r3, #28]
 8002018:	0692      	lsls	r2, r2, #26
 800201a:	d5ea      	bpl.n	8001ff2 <HardFault_Handler+0x12>
      {
        uint16_t retVal;
        retVal = *(uint16_t*)(UFCP_RX_IRQ_Handler(&pUSART,LL_USART_ReceiveData8(pUSART.USARTx)));
 800201c:	21ff      	movs	r1, #255	; 0xff
  return (uint8_t)(READ_BIT(USARTx->RDR, USART_RDR_RDR) & 0xFFU);
 800201e:	8c9b      	ldrh	r3, [r3, #36]	; 0x24
 8002020:	0020      	movs	r0, r4
 8002022:	4019      	ands	r1, r3
 8002024:	f003 fd84 	bl	8005b30 <UFCP_RX_IRQ_Handler>
 8002028:	8803      	ldrh	r3, [r0, #0]
        if (retVal == 1)
 800202a:	2b01      	cmp	r3, #1
 800202c:	d008      	beq.n	8002040 <HardFault_Handler+0x60>
        {
          UI_SerialCommunicationTimeOutStart();
        }
        if (retVal == 2)
 800202e:	2b02      	cmp	r3, #2
 8002030:	d1dd      	bne.n	8001fee <HardFault_Handler+0xe>
        {
          UI_SerialCommunicationTimeOutStop();
 8002032:	f000 f88d 	bl	8002150 <UI_SerialCommunicationTimeOutStop>
 8002036:	e7d9      	b.n	8001fec <HardFault_Handler+0xc>
  return ((READ_BIT(USARTx->ISR, USART_ISR_RXNE) == (USART_ISR_RXNE)) ? 1UL : 0UL);
 8002038:	69da      	ldr	r2, [r3, #28]
 800203a:	0692      	lsls	r2, r2, #26
 800203c:	d5d9      	bpl.n	8001ff2 <HardFault_Handler+0x12>
 800203e:	e7ed      	b.n	800201c <HardFault_Handler+0x3c>
          UI_SerialCommunicationTimeOutStart();
 8002040:	f000 f88c 	bl	800215c <UI_SerialCommunicationTimeOutStart>
        if (retVal == 2)
 8002044:	e7d3      	b.n	8001fee <HardFault_Handler+0xe>
 8002046:	46c0      	nop			; (mov r8, r8)
 8002048:	20000450 	.word	0x20000450

0800204c <SysTick_Handler>:
 /* USER CODE END HardFault_IRQn 1 */

}

void SysTick_Handler(void)
{
 800204c:	b510      	push	{r4, lr}
#ifdef MC_HAL_IS_USED
static uint8_t SystickDividerCounter = SYSTICK_DIVIDER;
  /* USER CODE BEGIN SysTick_IRQn 0 */

  /* USER CODE END SysTick_IRQn 0 */
  if (SystickDividerCounter == SYSTICK_DIVIDER)
 800204e:	4c08      	ldr	r4, [pc, #32]	; (8002070 <SysTick_Handler+0x24>)
 8002050:	7823      	ldrb	r3, [r4, #0]
 8002052:	2b02      	cmp	r3, #2
 8002054:	d005      	beq.n	8002062 <SysTick_Handler+0x16>
  {
    HAL_IncTick();
    HAL_SYSTICK_IRQHandler();
    SystickDividerCounter = 0;
  }
  SystickDividerCounter ++;
 8002056:	3301      	adds	r3, #1
 8002058:	b2db      	uxtb	r3, r3
 800205a:	7023      	strb	r3, [r4, #0]
#endif /* MC_HAL_IS_USED */

  /* USER CODE BEGIN SysTick_IRQn 1 */
  /* USER CODE END SysTick_IRQn 1 */
    MC_RunMotorControlTasks();
 800205c:	f7ff f8f4 	bl	8001248 <MC_RunMotorControlTasks>

  /* USER CODE BEGIN SysTick_IRQn 2 */
  /* USER CODE END SysTick_IRQn 2 */
}
 8002060:	bd10      	pop	{r4, pc}
    HAL_IncTick();
 8002062:	f000 fb13 	bl	800268c <HAL_IncTick>
    HAL_SYSTICK_IRQHandler();
 8002066:	f000 fcb9 	bl	80029dc <HAL_SYSTICK_IRQHandler>
 800206a:	2301      	movs	r3, #1
 800206c:	e7f5      	b.n	800205a <SysTick_Handler+0xe>
 800206e:	46c0      	nop			; (mov r8, r8)
 8002070:	20000590 	.word	0x20000590

08002074 <EXTI0_1_IRQHandler>:
  * @note   Please check each device line mapping for EXTI Line availability
  * @retval @note This bit is set when the selected edge event arrives on the interrupt
  */
__STATIC_INLINE uint32_t LL_EXTI_ReadFlag_0_31(uint32_t ExtiLine)
{
  return (uint32_t)(READ_BIT(EXTI->PR, ExtiLine));
 8002074:	2201      	movs	r2, #1
 8002076:	4b05      	ldr	r3, [pc, #20]	; (800208c <EXTI0_1_IRQHandler+0x18>)

/**
  * @brief  This function handles Button IRQ on PIN PF0.
  */
void EXTI0_1_IRQHandler (void)
{
 8002078:	b510      	push	{r4, lr}
 800207a:	6959      	ldr	r1, [r3, #20]
	/* USER CODE BEGIN START_STOP_BTN */
  if ( LL_EXTI_ReadFlag_0_31(LL_EXTI_LINE_0) )
 800207c:	420a      	tst	r2, r1
 800207e:	d100      	bne.n	8002082 <EXTI0_1_IRQHandler+0xe>
  {
    LL_EXTI_ClearFlag_0_31 (LL_EXTI_LINE_0);
    UI_HandleStartStopButton_cb ();
  }

}
 8002080:	bd10      	pop	{r4, pc}
  * @note   Please check each device line mapping for EXTI Line availability
  * @retval None
  */
__STATIC_INLINE void LL_EXTI_ClearFlag_0_31(uint32_t ExtiLine)
{
  WRITE_REG(EXTI->PR, ExtiLine);
 8002082:	615a      	str	r2, [r3, #20]
    UI_HandleStartStopButton_cb ();
 8002084:	f000 f870 	bl	8002168 <UI_HandleStartStopButton_cb>
}
 8002088:	e7fa      	b.n	8002080 <EXTI0_1_IRQHandler+0xc>
 800208a:	46c0      	nop			; (mov r8, r8)
 800208c:	40010400 	.word	0x40010400

08002090 <UI_TaskInit>:
static volatile uint16_t  bCOMTimeoutCounter;
static volatile uint16_t  bCOMATRTimeCounter = SERIALCOM_ATR_TIME_TICKS;

void UI_TaskInit( uint32_t* pUICfg, uint8_t bMCNum, MCI_Handle_t* pMCIList[],
                  MCT_Handle_t* pMCTList[],const char* s_fwVer )
{
 8002090:	b5f0      	push	{r4, r5, r6, r7, lr}
 8002092:	46de      	mov	lr, fp
 8002094:	4657      	mov	r7, sl
 8002096:	464e      	mov	r6, r9
 8002098:	4645      	mov	r5, r8
 800209a:	b5e0      	push	{r5, r6, r7, lr}

    pMCP = &MCP_UI_Params;
 800209c:	4f15      	ldr	r7, [pc, #84]	; (80020f4 <UI_TaskInit+0x64>)
{
 800209e:	4683      	mov	fp, r0
    pMCP->_Super = UI_Params;
 80020a0:	003e      	movs	r6, r7
    pMCP = &MCP_UI_Params;
 80020a2:	4d15      	ldr	r5, [pc, #84]	; (80020f8 <UI_TaskInit+0x68>)
    pMCP->_Super = UI_Params;
 80020a4:	4c15      	ldr	r4, [pc, #84]	; (80020fc <UI_TaskInit+0x6c>)
    pMCP = &MCP_UI_Params;
 80020a6:	602f      	str	r7, [r5, #0]
{
 80020a8:	4688      	mov	r8, r1
 80020aa:	4691      	mov	r9, r2
 80020ac:	469a      	mov	sl, r3
    pMCP->_Super = UI_Params;
 80020ae:	cc0e      	ldmia	r4!, {r1, r2, r3}
 80020b0:	c60e      	stmia	r6!, {r1, r2, r3}
 80020b2:	cc0e      	ldmia	r4!, {r1, r2, r3}
 80020b4:	c60e      	stmia	r6!, {r1, r2, r3}

    UFCP_Init( & pUSART );
 80020b6:	4c12      	ldr	r4, [pc, #72]	; (8002100 <UI_TaskInit+0x70>)
{
 80020b8:	b083      	sub	sp, #12
    UFCP_Init( & pUSART );
 80020ba:	0020      	movs	r0, r4
 80020bc:	f003 fc86 	bl	80059cc <UFCP_Init>
    MCP_Init(pMCP, (FCP_Handle_t *) & pUSART, & UFCP_Send, & UFCP_Receive, & UFCP_AbortReceive, s_fwVer);
 80020c0:	990c      	ldr	r1, [sp, #48]	; 0x30
 80020c2:	6828      	ldr	r0, [r5, #0]
 80020c4:	9101      	str	r1, [sp, #4]
 80020c6:	490f      	ldr	r1, [pc, #60]	; (8002104 <UI_TaskInit+0x74>)
 80020c8:	4b0f      	ldr	r3, [pc, #60]	; (8002108 <UI_TaskInit+0x78>)
 80020ca:	9100      	str	r1, [sp, #0]
 80020cc:	4a0f      	ldr	r2, [pc, #60]	; (800210c <UI_TaskInit+0x7c>)
 80020ce:	0021      	movs	r1, r4
 80020d0:	f7ff fb7e 	bl	80017d0 <MCP_Init>
    UI_Init( &pMCP->_Super, bMCNum, pMCIList, pMCTList, pUICfg ); /* Initialize UI and link MC components */
 80020d4:	465b      	mov	r3, fp
 80020d6:	6828      	ldr	r0, [r5, #0]
 80020d8:	464a      	mov	r2, r9
 80020da:	9300      	str	r3, [sp, #0]
 80020dc:	4641      	mov	r1, r8
 80020de:	4653      	mov	r3, sl
 80020e0:	f000 f84e 	bl	8002180 <UI_Init>

}
 80020e4:	b003      	add	sp, #12
 80020e6:	bcf0      	pop	{r4, r5, r6, r7}
 80020e8:	46bb      	mov	fp, r7
 80020ea:	46b2      	mov	sl, r6
 80020ec:	46a9      	mov	r9, r5
 80020ee:	46a0      	mov	r8, r4
 80020f0:	bdf0      	pop	{r4, r5, r6, r7, pc}
 80020f2:	46c0      	nop			; (mov r8, r8)
 80020f4:	200008a0 	.word	0x200008a0
 80020f8:	20000954 	.word	0x20000954
 80020fc:	20000754 	.word	0x20000754
 8002100:	20000450 	.word	0x20000450
 8002104:	08005c19 	.word	0x08005c19
 8002108:	08005a45 	.word	0x08005a45
 800210c:	08005a71 	.word	0x08005a71

08002110 <UI_Scheduler>:

__weak void UI_Scheduler(void)
{
  if(bUITaskCounter > 0u)
 8002110:	4b0c      	ldr	r3, [pc, #48]	; (8002144 <UI_Scheduler+0x34>)
 8002112:	881a      	ldrh	r2, [r3, #0]
 8002114:	2a00      	cmp	r2, #0
 8002116:	d003      	beq.n	8002120 <UI_Scheduler+0x10>
  {
    bUITaskCounter--;
 8002118:	881a      	ldrh	r2, [r3, #0]
 800211a:	3a01      	subs	r2, #1
 800211c:	b292      	uxth	r2, r2
 800211e:	801a      	strh	r2, [r3, #0]
  }

  if(bCOMTimeoutCounter > 1u)
 8002120:	4a09      	ldr	r2, [pc, #36]	; (8002148 <UI_Scheduler+0x38>)
 8002122:	8813      	ldrh	r3, [r2, #0]
 8002124:	2b01      	cmp	r3, #1
 8002126:	d903      	bls.n	8002130 <UI_Scheduler+0x20>
  {
    bCOMTimeoutCounter--;
 8002128:	8813      	ldrh	r3, [r2, #0]
 800212a:	3b01      	subs	r3, #1
 800212c:	b29b      	uxth	r3, r3
 800212e:	8013      	strh	r3, [r2, #0]
  }

  if(bCOMATRTimeCounter > 1u)
 8002130:	4a06      	ldr	r2, [pc, #24]	; (800214c <UI_Scheduler+0x3c>)
 8002132:	8813      	ldrh	r3, [r2, #0]
 8002134:	2b01      	cmp	r3, #1
 8002136:	d903      	bls.n	8002140 <UI_Scheduler+0x30>
  {
    bCOMATRTimeCounter--;
 8002138:	8813      	ldrh	r3, [r2, #0]
 800213a:	3b01      	subs	r3, #1
 800213c:	b29b      	uxth	r3, r3
 800213e:	8013      	strh	r3, [r2, #0]
  }
}
 8002140:	4770      	bx	lr
 8002142:	46c0      	nop			; (mov r8, r8)
 8002144:	20000952 	.word	0x20000952
 8002148:	20000950 	.word	0x20000950
 800214c:	20000592 	.word	0x20000592

08002150 <UI_SerialCommunicationTimeOutStop>:
  return (retVal);
}

__weak void UI_SerialCommunicationTimeOutStop(void)
{
  bCOMTimeoutCounter = 0u;
 8002150:	2200      	movs	r2, #0
 8002152:	4b01      	ldr	r3, [pc, #4]	; (8002158 <UI_SerialCommunicationTimeOutStop+0x8>)
 8002154:	801a      	strh	r2, [r3, #0]
}
 8002156:	4770      	bx	lr
 8002158:	20000950 	.word	0x20000950

0800215c <UI_SerialCommunicationTimeOutStart>:

__weak void UI_SerialCommunicationTimeOutStart(void)
{
  bCOMTimeoutCounter = SERIALCOM_TIMEOUT_OCCURENCE_TICKS;
 800215c:	224f      	movs	r2, #79	; 0x4f
 800215e:	4b01      	ldr	r3, [pc, #4]	; (8002164 <UI_SerialCommunicationTimeOutStart+0x8>)
 8002160:	801a      	strh	r2, [r3, #0]
}
 8002162:	4770      	bx	lr
 8002164:	20000950 	.word	0x20000950

08002168 <UI_HandleStartStopButton_cb>:

__weak void UI_HandleStartStopButton_cb (void)
{
 8002168:	b510      	push	{r4, lr}
/* USER CODE BEGIN START_STOP_BTN */
  if (MC_GetSTMStateMotor1() == IDLE)
 800216a:	f7fe fb7d 	bl	8000868 <MC_GetSTMStateMotor1>
 800216e:	2800      	cmp	r0, #0
 8002170:	d102      	bne.n	8002178 <UI_HandleStartStopButton_cb+0x10>
  {
    /* Ramp parameters should be tuned for the actual motor */
    MC_StartMotor1();
 8002172:	f7fe fb69 	bl	8000848 <MC_StartMotor1>
  else
  {
    MC_StopMotor1();
  }
/* USER CODE END START_STOP_BTN */
}
 8002176:	bd10      	pop	{r4, pc}
    MC_StopMotor1();
 8002178:	f7fe fb6e 	bl	8000858 <MC_StopMotor1>
}
 800217c:	e7fb      	b.n	8002176 <UI_HandleStartStopButton_cb+0xe>
 800217e:	46c0      	nop			; (mov r8, r8)

08002180 <UI_Init>:
  */
__weak void UI_Init(UI_Handle_t *pHandle, uint8_t bMCNum, MCI_Handle_t ** pMCI, MCT_Handle_t** pMCT, uint32_t* pUICfg)
{
  pHandle->bDriveNum = bMCNum;
  pHandle->pMCI = pMCI;
  pHandle->pMCT = pMCT;
 8002180:	60c3      	str	r3, [r0, #12]
  pHandle->bSelectedDrive = 0u;
 8002182:	2300      	movs	r3, #0
 8002184:	7503      	strb	r3, [r0, #20]
  pHandle->pUICfg = pUICfg;
 8002186:	9b00      	ldr	r3, [sp, #0]
  pHandle->bDriveNum = bMCNum;
 8002188:	7101      	strb	r1, [r0, #4]
  pHandle->pMCI = pMCI;
 800218a:	6082      	str	r2, [r0, #8]
  pHandle->pUICfg = pUICfg;
 800218c:	6103      	str	r3, [r0, #16]
}
 800218e:	4770      	bx	lr

08002190 <UI_SelectMC>:
  * @retval Boolean set to true if the bSelectMC is valid oterwise return false.
  */
__weak bool UI_SelectMC(UI_Handle_t *pHandle,uint8_t bSelectMC)
{
  bool retVal = true;
  if (bSelectMC  >= pHandle->bDriveNum)
 8002190:	7902      	ldrb	r2, [r0, #4]
{
 8002192:	0003      	movs	r3, r0
  {
    retVal = false;
 8002194:	2000      	movs	r0, #0
  if (bSelectMC  >= pHandle->bDriveNum)
 8002196:	428a      	cmp	r2, r1
 8002198:	d901      	bls.n	800219e <UI_SelectMC+0xe>
  }
  else
  {
    pHandle->bSelectedDrive = bSelectMC;
 800219a:	7519      	strb	r1, [r3, #20]
  bool retVal = true;
 800219c:	3001      	adds	r0, #1
  }
  return retVal;
}
 800219e:	4770      	bx	lr

080021a0 <UI_GetSelectedMC>:
  * @param  pHandle: Pointer on Handle structure of UI component.
  * @retval Return the currently selected MC, zero based, on which UI operates.
  */
__weak uint8_t UI_GetSelectedMC(UI_Handle_t *pHandle)
{
  return (pHandle->bSelectedDrive);
 80021a0:	7d00      	ldrb	r0, [r0, #20]
}
 80021a2:	4770      	bx	lr

080021a4 <UI_SetReg>:
  *         See MC_PROTOCOL_REG_xxx for code definition.
  * @param  wValue: New value to set.
  * @retval Return the currently selected MC, zero based, on which UI operates.
  */
__weak bool UI_SetReg(UI_Handle_t *pHandle, MC_Protocol_REG_t bRegID, int32_t wValue)
{
 80021a4:	b570      	push	{r4, r5, r6, lr}
  MCI_Handle_t * pMCI = pHandle->pMCI[pHandle->bSelectedDrive];
 80021a6:	7d03      	ldrb	r3, [r0, #20]
{
 80021a8:	0014      	movs	r4, r2
  MCI_Handle_t * pMCI = pHandle->pMCI[pHandle->bSelectedDrive];
 80021aa:	6882      	ldr	r2, [r0, #8]
 80021ac:	009b      	lsls	r3, r3, #2
 80021ae:	58d6      	ldr	r6, [r2, r3]
  MCT_Handle_t * pMCT = pHandle->pMCT[pHandle->bSelectedDrive];
 80021b0:	68c2      	ldr	r2, [r0, #12]
{
 80021b2:	b082      	sub	sp, #8
  MCT_Handle_t * pMCT = pHandle->pMCT[pHandle->bSelectedDrive];
 80021b4:	58d3      	ldr	r3, [r2, r3]

  bool retVal = true;
  switch (bRegID)
 80021b6:	295b      	cmp	r1, #91	; 0x5b
 80021b8:	d803      	bhi.n	80021c2 <UI_SetReg+0x1e>
 80021ba:	4a42      	ldr	r2, [pc, #264]	; (80022c4 <UI_SetReg+0x120>)
 80021bc:	0089      	lsls	r1, r1, #2
 80021be:	5852      	ldr	r2, [r2, r1]
 80021c0:	4697      	mov	pc, r2
 80021c2:	2500      	movs	r5, #0
    retVal = false;
    break;
  }

  return retVal;
}
 80021c4:	0028      	movs	r0, r5
 80021c6:	b002      	add	sp, #8
 80021c8:	bd70      	pop	{r4, r5, r6, pc}
      MCI_ExecSpeedRamp(pMCI,(int16_t)((wValue*SPEED_UNIT)/_RPM),0);
 80021ca:	2106      	movs	r1, #6
 80021cc:	0020      	movs	r0, r4
 80021ce:	f7fe f825 	bl	800021c <__divsi3>
 80021d2:	2200      	movs	r2, #0
 80021d4:	b201      	sxth	r1, r0
 80021d6:	0030      	movs	r0, r6
 80021d8:	f7fe fb58 	bl	800088c <MCI_ExecSpeedRamp>
  bool retVal = true;
 80021dc:	2501      	movs	r5, #1
    break;
 80021de:	e7f1      	b.n	80021c4 <UI_SetReg+0x20>
      retVal = UI_SelectMC(pHandle,(uint8_t)wValue);
 80021e0:	b2e1      	uxtb	r1, r4
 80021e2:	f7ff ffd5 	bl	8002190 <UI_SelectMC>
 80021e6:	0005      	movs	r5, r0
    break;
 80021e8:	e7ec      	b.n	80021c4 <UI_SetReg+0x20>
      if ((STC_Modality_t)wValue == STC_TORQUE_MODE)
 80021ea:	b2e4      	uxtb	r4, r4
 80021ec:	2c00      	cmp	r4, #0
 80021ee:	d05f      	beq.n	80022b0 <UI_SetReg+0x10c>
  bool retVal = true;
 80021f0:	2501      	movs	r5, #1
      if ((STC_Modality_t)wValue == STC_SPEED_MODE)
 80021f2:	2c01      	cmp	r4, #1
 80021f4:	d1e6      	bne.n	80021c4 <UI_SetReg+0x20>
        MCI_ExecSpeedRamp(pMCI, MCI_GetMecSpeedRefUnit(pMCI),0);
 80021f6:	0030      	movs	r0, r6
 80021f8:	f7fe fbda 	bl	80009b0 <MCI_GetMecSpeedRefUnit>
 80021fc:	2200      	movs	r2, #0
 80021fe:	0001      	movs	r1, r0
 8002200:	0030      	movs	r0, r6
 8002202:	f7fe fb43 	bl	800088c <MCI_ExecSpeedRamp>
 8002206:	e7dd      	b.n	80021c4 <UI_SetReg+0x20>
      PID_SetKP(pMCT->pPIDSpeed,(int16_t)wValue);
 8002208:	6818      	ldr	r0, [r3, #0]
 800220a:	b221      	sxth	r1, r4
 800220c:	f002 fc4c 	bl	8004aa8 <PID_SetKP>
  bool retVal = true;
 8002210:	2501      	movs	r5, #1
    break;
 8002212:	e7d7      	b.n	80021c4 <UI_SetReg+0x20>
      PID_SetKI(pMCT->pPIDSpeed,(int16_t)wValue);
 8002214:	6818      	ldr	r0, [r3, #0]
 8002216:	b221      	sxth	r1, r4
 8002218:	f002 fc48 	bl	8004aac <PID_SetKI>
  bool retVal = true;
 800221c:	2501      	movs	r5, #1
    break;
 800221e:	e7d1      	b.n	80021c4 <UI_SetReg+0x20>
      PID_SetKD(pMCT->pPIDSpeed,(int16_t)wValue);
 8002220:	6818      	ldr	r0, [r3, #0]
 8002222:	b221      	sxth	r1, r4
 8002224:	f002 fc52 	bl	8004acc <PID_SetKD>
  bool retVal = true;
 8002228:	2501      	movs	r5, #1
    break;
 800222a:	e7cb      	b.n	80021c4 <UI_SetReg+0x20>
      currComp = MCI_GetIqdref(pMCI);
 800222c:	0030      	movs	r0, r6
 800222e:	f7fe fbf5 	bl	8000a1c <MCI_GetIqdref>
      currComp.q = (int16_t)wValue;
 8002232:	ab01      	add	r3, sp, #4
      currComp = MCI_GetIqdref(pMCI);
 8002234:	9001      	str	r0, [sp, #4]
      currComp.q = (int16_t)wValue;
 8002236:	801c      	strh	r4, [r3, #0]
      MCI_SetCurrentReferences(pMCI,currComp);
 8002238:	0030      	movs	r0, r6
 800223a:	9901      	ldr	r1, [sp, #4]
 800223c:	f7fe fb36 	bl	80008ac <MCI_SetCurrentReferences>
  bool retVal = true;
 8002240:	2501      	movs	r5, #1
    break;
 8002242:	e7bf      	b.n	80021c4 <UI_SetReg+0x20>
      PID_SetKP(pMCT->pPIDIq,(int16_t)wValue);
 8002244:	6858      	ldr	r0, [r3, #4]
 8002246:	b221      	sxth	r1, r4
 8002248:	f002 fc2e 	bl	8004aa8 <PID_SetKP>
  bool retVal = true;
 800224c:	2501      	movs	r5, #1
    break;
 800224e:	e7b9      	b.n	80021c4 <UI_SetReg+0x20>
      PID_SetKI(pMCT->pPIDIq,(int16_t)wValue);
 8002250:	6858      	ldr	r0, [r3, #4]
 8002252:	b221      	sxth	r1, r4
 8002254:	f002 fc2a 	bl	8004aac <PID_SetKI>
  bool retVal = true;
 8002258:	2501      	movs	r5, #1
    break;
 800225a:	e7b3      	b.n	80021c4 <UI_SetReg+0x20>
      PID_SetKD(pMCT->pPIDIq,(int16_t)wValue);
 800225c:	6858      	ldr	r0, [r3, #4]
 800225e:	b221      	sxth	r1, r4
 8002260:	f002 fc34 	bl	8004acc <PID_SetKD>
  bool retVal = true;
 8002264:	2501      	movs	r5, #1
    break;
 8002266:	e7ad      	b.n	80021c4 <UI_SetReg+0x20>
      currComp = MCI_GetIqdref(pMCI);
 8002268:	0030      	movs	r0, r6
 800226a:	f7fe fbd7 	bl	8000a1c <MCI_GetIqdref>
      currComp.d = (int16_t)wValue;
 800226e:	ab01      	add	r3, sp, #4
      currComp = MCI_GetIqdref(pMCI);
 8002270:	9001      	str	r0, [sp, #4]
      currComp.d = (int16_t)wValue;
 8002272:	805c      	strh	r4, [r3, #2]
      MCI_SetCurrentReferences(pMCI,currComp);
 8002274:	0030      	movs	r0, r6
 8002276:	9901      	ldr	r1, [sp, #4]
 8002278:	f7fe fb18 	bl	80008ac <MCI_SetCurrentReferences>
  bool retVal = true;
 800227c:	2501      	movs	r5, #1
    break;
 800227e:	e7a1      	b.n	80021c4 <UI_SetReg+0x20>
      PID_SetKP(pMCT->pPIDId,(int16_t)wValue);
 8002280:	6898      	ldr	r0, [r3, #8]
 8002282:	b221      	sxth	r1, r4
 8002284:	f002 fc10 	bl	8004aa8 <PID_SetKP>
  bool retVal = true;
 8002288:	2501      	movs	r5, #1
    break;
 800228a:	e79b      	b.n	80021c4 <UI_SetReg+0x20>
      PID_SetKI(pMCT->pPIDId,(int16_t)wValue);
 800228c:	6898      	ldr	r0, [r3, #8]
 800228e:	b221      	sxth	r1, r4
 8002290:	f002 fc0c 	bl	8004aac <PID_SetKI>
  bool retVal = true;
 8002294:	2501      	movs	r5, #1
    break;
 8002296:	e795      	b.n	80021c4 <UI_SetReg+0x20>
      PID_SetKD(pMCT->pPIDId,(int16_t)wValue);
 8002298:	6898      	ldr	r0, [r3, #8]
 800229a:	b221      	sxth	r1, r4
 800229c:	f002 fc16 	bl	8004acc <PID_SetKD>
  bool retVal = true;
 80022a0:	2501      	movs	r5, #1
    break;
 80022a2:	e78f      	b.n	80021c4 <UI_SetReg+0x20>
      MCI_SetIdref(pMCI,(int16_t)wValue);
 80022a4:	0030      	movs	r0, r6
 80022a6:	b221      	sxth	r1, r4
 80022a8:	f7fe fbec 	bl	8000a84 <MCI_SetIdref>
  bool retVal = true;
 80022ac:	2501      	movs	r5, #1
    break;
 80022ae:	e789      	b.n	80021c4 <UI_SetReg+0x20>
        MCI_ExecTorqueRamp(pMCI, MCI_GetTeref(pMCI),0);
 80022b0:	0030      	movs	r0, r6
 80022b2:	f7fe fbe3 	bl	8000a7c <MCI_GetTeref>
 80022b6:	2200      	movs	r2, #0
 80022b8:	0001      	movs	r1, r0
 80022ba:	0030      	movs	r0, r6
 80022bc:	f7fe faee 	bl	800089c <MCI_ExecTorqueRamp>
  bool retVal = true;
 80022c0:	2501      	movs	r5, #1
 80022c2:	e77f      	b.n	80021c4 <UI_SetReg+0x20>
 80022c4:	0800624c 	.word	0x0800624c

080022c8 <UI_GetReg>:

/* Used to execute a GetReg command coming from the user. */
__weak int32_t UI_GetReg(UI_Handle_t *pHandle, MC_Protocol_REG_t bRegID, bool * success)
{
 80022c8:	b570      	push	{r4, r5, r6, lr}
  MCT_Handle_t* pMCT = pHandle->pMCT[pHandle->bSelectedDrive];
 80022ca:	7d03      	ldrb	r3, [r0, #20]
 80022cc:	68c4      	ldr	r4, [r0, #12]
 80022ce:	009b      	lsls	r3, r3, #2
 80022d0:	58e5      	ldr	r5, [r4, r3]
  MCI_Handle_t * pMCI = pHandle->pMCI[pHandle->bSelectedDrive];
 80022d2:	6884      	ldr	r4, [r0, #8]
{
 80022d4:	b08c      	sub	sp, #48	; 0x30
  MCI_Handle_t * pMCI = pHandle->pMCI[pHandle->bSelectedDrive];
 80022d6:	58e4      	ldr	r4, [r4, r3]

  int32_t bRetVal = 0;

  if ( success != (bool *) 0 )
 80022d8:	2a00      	cmp	r2, #0
 80022da:	d007      	beq.n	80022ec <UI_GetReg+0x24>
  {
    *success = true;
 80022dc:	2601      	movs	r6, #1
 80022de:	7016      	strb	r6, [r2, #0]
  }

  switch (bRegID)
 80022e0:	2981      	cmp	r1, #129	; 0x81
 80022e2:	d809      	bhi.n	80022f8 <UI_GetReg+0x30>
 80022e4:	4e79      	ldr	r6, [pc, #484]	; (80024cc <UI_GetReg+0x204>)
 80022e6:	0089      	lsls	r1, r1, #2
 80022e8:	5871      	ldr	r1, [r6, r1]
 80022ea:	468f      	mov	pc, r1
 80022ec:	2973      	cmp	r1, #115	; 0x73
 80022ee:	d805      	bhi.n	80022fc <UI_GetReg+0x34>
 80022f0:	4a77      	ldr	r2, [pc, #476]	; (80024d0 <UI_GetReg+0x208>)
 80022f2:	0089      	lsls	r1, r1, #2
 80022f4:	5852      	ldr	r2, [r2, r1]
 80022f6:	4697      	mov	pc, r2

    default:
	{
      if ( success != (bool *) 0 )
      {
        *success = false;
 80022f8:	2300      	movs	r3, #0
 80022fa:	7013      	strb	r3, [r2, #0]
  int32_t bRetVal = 0;
 80022fc:	2000      	movs	r0, #0
      }
	}
    break;
  }
  return bRetVal;
}
 80022fe:	b00c      	add	sp, #48	; 0x30
 8002300:	bd70      	pop	{r4, r5, r6, pc}
      bRetVal = MCI_GetIqdref(pMCI).d;
 8002302:	0020      	movs	r0, r4
 8002304:	f7fe fb8a 	bl	8000a1c <MCI_GetIqdref>
 8002308:	1400      	asrs	r0, r0, #16
    break;
 800230a:	e7f8      	b.n	80022fe <UI_GetReg+0x36>
      bRetVal = CTRBDID;
 800230c:	4871      	ldr	r0, [pc, #452]	; (80024d4 <UI_GetReg+0x20c>)
 800230e:	e7f6      	b.n	80022fe <UI_GetReg+0x36>
      bRetVal = MCI_GetIqdref(pMCI).q;
 8002310:	0020      	movs	r0, r4
 8002312:	f7fe fb83 	bl	8000a1c <MCI_GetIqdref>
 8002316:	b200      	sxth	r0, r0
    break;
 8002318:	e7f1      	b.n	80022fe <UI_GetReg+0x36>
      bRetVal = MCI_GetIqd(pMCI).q;
 800231a:	0020      	movs	r0, r4
 800231c:	f7fe fb6e 	bl	80009fc <MCI_GetIqd>
 8002320:	b200      	sxth	r0, r0
    break;
 8002322:	e7ec      	b.n	80022fe <UI_GetReg+0x36>
      bRetVal = MCI_GetIqd(pMCI).d;
 8002324:	0020      	movs	r0, r4
 8002326:	f7fe fb69 	bl	80009fc <MCI_GetIqd>
 800232a:	1400      	asrs	r0, r0, #16
    break;
 800232c:	e7e7      	b.n	80022fe <UI_GetReg+0x36>
      bRetVal = (int32_t)((MCI_GetMecSpeedRefUnit(pMCI) * _RPM)/SPEED_UNIT) ;
 800232e:	0020      	movs	r0, r4
 8002330:	f7fe fb3e 	bl	80009b0 <MCI_GetMecSpeedRefUnit>
 8002334:	0043      	lsls	r3, r0, #1
 8002336:	1818      	adds	r0, r3, r0
 8002338:	0040      	lsls	r0, r0, #1
 800233a:	e7e0      	b.n	80022fe <UI_GetReg+0x36>
      uint32_t hUICfg = pHandle->pUICfg[pHandle->bSelectedDrive];
 800233c:	6902      	ldr	r2, [r0, #16]
 800233e:	58d3      	ldr	r3, [r2, r3]
      if ((MAIN_SCFG_VALUE(hUICfg) == UI_SCODE_ENC) ||
 8002340:	0f1a      	lsrs	r2, r3, #28
      if ((AUX_SCFG_VALUE(hUICfg) == UI_SCODE_ENC) ||
 8002342:	011b      	lsls	r3, r3, #4
 8002344:	0f1b      	lsrs	r3, r3, #28
      if ((MAIN_SCFG_VALUE(hUICfg) == UI_SCODE_ENC) ||
 8002346:	3a01      	subs	r2, #1
      if ((AUX_SCFG_VALUE(hUICfg) == UI_SCODE_ENC) ||
 8002348:	3b01      	subs	r3, #1
      if ((MAIN_SCFG_VALUE(hUICfg) == UI_SCODE_ENC) ||
 800234a:	2a01      	cmp	r2, #1
 800234c:	d800      	bhi.n	8002350 <UI_GetReg+0x88>
 800234e:	e0b3      	b.n	80024b8 <UI_GetReg+0x1f0>
      if ((AUX_SCFG_VALUE(hUICfg) == UI_SCODE_ENC) ||
 8002350:	2b01      	cmp	r3, #1
 8002352:	d8d3      	bhi.n	80022fc <UI_GetReg+0x34>
        pSPD = pMCT->pSpeedSensorAux;
 8002354:	69e8      	ldr	r0, [r5, #28]
      if (pSPD != MC_NULL)
 8002356:	2800      	cmp	r0, #0
 8002358:	d0d0      	beq.n	80022fc <UI_GetReg+0x34>
        bRetVal = SPD_GetElAngle(pSPD);
 800235a:	f003 f97d 	bl	8005658 <SPD_GetElAngle>
 800235e:	e7ce      	b.n	80022fe <UI_GetReg+0x36>
      uint32_t hUICfg = pHandle->pUICfg[pHandle->bSelectedDrive];
 8002360:	6902      	ldr	r2, [r0, #16]
 8002362:	58d3      	ldr	r3, [r2, r3]
      if ((MAIN_SCFG_VALUE(hUICfg) == UI_SCODE_ENC) ||
 8002364:	0f1a      	lsrs	r2, r3, #28
      if ((AUX_SCFG_VALUE(hUICfg) == UI_SCODE_ENC) ||
 8002366:	011b      	lsls	r3, r3, #4
 8002368:	0f1b      	lsrs	r3, r3, #28
      if ((MAIN_SCFG_VALUE(hUICfg) == UI_SCODE_ENC) ||
 800236a:	3a01      	subs	r2, #1
      if ((AUX_SCFG_VALUE(hUICfg) == UI_SCODE_ENC) ||
 800236c:	3b01      	subs	r3, #1
      if ((MAIN_SCFG_VALUE(hUICfg) == UI_SCODE_ENC) ||
 800236e:	2a01      	cmp	r2, #1
 8002370:	d800      	bhi.n	8002374 <UI_GetReg+0xac>
 8002372:	e0a6      	b.n	80024c2 <UI_GetReg+0x1fa>
      if ((AUX_SCFG_VALUE(hUICfg) == UI_SCODE_ENC) ||
 8002374:	2b01      	cmp	r3, #1
 8002376:	d8c1      	bhi.n	80022fc <UI_GetReg+0x34>
        pSPD = pMCT->pSpeedSensorAux;
 8002378:	69e8      	ldr	r0, [r5, #28]
      if (pSPD != MC_NULL)
 800237a:	2800      	cmp	r0, #0
 800237c:	d0be      	beq.n	80022fc <UI_GetReg+0x34>
        bRetVal = SPD_GetS16Speed(pSPD);
 800237e:	f003 f9a7 	bl	80056d0 <SPD_GetS16Speed>
 8002382:	e7bc      	b.n	80022fe <UI_GetReg+0x36>
      bRetVal = MCI_GetValphabeta(pMCI).beta;
 8002384:	0020      	movs	r0, r4
 8002386:	f7fe fb69 	bl	8000a5c <MCI_GetValphabeta>
 800238a:	1400      	asrs	r0, r0, #16
    break;
 800238c:	e7b7      	b.n	80022fe <UI_GetReg+0x36>
      bRetVal = MCI_GetIab(pMCI).a;
 800238e:	0020      	movs	r0, r4
 8002390:	f7fe fb14 	bl	80009bc <MCI_GetIab>
 8002394:	b200      	sxth	r0, r0
    break;
 8002396:	e7b2      	b.n	80022fe <UI_GetReg+0x36>
      bRetVal = (int32_t)PID_GetKPDivisor(pMCT->pPIDSpeed);
 8002398:	6828      	ldr	r0, [r5, #0]
 800239a:	f002 fb93 	bl	8004ac4 <PID_GetKPDivisor>
    break;
 800239e:	e7ae      	b.n	80022fe <UI_GetReg+0x36>
      bRetVal = (int32_t)VBS_GetAvBusVoltage_V(pMCT->pBusVoltageSensor);
 80023a0:	6b28      	ldr	r0, [r5, #48]	; 0x30
 80023a2:	f001 fe71 	bl	8004088 <VBS_GetAvBusVoltage_V>
    break;
 80023a6:	e7aa      	b.n	80022fe <UI_GetReg+0x36>
      bRetVal = (int32_t)NTC_GetAvTemp_C(pMCT->pTemperatureSensor);
 80023a8:	6ae8      	ldr	r0, [r5, #44]	; 0x2c
 80023aa:	f002 fb61 	bl	8004a70 <NTC_GetAvTemp_C>
    break;
 80023ae:	e7a6      	b.n	80022fe <UI_GetReg+0x36>
      bRetVal = MPM_GetAvrgElMotorPowerW(pMCT->pMPM);
 80023b0:	6be8      	ldr	r0, [r5, #60]	; 0x3c
 80023b2:	f002 fb15 	bl	80049e0 <MPM_GetAvrgElMotorPowerW>
    break;
 80023b6:	e7a2      	b.n	80022fe <UI_GetReg+0x36>
      bRetVal = (int32_t)((MCI_GetAvrgMecSpeedUnit(pMCI) * _RPM)/SPEED_UNIT);
 80023b8:	0020      	movs	r0, r4
 80023ba:	f7fe faf1 	bl	80009a0 <MCI_GetAvrgMecSpeedUnit>
 80023be:	0043      	lsls	r3, r0, #1
 80023c0:	1818      	adds	r0, r3, r0
 80023c2:	0040      	lsls	r0, r0, #1
    break;
 80023c4:	e79b      	b.n	80022fe <UI_GetReg+0x36>
      bRetVal = MCI_GetIab(pMCI).b;
 80023c6:	0020      	movs	r0, r4
 80023c8:	f7fe faf8 	bl	80009bc <MCI_GetIab>
 80023cc:	1400      	asrs	r0, r0, #16
    break;
 80023ce:	e796      	b.n	80022fe <UI_GetReg+0x36>
      bRetVal = MCI_GetIalphabeta(pMCI).alpha;
 80023d0:	0020      	movs	r0, r4
 80023d2:	f7fe fb03 	bl	80009dc <MCI_GetIalphabeta>
 80023d6:	b200      	sxth	r0, r0
    break;
 80023d8:	e791      	b.n	80022fe <UI_GetReg+0x36>
      bRetVal = MCI_GetIalphabeta(pMCI).beta;
 80023da:	0020      	movs	r0, r4
 80023dc:	f7fe fafe 	bl	80009dc <MCI_GetIalphabeta>
 80023e0:	1400      	asrs	r0, r0, #16
    break;
 80023e2:	e78c      	b.n	80022fe <UI_GetReg+0x36>
      bRetVal = MCI_GetVqd(pMCI).q;
 80023e4:	0020      	movs	r0, r4
 80023e6:	f7fe fb29 	bl	8000a3c <MCI_GetVqd>
 80023ea:	b200      	sxth	r0, r0
    break;
 80023ec:	e787      	b.n	80022fe <UI_GetReg+0x36>
      bRetVal = (int32_t)PID_GetKI(pMCT->pPIDIq);
 80023ee:	6868      	ldr	r0, [r5, #4]
 80023f0:	f002 fb62 	bl	8004ab8 <PID_GetKI>
    break;
 80023f4:	e783      	b.n	80022fe <UI_GetReg+0x36>
      bRetVal = (int32_t)PID_GetKD(pMCT->pPIDIq);
 80023f6:	6868      	ldr	r0, [r5, #4]
 80023f8:	f002 fb6a 	bl	8004ad0 <PID_GetKD>
    break;
 80023fc:	e77f      	b.n	80022fe <UI_GetReg+0x36>
      bRetVal = (int32_t)PID_GetKP(pMCT->pPIDIq);
 80023fe:	6868      	ldr	r0, [r5, #4]
 8002400:	f002 fb56 	bl	8004ab0 <PID_GetKP>
    break;
 8002404:	e77b      	b.n	80022fe <UI_GetReg+0x36>
      bRetVal = (int32_t)PID_GetKIDivisor(pMCT->pPIDSpeed);
 8002406:	6828      	ldr	r0, [r5, #0]
 8002408:	f002 fb5e 	bl	8004ac8 <PID_GetKIDivisor>
    break;
 800240c:	e777      	b.n	80022fe <UI_GetReg+0x36>
      bRetVal = (int32_t)PID_GetKI(pMCT->pPIDId);
 800240e:	68a8      	ldr	r0, [r5, #8]
 8002410:	f002 fb52 	bl	8004ab8 <PID_GetKI>
    break;
 8002414:	e773      	b.n	80022fe <UI_GetReg+0x36>
      bRetVal = (int32_t)PID_GetKD(pMCT->pPIDId);
 8002416:	68a8      	ldr	r0, [r5, #8]
 8002418:	f002 fb5a 	bl	8004ad0 <PID_GetKD>
    break;
 800241c:	e76f      	b.n	80022fe <UI_GetReg+0x36>
      bRetVal = MCI_GetVqd(pMCI).d;
 800241e:	0020      	movs	r0, r4
 8002420:	f7fe fb0c 	bl	8000a3c <MCI_GetVqd>
 8002424:	1400      	asrs	r0, r0, #16
    break;
 8002426:	e76a      	b.n	80022fe <UI_GetReg+0x36>
      bRetVal = MCI_GetValphabeta(pMCI).alpha;
 8002428:	0020      	movs	r0, r4
 800242a:	f7fe fb17 	bl	8000a5c <MCI_GetValphabeta>
 800242e:	b200      	sxth	r0, r0
    break;
 8002430:	e765      	b.n	80022fe <UI_GetReg+0x36>
      bRetVal = (int32_t)UI_GetSelectedMC(pHandle);
 8002432:	f7ff feb5 	bl	80021a0 <UI_GetSelectedMC>
    break;
 8002436:	e762      	b.n	80022fe <UI_GetReg+0x36>
      bRetVal = (int32_t)STM_GetFaultState(pMCT->pStateMachine);
 8002438:	6aa8      	ldr	r0, [r5, #40]	; 0x28
 800243a:	f003 fac1 	bl	80059c0 <STM_GetFaultState>
	break;
 800243e:	e75e      	b.n	80022fe <UI_GetReg+0x36>
      bRetVal = (int32_t)STM_GetState(pMCT->pStateMachine);
 8002440:	6aa8      	ldr	r0, [r5, #40]	; 0x28
 8002442:	f003 fab1 	bl	80059a8 <STM_GetState>
	break;
 8002446:	e75a      	b.n	80022fe <UI_GetReg+0x36>
      bRetVal = (int32_t)MCI_GetControlMode(pMCI);
 8002448:	0020      	movs	r0, r4
 800244a:	f7fe fa99 	bl	8000980 <MCI_GetControlMode>
    break;
 800244e:	e756      	b.n	80022fe <UI_GetReg+0x36>
      bRetVal = (int32_t)PID_GetKI(pMCT->pPIDSpeed);
 8002450:	6828      	ldr	r0, [r5, #0]
 8002452:	f002 fb31 	bl	8004ab8 <PID_GetKI>
    break;
 8002456:	e752      	b.n	80022fe <UI_GetReg+0x36>
      bRetVal = (int32_t)PID_GetKD(pMCT->pPIDSpeed);
 8002458:	6828      	ldr	r0, [r5, #0]
 800245a:	f002 fb39 	bl	8004ad0 <PID_GetKD>
    break;
 800245e:	e74e      	b.n	80022fe <UI_GetReg+0x36>
      bRetVal = (int32_t)PID_GetKP(pMCT->pPIDSpeed);
 8002460:	6828      	ldr	r0, [r5, #0]
 8002462:	f002 fb25 	bl	8004ab0 <PID_GetKP>
    break;
 8002466:	e74a      	b.n	80022fe <UI_GetReg+0x36>
      bRetVal = (STC_GetMaxAppPositiveMecSpeedUnit(pMCT->pSpeednTorqueCtrl) * _RPM)/SPEED_UNIT ;
 8002468:	6a68      	ldr	r0, [r5, #36]	; 0x24
 800246a:	f003 f9f3 	bl	8005854 <STC_GetMaxAppPositiveMecSpeedUnit>
 800246e:	0043      	lsls	r3, r0, #1
 8002470:	1818      	adds	r0, r3, r0
 8002472:	0040      	lsls	r0, r0, #1
    break;
 8002474:	e743      	b.n	80022fe <UI_GetReg+0x36>
      bRetVal = (STC_GetMinAppNegativeMecSpeedUnit(pMCT->pSpeednTorqueCtrl)  * _RPM)/SPEED_UNIT ;
 8002476:	6a68      	ldr	r0, [r5, #36]	; 0x24
 8002478:	f003 f9ee 	bl	8005858 <STC_GetMinAppNegativeMecSpeedUnit>
 800247c:	0043      	lsls	r3, r0, #1
 800247e:	1818      	adds	r0, r3, r0
 8002480:	0040      	lsls	r0, r0, #1
    break;
 8002482:	e73c      	b.n	80022fe <UI_GetReg+0x36>
      bRetVal = (int32_t)(MC_UID);
 8002484:	4814      	ldr	r0, [pc, #80]	; (80024d8 <UI_GetReg+0x210>)
 8002486:	e73a      	b.n	80022fe <UI_GetReg+0x36>
      if (MCI_GetControlMode(pMCI) == STC_SPEED_MODE)
 8002488:	0020      	movs	r0, r4
 800248a:	f7fe fa79 	bl	8000980 <MCI_GetControlMode>
 800248e:	2801      	cmp	r0, #1
 8002490:	d000      	beq.n	8002494 <UI_GetReg+0x1cc>
 8002492:	e74c      	b.n	800232e <UI_GetReg+0x66>
      bRetVal = (int32_t)((MCI_GetLastRampFinalSpeed(pMCI) * _RPM)/SPEED_UNIT) ;
 8002494:	0020      	movs	r0, r4
 8002496:	f7fe fa75 	bl	8000984 <MCI_GetLastRampFinalSpeed>
 800249a:	0043      	lsls	r3, r0, #1
 800249c:	1818      	adds	r0, r3, r0
 800249e:	0040      	lsls	r0, r0, #1
 80024a0:	e72d      	b.n	80022fe <UI_GetReg+0x36>
      bRetVal = (int32_t)PID_GetKP(pMCT->pPIDId);
 80024a2:	68a8      	ldr	r0, [r5, #8]
 80024a4:	f002 fb04 	bl	8004ab0 <PID_GetKP>
    break;
 80024a8:	e729      	b.n	80022fe <UI_GetReg+0x36>
      if (pMCT->pRevupCtrl)
 80024aa:	6968      	ldr	r0, [r5, #20]
 80024ac:	2800      	cmp	r0, #0
 80024ae:	d100      	bne.n	80024b2 <UI_GetReg+0x1ea>
 80024b0:	e724      	b.n	80022fc <UI_GetReg+0x34>
        bRetVal = (int32_t)RUC_GetNumberOfPhases(pMCT->pRevupCtrl);
 80024b2:	f003 f8cd 	bl	8005650 <RUC_GetNumberOfPhases>
 80024b6:	e722      	b.n	80022fe <UI_GetReg+0x36>
      if ((AUX_SCFG_VALUE(hUICfg) == UI_SCODE_ENC) ||
 80024b8:	2b01      	cmp	r3, #1
 80024ba:	d800      	bhi.n	80024be <UI_GetReg+0x1f6>
 80024bc:	e74a      	b.n	8002354 <UI_GetReg+0x8c>
        pSPD = pMCT->pSpeedSensorMain;
 80024be:	69a8      	ldr	r0, [r5, #24]
 80024c0:	e749      	b.n	8002356 <UI_GetReg+0x8e>
      if ((AUX_SCFG_VALUE(hUICfg) == UI_SCODE_ENC) ||
 80024c2:	2b01      	cmp	r3, #1
 80024c4:	d800      	bhi.n	80024c8 <UI_GetReg+0x200>
 80024c6:	e757      	b.n	8002378 <UI_GetReg+0xb0>
        pSPD = pMCT->pSpeedSensorMain;
 80024c8:	69a8      	ldr	r0, [r5, #24]
 80024ca:	e756      	b.n	800237a <UI_GetReg+0xb2>
 80024cc:	080063bc 	.word	0x080063bc
 80024d0:	080065c4 	.word	0x080065c4
 80024d4:	0000271a 	.word	0x0000271a
 80024d8:	34a6847a 	.word	0x34a6847a

080024dc <UI_ExecCmd>:
  * @param  bCmdID: Code of command to execute.
  *         See MC_PROTOCOL_CMD_xxx for code definition.
  *  @retval Return true if the command executed succesfully, otherwise false.
*/
__weak bool UI_ExecCmd(UI_Handle_t *pHandle, uint8_t bCmdID)
{
 80024dc:	b570      	push	{r4, r5, r6, lr}
  bool retVal = true;

  MCI_Handle_t * pMCI = pHandle->pMCI[pHandle->bSelectedDrive];
 80024de:	7d03      	ldrb	r3, [r0, #20]
 80024e0:	6882      	ldr	r2, [r0, #8]
 80024e2:	009b      	lsls	r3, r3, #2
 80024e4:	589d      	ldr	r5, [r3, r2]

  switch (bCmdID)
 80024e6:	290e      	cmp	r1, #14
 80024e8:	d803      	bhi.n	80024f2 <UI_ExecCmd+0x16>
 80024ea:	4b18      	ldr	r3, [pc, #96]	; (800254c <UI_ExecCmd+0x70>)
 80024ec:	0089      	lsls	r1, r1, #2
 80024ee:	585b      	ldr	r3, [r3, r1]
 80024f0:	469f      	mov	pc, r3
 80024f2:	2400      	movs	r4, #0
    retVal = false;
	}
    break;
  }
  return retVal;
}
 80024f4:	0020      	movs	r0, r4
 80024f6:	bd70      	pop	{r4, r5, r6, pc}
  bool retVal = true;
 80024f8:	2401      	movs	r4, #1
 80024fa:	e7fb      	b.n	80024f4 <UI_ExecCmd+0x18>
      if (MCI_GetSTMState(pMCI) == IDLE)
 80024fc:	0028      	movs	r0, r5
 80024fe:	f7fe fa39 	bl	8000974 <MCI_GetSTMState>
 8002502:	2800      	cmp	r0, #0
 8002504:	d004      	beq.n	8002510 <UI_ExecCmd+0x34>
        MCI_StopMotor(pMCI);
 8002506:	0028      	movs	r0, r5
 8002508:	f7fe f9e6 	bl	80008d8 <MCI_StopMotor>
  bool retVal = true;
 800250c:	2401      	movs	r4, #1
 800250e:	e7f1      	b.n	80024f4 <UI_ExecCmd+0x18>
        MCI_StartMotor(pMCI);
 8002510:	0028      	movs	r0, r5
 8002512:	f7fe f9d5 	bl	80008c0 <MCI_StartMotor>
  bool retVal = true;
 8002516:	2401      	movs	r4, #1
 8002518:	e7ec      	b.n	80024f4 <UI_ExecCmd+0x18>
      MCI_FaultAcknowledged(pMCI);
 800251a:	0028      	movs	r0, r5
 800251c:	f7fe f9e2 	bl	80008e4 <MCI_FaultAcknowledged>
  bool retVal = true;
 8002520:	2401      	movs	r4, #1
    break;
 8002522:	e7e7      	b.n	80024f4 <UI_ExecCmd+0x18>
      MCI_EncoderAlign(pMCI);
 8002524:	0028      	movs	r0, r5
 8002526:	f7fe f9e3 	bl	80008f0 <MCI_EncoderAlign>
  bool retVal = true;
 800252a:	2401      	movs	r4, #1
    break;
 800252c:	e7e2      	b.n	80024f4 <UI_ExecCmd+0x18>
      MCI_Clear_Iqdref(pMCI);
 800252e:	0028      	movs	r0, r5
 8002530:	f7fe faac 	bl	8000a8c <MCI_Clear_Iqdref>
  bool retVal = true;
 8002534:	2401      	movs	r4, #1
    break;
 8002536:	e7dd      	b.n	80024f4 <UI_ExecCmd+0x18>
      if (MCI_GetSTMState(pMCI) == RUN)
 8002538:	0028      	movs	r0, r5
 800253a:	f7fe fa1b 	bl	8000974 <MCI_GetSTMState>
  bool retVal = true;
 800253e:	2401      	movs	r4, #1
      if (MCI_GetSTMState(pMCI) == RUN)
 8002540:	2806      	cmp	r0, #6
 8002542:	d1d7      	bne.n	80024f4 <UI_ExecCmd+0x18>
        MCI_StopRamp(pMCI);
 8002544:	0028      	movs	r0, r5
 8002546:	f7fe fa25 	bl	8000994 <MCI_StopRamp>
 800254a:	e7d3      	b.n	80024f4 <UI_ExecCmd+0x18>
 800254c:	08006794 	.word	0x08006794

08002550 <UI_ExecSpeedRamp>:
  * @param  hDurationms: Duration of the ramp expressed in milliseconds.
  *         It is possible to set 0 to perform an instantaneous change in the value.
  *  @retval Return true if the command executed succesfully, otherwise false.
  */
__weak bool UI_ExecSpeedRamp(UI_Handle_t *pHandle, int32_t wFinalMecSpeedUnit, uint16_t hDurationms)
{
 8002550:	b570      	push	{r4, r5, r6, lr}
 8002552:	0004      	movs	r4, r0
 8002554:	0008      	movs	r0, r1
  MCI_Handle_t * pMCI = pHandle->pMCI[pHandle->bSelectedDrive];

  /* Call MCI Exec Ramp */
  MCI_ExecSpeedRamp(pMCI,(int16_t)((wFinalMecSpeedUnit*SPEED_UNIT)/_RPM),hDurationms);
 8002556:	2106      	movs	r1, #6
{
 8002558:	0015      	movs	r5, r2
  MCI_ExecSpeedRamp(pMCI,(int16_t)((wFinalMecSpeedUnit*SPEED_UNIT)/_RPM),hDurationms);
 800255a:	f7fd fe5f 	bl	800021c <__divsi3>
  MCI_Handle_t * pMCI = pHandle->pMCI[pHandle->bSelectedDrive];
 800255e:	7d23      	ldrb	r3, [r4, #20]
 8002560:	68a2      	ldr	r2, [r4, #8]
 8002562:	009b      	lsls	r3, r3, #2
  MCI_ExecSpeedRamp(pMCI,(int16_t)((wFinalMecSpeedUnit*SPEED_UNIT)/_RPM),hDurationms);
 8002564:	b201      	sxth	r1, r0
 8002566:	5898      	ldr	r0, [r3, r2]
 8002568:	002a      	movs	r2, r5
 800256a:	f7fe f98f 	bl	800088c <MCI_ExecSpeedRamp>
  return true;
}
 800256e:	2001      	movs	r0, #1
 8002570:	bd70      	pop	{r4, r5, r6, pc}
 8002572:	46c0      	nop			; (mov r8, r8)

08002574 <UI_ExecTorqueRamp>:
  * @param  hDurationms: the duration of the ramp expressed in milliseconds. It
  *         is possible to set 0 to perform an instantaneous change in the value.
  *  @retval Return true if the command executed succesfully, otherwise false.
  */
__weak bool UI_ExecTorqueRamp(UI_Handle_t *pHandle, int16_t hTargetFinal, uint16_t hDurationms)
{
 8002574:	b510      	push	{r4, lr}

  MCI_Handle_t * pMCI = pHandle->pMCI[pHandle->bSelectedDrive];
 8002576:	7d03      	ldrb	r3, [r0, #20]
 8002578:	6880      	ldr	r0, [r0, #8]
 800257a:	009b      	lsls	r3, r3, #2

  /* Call MCI Exec Ramp */
  MCI_ExecTorqueRamp(pMCI,hTargetFinal,hDurationms);
 800257c:	5818      	ldr	r0, [r3, r0]
 800257e:	f7fe f98d 	bl	800089c <MCI_ExecTorqueRamp>
  return true;
}
 8002582:	2001      	movs	r0, #1
 8002584:	bd10      	pop	{r4, pc}
 8002586:	46c0      	nop			; (mov r8, r8)

08002588 <UI_GetRevupData>:
  *
  *  @retval Returns true if the command executed successfully, false otherwise.
  */
__weak bool UI_GetRevupData(UI_Handle_t *pHandle, uint8_t bStage, uint16_t* pDurationms,
                     int16_t* pFinalMecSpeedUnit, int16_t* pFinalTorque )
{
 8002588:	b5f8      	push	{r3, r4, r5, r6, r7, lr}
 800258a:	000c      	movs	r4, r1
  bool hRetVal = true;

  RevUpCtrl_Handle_t *pRevupCtrl = pHandle->pMCT[pHandle->bSelectedDrive]->pRevupCtrl;
 800258c:	7d01      	ldrb	r1, [r0, #20]
{
 800258e:	001e      	movs	r6, r3
  RevUpCtrl_Handle_t *pRevupCtrl = pHandle->pMCT[pHandle->bSelectedDrive]->pRevupCtrl;
 8002590:	68c3      	ldr	r3, [r0, #12]
 8002592:	0089      	lsls	r1, r1, #2
 8002594:	58cb      	ldr	r3, [r1, r3]
{
 8002596:	0017      	movs	r7, r2
  RevUpCtrl_Handle_t *pRevupCtrl = pHandle->pMCT[pHandle->bSelectedDrive]->pRevupCtrl;
 8002598:	695d      	ldr	r5, [r3, #20]
    *pFinalMecSpeedUnit = RUC_GetPhaseFinalMecSpeedUnit(pRevupCtrl, bStage);
    *pFinalTorque = RUC_GetPhaseFinalTorque(pRevupCtrl, bStage);
  }
  else
  {
    hRetVal = false;
 800259a:	2000      	movs	r0, #0
  if (pRevupCtrl)
 800259c:	2d00      	cmp	r5, #0
 800259e:	d010      	beq.n	80025c2 <UI_GetRevupData+0x3a>
    *pDurationms = RUC_GetPhaseDurationms(pRevupCtrl, bStage);
 80025a0:	0021      	movs	r1, r4
 80025a2:	0028      	movs	r0, r5
 80025a4:	f003 f83e 	bl	8005624 <RUC_GetPhaseDurationms>
    *pFinalMecSpeedUnit = RUC_GetPhaseFinalMecSpeedUnit(pRevupCtrl, bStage);
 80025a8:	0021      	movs	r1, r4
    *pDurationms = RUC_GetPhaseDurationms(pRevupCtrl, bStage);
 80025aa:	8038      	strh	r0, [r7, #0]
    *pFinalMecSpeedUnit = RUC_GetPhaseFinalMecSpeedUnit(pRevupCtrl, bStage);
 80025ac:	0028      	movs	r0, r5
 80025ae:	f003 f83f 	bl	8005630 <RUC_GetPhaseFinalMecSpeedUnit>
    *pFinalTorque = RUC_GetPhaseFinalTorque(pRevupCtrl, bStage);
 80025b2:	0021      	movs	r1, r4
    *pFinalMecSpeedUnit = RUC_GetPhaseFinalMecSpeedUnit(pRevupCtrl, bStage);
 80025b4:	8030      	strh	r0, [r6, #0]
    *pFinalTorque = RUC_GetPhaseFinalTorque(pRevupCtrl, bStage);
 80025b6:	0028      	movs	r0, r5
 80025b8:	f003 f842 	bl	8005640 <RUC_GetPhaseFinalTorque>
 80025bc:	9b06      	ldr	r3, [sp, #24]
 80025be:	8018      	strh	r0, [r3, #0]
  bool hRetVal = true;
 80025c0:	2001      	movs	r0, #1
  }
  return hRetVal;
}
 80025c2:	bdf8      	pop	{r3, r4, r5, r6, r7, pc}

080025c4 <UI_SetRevupData>:
  *         digit.
  *  @retval Return true if the command executed successfully, otherwise false.
  */
__weak bool UI_SetRevupData(UI_Handle_t *pHandle, uint8_t bStage, uint16_t hDurationms,
                     int16_t hFinalMecSpeedUnit, int16_t hFinalTorque )
{
 80025c4:	b5f8      	push	{r3, r4, r5, r6, r7, lr}
 80025c6:	000c      	movs	r4, r1
 80025c8:	001e      	movs	r6, r3
 80025ca:	ab06      	add	r3, sp, #24
 80025cc:	2700      	movs	r7, #0
 80025ce:	5fdf      	ldrsh	r7, [r3, r7]
  RevUpCtrl_Handle_t *pRevupCtrl = pHandle->pMCT[pHandle->bSelectedDrive]->pRevupCtrl;
 80025d0:	7d03      	ldrb	r3, [r0, #20]
 80025d2:	68c1      	ldr	r1, [r0, #12]
 80025d4:	009b      	lsls	r3, r3, #2
 80025d6:	585b      	ldr	r3, [r3, r1]
  RUC_SetPhaseDurationms(pRevupCtrl, bStage, hDurationms);
 80025d8:	0021      	movs	r1, r4
  RevUpCtrl_Handle_t *pRevupCtrl = pHandle->pMCT[pHandle->bSelectedDrive]->pRevupCtrl;
 80025da:	695d      	ldr	r5, [r3, #20]
  RUC_SetPhaseDurationms(pRevupCtrl, bStage, hDurationms);
 80025dc:	0028      	movs	r0, r5
 80025de:	f003 f80f 	bl	8005600 <RUC_SetPhaseDurationms>
  RUC_SetPhaseFinalMecSpeedUnit(pRevupCtrl, bStage, hFinalMecSpeedUnit);
 80025e2:	0032      	movs	r2, r6
 80025e4:	0028      	movs	r0, r5
 80025e6:	0021      	movs	r1, r4
 80025e8:	f003 f810 	bl	800560c <RUC_SetPhaseFinalMecSpeedUnit>
  RUC_SetPhaseFinalTorque(pRevupCtrl, bStage, hFinalTorque);
 80025ec:	0028      	movs	r0, r5
 80025ee:	003a      	movs	r2, r7
 80025f0:	0021      	movs	r1, r4
 80025f2:	f003 f811 	bl	8005618 <RUC_SetPhaseFinalTorque>
  return true;
}
 80025f6:	2001      	movs	r0, #1
 80025f8:	bdf8      	pop	{r3, r4, r5, r6, r7, pc}
 80025fa:	46c0      	nop			; (mov r8, r8)

080025fc <UI_SetCurrentReferences>:
  * @param  hIdRef: Current Id reference on qd reference frame.
  *         This value is expressed in digit. See hIqRef param description.
  * @retval none.
  */
__weak void UI_SetCurrentReferences(UI_Handle_t *pHandle, int16_t hIqRef, int16_t hIdRef)
{
 80025fc:	b500      	push	{lr}

  MCI_Handle_t * pMCI = pHandle->pMCI[pHandle->bSelectedDrive];
 80025fe:	7d03      	ldrb	r3, [r0, #20]
 8002600:	6880      	ldr	r0, [r0, #8]
{
 8002602:	b083      	sub	sp, #12
  MCI_Handle_t * pMCI = pHandle->pMCI[pHandle->bSelectedDrive];
 8002604:	009b      	lsls	r3, r3, #2
 8002606:	5818      	ldr	r0, [r3, r0]
  qd_t currComp;
  currComp.q = hIqRef;
 8002608:	ab01      	add	r3, sp, #4
 800260a:	8019      	strh	r1, [r3, #0]
  currComp.d = hIdRef;
 800260c:	805a      	strh	r2, [r3, #2]
  MCI_SetCurrentReferences(pMCI,currComp);
 800260e:	9901      	ldr	r1, [sp, #4]
 8002610:	f7fe f94c 	bl	80008ac <MCI_SetCurrentReferences>
}
 8002614:	b003      	add	sp, #12
 8002616:	bd00      	pop	{pc}

08002618 <UI_GetMPInfo>:
  * @retval true if MP is enabled, false otherwise.
  */
__weak bool UI_GetMPInfo(pMPInfo_t stepList, pMPInfo_t pMPInfo)
{
    return false;
}
 8002618:	2000      	movs	r0, #0
 800261a:	4770      	bx	lr

0800261c <SystemInit>:
                         before branch to main program. This call is made inside
                         the "startup_stm32f0xx.s" file.
                         User can setups the default system clock (System clock source, PLL Multiplier
                         and Divider factors, AHB/APBx prescalers and Flash settings).
   */
}
 800261c:	4770      	bx	lr
 800261e:	46c0      	nop			; (mov r8, r8)

08002620 <HAL_InitTick>:
  *       implementation  in user file.
  * @param TickPriority Tick interrupt priority.
  * @retval HAL status
  */
__weak HAL_StatusTypeDef HAL_InitTick(uint32_t TickPriority)
{
 8002620:	b570      	push	{r4, r5, r6, lr}
 8002622:	0004      	movs	r4, r0
  /*Configure the SysTick to have interrupt in 1ms time basis*/
  if (HAL_SYSTICK_Config(SystemCoreClock / (1000U / uwTickFreq)) > 0U)
 8002624:	20fa      	movs	r0, #250	; 0xfa
 8002626:	4b0e      	ldr	r3, [pc, #56]	; (8002660 <HAL_InitTick+0x40>)
 8002628:	0080      	lsls	r0, r0, #2
 800262a:	7819      	ldrb	r1, [r3, #0]
 800262c:	f7fd fd6c 	bl	8000108 <__udivsi3>
 8002630:	4d0c      	ldr	r5, [pc, #48]	; (8002664 <HAL_InitTick+0x44>)
 8002632:	0001      	movs	r1, r0
 8002634:	6828      	ldr	r0, [r5, #0]
 8002636:	f7fd fd67 	bl	8000108 <__udivsi3>
 800263a:	f000 f9b3 	bl	80029a4 <HAL_SYSTICK_Config>
 800263e:	2800      	cmp	r0, #0
 8002640:	d10c      	bne.n	800265c <HAL_InitTick+0x3c>
  {
    return HAL_ERROR;
 8002642:	3001      	adds	r0, #1
  }

  /* Configure the SysTick IRQ priority */
  if (TickPriority < (1UL << __NVIC_PRIO_BITS))
 8002644:	2c03      	cmp	r4, #3
 8002646:	d900      	bls.n	800264a <HAL_InitTick+0x2a>
    return HAL_ERROR;
  }

   /* Return function status */
  return HAL_OK;
}
 8002648:	bd70      	pop	{r4, r5, r6, pc}
    HAL_NVIC_SetPriority(SysTick_IRQn, TickPriority, 0U);
 800264a:	3802      	subs	r0, #2
 800264c:	2200      	movs	r2, #0
 800264e:	0021      	movs	r1, r4
 8002650:	f000 f96a 	bl	8002928 <HAL_NVIC_SetPriority>
    uwTickPrio = TickPriority;
 8002654:	4b04      	ldr	r3, [pc, #16]	; (8002668 <HAL_InitTick+0x48>)
 8002656:	2000      	movs	r0, #0
 8002658:	601c      	str	r4, [r3, #0]
  return HAL_OK;
 800265a:	e7f5      	b.n	8002648 <HAL_InitTick+0x28>
    return HAL_ERROR;
 800265c:	2001      	movs	r0, #1
 800265e:	e7f3      	b.n	8002648 <HAL_InitTick+0x28>
 8002660:	20000598 	.word	0x20000598
 8002664:	20000594 	.word	0x20000594
 8002668:	2000059c 	.word	0x2000059c

0800266c <HAL_Init>:
  __HAL_FLASH_PREFETCH_BUFFER_ENABLE();
 800266c:	2110      	movs	r1, #16
 800266e:	4a06      	ldr	r2, [pc, #24]	; (8002688 <HAL_Init+0x1c>)
{
 8002670:	b510      	push	{r4, lr}
  __HAL_FLASH_PREFETCH_BUFFER_ENABLE();
 8002672:	6813      	ldr	r3, [r2, #0]
  HAL_InitTick(TICK_INT_PRIORITY);
 8002674:	2002      	movs	r0, #2
  __HAL_FLASH_PREFETCH_BUFFER_ENABLE();
 8002676:	430b      	orrs	r3, r1
 8002678:	6013      	str	r3, [r2, #0]
  HAL_InitTick(TICK_INT_PRIORITY);
 800267a:	f7ff ffd1 	bl	8002620 <HAL_InitTick>
  HAL_MspInit();
 800267e:	f7ff fb03 	bl	8001c88 <HAL_MspInit>
}
 8002682:	2000      	movs	r0, #0
 8002684:	bd10      	pop	{r4, pc}
 8002686:	46c0      	nop			; (mov r8, r8)
 8002688:	40022000 	.word	0x40022000

0800268c <HAL_IncTick>:
  *       implementations in user file.
  * @retval None
  */
__weak void HAL_IncTick(void)
{
  uwTick += uwTickFreq;
 800268c:	4a03      	ldr	r2, [pc, #12]	; (800269c <HAL_IncTick+0x10>)
 800268e:	4b04      	ldr	r3, [pc, #16]	; (80026a0 <HAL_IncTick+0x14>)
 8002690:	6811      	ldr	r1, [r2, #0]
 8002692:	781b      	ldrb	r3, [r3, #0]
 8002694:	185b      	adds	r3, r3, r1
 8002696:	6013      	str	r3, [r2, #0]
}
 8002698:	4770      	bx	lr
 800269a:	46c0      	nop			; (mov r8, r8)
 800269c:	20000958 	.word	0x20000958
 80026a0:	20000598 	.word	0x20000598

080026a4 <HAL_GetTick>:
  *       implementations in user file.
  * @retval tick value
  */
__weak uint32_t HAL_GetTick(void)
{
  return uwTick;
 80026a4:	4b01      	ldr	r3, [pc, #4]	; (80026ac <HAL_GetTick+0x8>)
 80026a6:	6818      	ldr	r0, [r3, #0]
}
 80026a8:	4770      	bx	lr
 80026aa:	46c0      	nop			; (mov r8, r8)
 80026ac:	20000958 	.word	0x20000958

080026b0 <HAL_ADC_Init>:
  *         of structure "ADC_InitTypeDef".
  * @param  hadc ADC handle
  * @retval HAL status
  */
HAL_StatusTypeDef HAL_ADC_Init(ADC_HandleTypeDef* hadc)
{
 80026b0:	b570      	push	{r4, r5, r6, lr}
 80026b2:	1e04      	subs	r4, r0, #0
  HAL_StatusTypeDef tmp_hal_status = HAL_OK;
  uint32_t tmpCFGR1 = 0U;

  /* Check ADC handle */
  if(hadc == NULL)
 80026b4:	d100      	bne.n	80026b8 <HAL_ADC_Init+0x8>
 80026b6:	e082      	b.n	80027be <HAL_ADC_Init+0x10e>
  /* Refer to header of this file for more details on clock enabling procedure*/
  
  /* Actions performed only if ADC is coming from state reset:                */
  /* - Initialization of ADC MSP                                              */
  /* - ADC voltage regulator enable                                           */
  if (hadc->State == HAL_ADC_STATE_RESET)
 80026b8:	6b83      	ldr	r3, [r0, #56]	; 0x38
 80026ba:	2b00      	cmp	r3, #0
 80026bc:	d069      	beq.n	8002792 <HAL_ADC_Init+0xe2>
  /* Configuration of ADC parameters if previous preliminary actions are      */ 
  /* correctly completed.                                                     */
  /* and if there is no conversion on going on regular group (ADC can be      */ 
  /* enabled anyway, in case of call of this function to update a parameter   */
  /* on the fly).                                                             */
  if (HAL_IS_BIT_CLR(hadc->State, HAL_ADC_STATE_ERROR_INTERNAL) &&
 80026be:	6ba3      	ldr	r3, [r4, #56]	; 0x38
 80026c0:	06db      	lsls	r3, r3, #27
 80026c2:	d460      	bmi.n	8002786 <HAL_ADC_Init+0xd6>
      (tmp_hal_status == HAL_OK)                                &&
      (ADC_IS_CONVERSION_ONGOING_REGULAR(hadc) == RESET)          )
 80026c4:	6822      	ldr	r2, [r4, #0]
 80026c6:	6893      	ldr	r3, [r2, #8]
      (tmp_hal_status == HAL_OK)                                &&
 80026c8:	075b      	lsls	r3, r3, #29
 80026ca:	d45c      	bmi.n	8002786 <HAL_ADC_Init+0xd6>
  {
    /* Set ADC state */
    ADC_STATE_CLR_SET(hadc->State,
 80026cc:	6ba3      	ldr	r3, [r4, #56]	; 0x38
 80026ce:	4949      	ldr	r1, [pc, #292]	; (80027f4 <HAL_ADC_Init+0x144>)
 80026d0:	400b      	ands	r3, r1
 80026d2:	3106      	adds	r1, #6
 80026d4:	31ff      	adds	r1, #255	; 0xff
 80026d6:	430b      	orrs	r3, r1
 80026d8:	63a3      	str	r3, [r4, #56]	; 0x38
    /* Parameters update conditioned to ADC state:                            */
    /* Parameters that can be updated only when ADC is disabled:              */
    /*  - ADC clock mode                                                      */
    /*  - ADC clock prescaler                                                 */
    /*  - ADC resolution                                                      */
    if (ADC_IS_ENABLE(hadc) == RESET)
 80026da:	2303      	movs	r3, #3
 80026dc:	6891      	ldr	r1, [r2, #8]
 80026de:	400b      	ands	r3, r1
 80026e0:	2b01      	cmp	r3, #1
 80026e2:	d05c      	beq.n	800279e <HAL_ADC_Init+0xee>
      /* parameters):                                                         */
      /*   - internal measurement paths: Vbat, temperature sensor, Vref       */
      /*     (set into HAL_ADC_ConfigChannel() )                              */
     
      /* Configuration of ADC resolution                                      */
      MODIFY_REG(hadc->Instance->CFGR1,
 80026e4:	2118      	movs	r1, #24
 80026e6:	68d3      	ldr	r3, [r2, #12]
 80026e8:	438b      	bics	r3, r1
 80026ea:	68a1      	ldr	r1, [r4, #8]
 80026ec:	430b      	orrs	r3, r1
 80026ee:	60d3      	str	r3, [r2, #12]
                 ADC_CFGR1_RES        ,
                 hadc->Init.Resolution );
      
      /* Configuration of ADC clock mode: clock source AHB or HSI with        */
      /* selectable prescaler                                                 */
      MODIFY_REG(hadc->Instance->CFGR2    ,
 80026f0:	6913      	ldr	r3, [r2, #16]
 80026f2:	6861      	ldr	r1, [r4, #4]
 80026f4:	009b      	lsls	r3, r3, #2
 80026f6:	089b      	lsrs	r3, r3, #2
 80026f8:	430b      	orrs	r3, r1
 80026fa:	6113      	str	r3, [r2, #16]
    /*  - external trigger polarity                                           */
    /*  - data alignment                                                      */
    /*  - resolution                                                          */
    /*  - scan direction                                                      */
    /*  - DMA continuous request                                              */
    hadc->Instance->CFGR1 &= ~( ADC_CFGR1_DISCEN  |
 80026fc:	68d3      	ldr	r3, [r2, #12]
 80026fe:	493e      	ldr	r1, [pc, #248]	; (80027f8 <HAL_ADC_Init+0x148>)
 8002700:	400b      	ands	r3, r1
 8002702:	60d3      	str	r3, [r2, #12]
                                ADC_CFGR1_EXTEN   |
                                ADC_CFGR1_ALIGN   |
                                ADC_CFGR1_SCANDIR |
                                ADC_CFGR1_DMACFG   );

    tmpCFGR1 |= (ADC_CFGR1_AUTOWAIT((uint32_t)hadc->Init.LowPowerAutoWait)        |
 8002704:	7e23      	ldrb	r3, [r4, #24]
                 ADC_CFGR1_AUTOOFF((uint32_t)hadc->Init.LowPowerAutoPowerOff)     |
 8002706:	7e61      	ldrb	r1, [r4, #25]
    tmpCFGR1 |= (ADC_CFGR1_AUTOWAIT((uint32_t)hadc->Init.LowPowerAutoWait)        |
 8002708:	039b      	lsls	r3, r3, #14
                 ADC_CFGR1_AUTOOFF((uint32_t)hadc->Init.LowPowerAutoPowerOff)     |
 800270a:	03c9      	lsls	r1, r1, #15
    tmpCFGR1 |= (ADC_CFGR1_AUTOWAIT((uint32_t)hadc->Init.LowPowerAutoWait)        |
 800270c:	430b      	orrs	r3, r1
                 ADC_CFGR1_CONTINUOUS((uint32_t)hadc->Init.ContinuousConvMode)    |
 800270e:	7ea0      	ldrb	r0, [r4, #26]
                 ADC_CFGR1_OVERRUN(hadc->Init.Overrun)                            |
                 hadc->Init.DataAlign                                             |
                 ADC_SCANDIR(hadc->Init.ScanConvMode)                             |
 8002710:	68e1      	ldr	r1, [r4, #12]
 8002712:	430b      	orrs	r3, r1
                 ADC_CFGR1_CONTINUOUS((uint32_t)hadc->Init.ContinuousConvMode)    |
 8002714:	0341      	lsls	r1, r0, #13
                 ADC_SCANDIR(hadc->Init.ScanConvMode)                             |
 8002716:	430b      	orrs	r3, r1
                 ADC_CFGR1_DMACONTREQ((uint32_t)hadc->Init.DMAContinuousRequests)  );
 8002718:	2124      	movs	r1, #36	; 0x24
 800271a:	5c61      	ldrb	r1, [r4, r1]
 800271c:	0049      	lsls	r1, r1, #1
                 ADC_SCANDIR(hadc->Init.ScanConvMode)                             |
 800271e:	430b      	orrs	r3, r1
                 ADC_CFGR1_OVERRUN(hadc->Init.Overrun)                            |
 8002720:	6aa1      	ldr	r1, [r4, #40]	; 0x28
 8002722:	3901      	subs	r1, #1
 8002724:	1e4d      	subs	r5, r1, #1
 8002726:	41a9      	sbcs	r1, r5
 8002728:	0309      	lsls	r1, r1, #12
                 ADC_SCANDIR(hadc->Init.ScanConvMode)                             |
 800272a:	430b      	orrs	r3, r1
 800272c:	6921      	ldr	r1, [r4, #16]
 800272e:	3902      	subs	r1, #2
 8002730:	424d      	negs	r5, r1
 8002732:	4169      	adcs	r1, r5
 8002734:	0089      	lsls	r1, r1, #2
 8002736:	430b      	orrs	r3, r1
    
    /* Enable discontinuous mode only if continuous mode is disabled */
    if (hadc->Init.DiscontinuousConvMode == ENABLE)
 8002738:	7ee1      	ldrb	r1, [r4, #27]
 800273a:	2901      	cmp	r1, #1
 800273c:	d04b      	beq.n	80027d6 <HAL_ADC_Init+0x126>
    /* Enable external trigger if trigger selection is different of software  */
    /* start.                                                                 */
    /* Note: This configuration keeps the hardware feature of parameter       */
    /*       ExternalTrigConvEdge "trigger edge none" equivalent to           */
    /*       software start.                                                  */
    if (hadc->Init.ExternalTrigConv != ADC_SOFTWARE_START)
 800273e:	20c2      	movs	r0, #194	; 0xc2
 8002740:	69e1      	ldr	r1, [r4, #28]
 8002742:	30ff      	adds	r0, #255	; 0xff
 8002744:	4281      	cmp	r1, r0
 8002746:	d002      	beq.n	800274e <HAL_ADC_Init+0x9e>
    {
      tmpCFGR1 |= ( hadc->Init.ExternalTrigConv    |
 8002748:	6a20      	ldr	r0, [r4, #32]
 800274a:	4301      	orrs	r1, r0
 800274c:	430b      	orrs	r3, r1
                    hadc->Init.ExternalTrigConvEdge );
    }
    
    /* Update ADC configuration register with previous settings */
    hadc->Instance->CFGR1 |= tmpCFGR1;
 800274e:	68d1      	ldr	r1, [r2, #12]
    /* Management of parameters "SamplingTimeCommon" and "SamplingTime"       */
    /* (obsolete): sampling time set in this function if parameter            */
    /*  "SamplingTimeCommon" has been set to a valid sampling time.           */
    /* Otherwise, sampling time is set into ADC channel initialization        */
    /* structure with parameter "SamplingTime" (obsolete).                    */
    if (IS_ADC_SAMPLE_TIME(hadc->Init.SamplingTimeCommon))
 8002750:	6ae5      	ldr	r5, [r4, #44]	; 0x2c
    hadc->Instance->CFGR1 |= tmpCFGR1;
 8002752:	4319      	orrs	r1, r3
 8002754:	60d1      	str	r1, [r2, #12]
    if (IS_ADC_SAMPLE_TIME(hadc->Init.SamplingTimeCommon))
 8002756:	2180      	movs	r1, #128	; 0x80
 8002758:	0549      	lsls	r1, r1, #21
 800275a:	428d      	cmp	r5, r1
 800275c:	d026      	beq.n	80027ac <HAL_ADC_Init+0xfc>
 800275e:	1e69      	subs	r1, r5, #1
 8002760:	2906      	cmp	r1, #6
 8002762:	d923      	bls.n	80027ac <HAL_ADC_Init+0xfc>
    /* Check back that ADC registers have effectively been configured to      */
    /* ensure of no potential problem of ADC core IP clocking.                */
    /* Check through register CFGR1 (excluding analog watchdog configuration: */
    /* set into separate dedicated function, and bits of ADC resolution set   */
    /* out of temporary variable 'tmpCFGR1').                                 */
    if ((hadc->Instance->CFGR1 & ~(ADC_CFGR1_AWDCH | ADC_CFGR1_AWDEN | ADC_CFGR1_AWDSGL | ADC_CFGR1_RES))
 8002764:	68d2      	ldr	r2, [r2, #12]
 8002766:	4925      	ldr	r1, [pc, #148]	; (80027fc <HAL_ADC_Init+0x14c>)
 8002768:	400a      	ands	r2, r1
 800276a:	429a      	cmp	r2, r3
 800276c:	d029      	beq.n	80027c2 <HAL_ADC_Init+0x112>
                        HAL_ADC_STATE_READY);
    }
    else
    {
      /* Update ADC state machine to error */
      ADC_STATE_CLR_SET(hadc->State,
 800276e:	2212      	movs	r2, #18
 8002770:	6ba3      	ldr	r3, [r4, #56]	; 0x38
                        HAL_ADC_STATE_ERROR_INTERNAL);
      
      /* Set ADC error code to ADC IP internal error */
      SET_BIT(hadc->ErrorCode, HAL_ADC_ERROR_INTERNAL);
      
      tmp_hal_status = HAL_ERROR;
 8002772:	2001      	movs	r0, #1
      ADC_STATE_CLR_SET(hadc->State,
 8002774:	4393      	bics	r3, r2
 8002776:	3a02      	subs	r2, #2
 8002778:	4313      	orrs	r3, r2
 800277a:	63a3      	str	r3, [r4, #56]	; 0x38
      SET_BIT(hadc->ErrorCode, HAL_ADC_ERROR_INTERNAL);
 800277c:	6be3      	ldr	r3, [r4, #60]	; 0x3c
 800277e:	3a0f      	subs	r2, #15
 8002780:	4313      	orrs	r3, r2
 8002782:	63e3      	str	r3, [r4, #60]	; 0x3c
      tmp_hal_status = HAL_ERROR;
 8002784:	e004      	b.n	8002790 <HAL_ADC_Init+0xe0>
  
  }
  else
  {
    /* Update ADC state machine to error */
    SET_BIT(hadc->State, HAL_ADC_STATE_ERROR_INTERNAL);
 8002786:	2210      	movs	r2, #16
        
    tmp_hal_status = HAL_ERROR;
 8002788:	2001      	movs	r0, #1
    SET_BIT(hadc->State, HAL_ADC_STATE_ERROR_INTERNAL);
 800278a:	6ba3      	ldr	r3, [r4, #56]	; 0x38
 800278c:	4313      	orrs	r3, r2
 800278e:	63a3      	str	r3, [r4, #56]	; 0x38
  }
  
  /* Return function status */
  return tmp_hal_status;
}
 8002790:	bd70      	pop	{r4, r5, r6, pc}
    hadc->Lock = HAL_UNLOCKED;
 8002792:	2234      	movs	r2, #52	; 0x34
    ADC_CLEAR_ERRORCODE(hadc);
 8002794:	63c3      	str	r3, [r0, #60]	; 0x3c
    hadc->Lock = HAL_UNLOCKED;
 8002796:	5483      	strb	r3, [r0, r2]
    HAL_ADC_MspInit(hadc);
 8002798:	f7ff fa8e 	bl	8001cb8 <HAL_ADC_MspInit>
 800279c:	e78f      	b.n	80026be <HAL_ADC_Init+0xe>
    if (ADC_IS_ENABLE(hadc) == RESET)
 800279e:	6811      	ldr	r1, [r2, #0]
 80027a0:	420b      	tst	r3, r1
 80027a2:	d1ab      	bne.n	80026fc <HAL_ADC_Init+0x4c>
 80027a4:	68d3      	ldr	r3, [r2, #12]
 80027a6:	041b      	lsls	r3, r3, #16
 80027a8:	d4a8      	bmi.n	80026fc <HAL_ADC_Init+0x4c>
 80027aa:	e79b      	b.n	80026e4 <HAL_ADC_Init+0x34>
      hadc->Instance->SMPR &= ~(ADC_SMPR_SMP);
 80027ac:	2107      	movs	r1, #7
 80027ae:	6950      	ldr	r0, [r2, #20]
 80027b0:	4388      	bics	r0, r1
 80027b2:	6150      	str	r0, [r2, #20]
      hadc->Instance->SMPR |= ADC_SMPR_SET(hadc->Init.SamplingTimeCommon);
 80027b4:	6950      	ldr	r0, [r2, #20]
 80027b6:	4029      	ands	r1, r5
 80027b8:	4301      	orrs	r1, r0
 80027ba:	6151      	str	r1, [r2, #20]
 80027bc:	e7d2      	b.n	8002764 <HAL_ADC_Init+0xb4>
    return HAL_ERROR;
 80027be:	2001      	movs	r0, #1
 80027c0:	e7e6      	b.n	8002790 <HAL_ADC_Init+0xe0>
      ADC_CLEAR_ERRORCODE(hadc);
 80027c2:	2300      	movs	r3, #0
      ADC_STATE_CLR_SET(hadc->State,
 80027c4:	2203      	movs	r2, #3
      ADC_CLEAR_ERRORCODE(hadc);
 80027c6:	63e3      	str	r3, [r4, #60]	; 0x3c
      ADC_STATE_CLR_SET(hadc->State,
 80027c8:	6ba3      	ldr	r3, [r4, #56]	; 0x38
  HAL_StatusTypeDef tmp_hal_status = HAL_OK;
 80027ca:	2000      	movs	r0, #0
      ADC_STATE_CLR_SET(hadc->State,
 80027cc:	4393      	bics	r3, r2
 80027ce:	3a02      	subs	r2, #2
 80027d0:	4313      	orrs	r3, r2
 80027d2:	63a3      	str	r3, [r4, #56]	; 0x38
 80027d4:	e7dc      	b.n	8002790 <HAL_ADC_Init+0xe0>
      if (hadc->Init.ContinuousConvMode == DISABLE)
 80027d6:	2800      	cmp	r0, #0
 80027d8:	d103      	bne.n	80027e2 <HAL_ADC_Init+0x132>
        tmpCFGR1 |= ADC_CFGR1_DISCEN;
 80027da:	2180      	movs	r1, #128	; 0x80
 80027dc:	0249      	lsls	r1, r1, #9
 80027de:	430b      	orrs	r3, r1
 80027e0:	e7ad      	b.n	800273e <HAL_ADC_Init+0x8e>
        SET_BIT(hadc->State, HAL_ADC_STATE_ERROR_CONFIG);
 80027e2:	2520      	movs	r5, #32
 80027e4:	6ba0      	ldr	r0, [r4, #56]	; 0x38
 80027e6:	4328      	orrs	r0, r5
 80027e8:	63a0      	str	r0, [r4, #56]	; 0x38
        SET_BIT(hadc->ErrorCode, HAL_ADC_ERROR_INTERNAL);
 80027ea:	6be0      	ldr	r0, [r4, #60]	; 0x3c
 80027ec:	4301      	orrs	r1, r0
 80027ee:	63e1      	str	r1, [r4, #60]	; 0x3c
 80027f0:	e7a5      	b.n	800273e <HAL_ADC_Init+0x8e>
 80027f2:	46c0      	nop			; (mov r8, r8)
 80027f4:	fffffefd 	.word	0xfffffefd
 80027f8:	fffe0219 	.word	0xfffe0219
 80027fc:	833fffe7 	.word	0x833fffe7

08002800 <HAL_ADC_ConfigChannel>:
  * @retval HAL status
  */
HAL_StatusTypeDef HAL_ADC_ConfigChannel(ADC_HandleTypeDef* hadc, ADC_ChannelConfTypeDef* sConfig)
{
  HAL_StatusTypeDef tmp_hal_status = HAL_OK;
  __IO uint32_t wait_loop_index = 0U;
 8002800:	2300      	movs	r3, #0
  {
    assert_param(IS_ADC_SAMPLE_TIME(sConfig->SamplingTime));
  }
  
  /* Process locked */
  __HAL_LOCK(hadc);
 8002802:	2234      	movs	r2, #52	; 0x34
{
 8002804:	b5f0      	push	{r4, r5, r6, r7, lr}
 8002806:	b083      	sub	sp, #12
  __IO uint32_t wait_loop_index = 0U;
 8002808:	9301      	str	r3, [sp, #4]
  __HAL_LOCK(hadc);
 800280a:	5c83      	ldrb	r3, [r0, r2]
{
 800280c:	0004      	movs	r4, r0
  if (! IS_ADC_SAMPLE_TIME(hadc->Init.SamplingTimeCommon))
 800280e:	6ac6      	ldr	r6, [r0, #44]	; 0x2c
  __HAL_LOCK(hadc);
 8002810:	2b01      	cmp	r3, #1
 8002812:	d060      	beq.n	80028d6 <HAL_ADC_ConfigChannel+0xd6>
 8002814:	2301      	movs	r3, #1
 8002816:	5483      	strb	r3, [r0, r2]
  /* Parameters that can be updated when ADC is disabled or enabled without   */
  /* conversion on going on regular group:                                    */
  /*  - Channel number                                                        */
  /*  - Channel sampling time                                                 */
  /*  - Management of internal measurement channels: VrefInt/TempSensor/Vbat  */
  if (ADC_IS_CONVERSION_ONGOING_REGULAR(hadc) == RESET)
 8002818:	6805      	ldr	r5, [r0, #0]
 800281a:	68aa      	ldr	r2, [r5, #8]
 800281c:	0752      	lsls	r2, r2, #29
 800281e:	d509      	bpl.n	8002834 <HAL_ADC_ConfigChannel+0x34>
  /* channel could be done on neither of the channel configuration structure  */
  /* parameters.                                                              */
  else
  {
    /* Update ADC state machine to error */
    SET_BIT(hadc->State, HAL_ADC_STATE_ERROR_CONFIG);
 8002820:	2220      	movs	r2, #32
 8002822:	6b83      	ldr	r3, [r0, #56]	; 0x38
 8002824:	4313      	orrs	r3, r2
 8002826:	6383      	str	r3, [r0, #56]	; 0x38
    
    tmp_hal_status = HAL_ERROR;
 8002828:	2001      	movs	r0, #1
  }
  
  /* Process unlocked */
  __HAL_UNLOCK(hadc);
 800282a:	2334      	movs	r3, #52	; 0x34
 800282c:	2200      	movs	r2, #0
 800282e:	54e2      	strb	r2, [r4, r3]
  
  /* Return function status */
  return tmp_hal_status;
}
 8002830:	b003      	add	sp, #12
 8002832:	bdf0      	pop	{r4, r5, r6, r7, pc}
    if (sConfig->Rank != ADC_RANK_NONE)
 8002834:	4a36      	ldr	r2, [pc, #216]	; (8002910 <HAL_ADC_ConfigChannel+0x110>)
 8002836:	6848      	ldr	r0, [r1, #4]
 8002838:	4290      	cmp	r0, r2
 800283a:	d030      	beq.n	800289e <HAL_ADC_ConfigChannel+0x9e>
      hadc->Instance->CHSELR |= ADC_CHSELR_CHANNEL(sConfig->Channel);
 800283c:	680a      	ldr	r2, [r1, #0]
 800283e:	6aaf      	ldr	r7, [r5, #40]	; 0x28
 8002840:	4093      	lsls	r3, r2
 8002842:	0018      	movs	r0, r3
      if (! IS_ADC_SAMPLE_TIME(hadc->Init.SamplingTimeCommon))
 8002844:	2380      	movs	r3, #128	; 0x80
      hadc->Instance->CHSELR |= ADC_CHSELR_CHANNEL(sConfig->Channel);
 8002846:	4338      	orrs	r0, r7
 8002848:	62a8      	str	r0, [r5, #40]	; 0x28
      if (! IS_ADC_SAMPLE_TIME(hadc->Init.SamplingTimeCommon))
 800284a:	055b      	lsls	r3, r3, #21
 800284c:	429e      	cmp	r6, r3
 800284e:	d00f      	beq.n	8002870 <HAL_ADC_ConfigChannel+0x70>
 8002850:	3e01      	subs	r6, #1
 8002852:	2e06      	cmp	r6, #6
 8002854:	d90c      	bls.n	8002870 <HAL_ADC_ConfigChannel+0x70>
        if (sConfig->SamplingTime != ADC_GET_SAMPLINGTIME(hadc))
 8002856:	2307      	movs	r3, #7
 8002858:	6888      	ldr	r0, [r1, #8]
 800285a:	6969      	ldr	r1, [r5, #20]
 800285c:	4019      	ands	r1, r3
 800285e:	4288      	cmp	r0, r1
 8002860:	d006      	beq.n	8002870 <HAL_ADC_ConfigChannel+0x70>
          hadc->Instance->SMPR &= ~(ADC_SMPR_SMP);
 8002862:	6969      	ldr	r1, [r5, #20]
 8002864:	4399      	bics	r1, r3
 8002866:	6169      	str	r1, [r5, #20]
          hadc->Instance->SMPR |= ADC_SMPR_SET(sConfig->SamplingTime);
 8002868:	6969      	ldr	r1, [r5, #20]
 800286a:	4003      	ands	r3, r0
 800286c:	430b      	orrs	r3, r1
 800286e:	616b      	str	r3, [r5, #20]
      if(ADC_IS_CHANNEL_INTERNAL(sConfig->Channel))
 8002870:	0013      	movs	r3, r2
 8002872:	3b10      	subs	r3, #16
 8002874:	2b02      	cmp	r3, #2
 8002876:	d810      	bhi.n	800289a <HAL_ADC_ConfigChannel+0x9a>
        ADC->CCR |= ADC_CHANNEL_INTERNAL_PATH(sConfig->Channel);
 8002878:	4926      	ldr	r1, [pc, #152]	; (8002914 <HAL_ADC_ConfigChannel+0x114>)
 800287a:	680b      	ldr	r3, [r1, #0]
 800287c:	2a10      	cmp	r2, #16
 800287e:	d02e      	beq.n	80028de <HAL_ADC_ConfigChannel+0xde>
 8002880:	3a11      	subs	r2, #17
 8002882:	1e50      	subs	r0, r2, #1
 8002884:	4182      	sbcs	r2, r0
 8002886:	20c0      	movs	r0, #192	; 0xc0
 8002888:	4252      	negs	r2, r2
 800288a:	0400      	lsls	r0, r0, #16
 800288c:	4002      	ands	r2, r0
 800288e:	2080      	movs	r0, #128	; 0x80
 8002890:	03c0      	lsls	r0, r0, #15
 8002892:	4684      	mov	ip, r0
 8002894:	4462      	add	r2, ip
 8002896:	4313      	orrs	r3, r2
 8002898:	600b      	str	r3, [r1, #0]
  HAL_StatusTypeDef tmp_hal_status = HAL_OK;
 800289a:	2000      	movs	r0, #0
 800289c:	e7c5      	b.n	800282a <HAL_ADC_ConfigChannel+0x2a>
      hadc->Instance->CHSELR &= ~ADC_CHSELR_CHANNEL(sConfig->Channel);
 800289e:	680a      	ldr	r2, [r1, #0]
 80028a0:	6aa8      	ldr	r0, [r5, #40]	; 0x28
 80028a2:	4093      	lsls	r3, r2
 80028a4:	4398      	bics	r0, r3
      if(ADC_IS_CHANNEL_INTERNAL(sConfig->Channel))
 80028a6:	0013      	movs	r3, r2
 80028a8:	3b10      	subs	r3, #16
      hadc->Instance->CHSELR &= ~ADC_CHSELR_CHANNEL(sConfig->Channel);
 80028aa:	62a8      	str	r0, [r5, #40]	; 0x28
      if(ADC_IS_CHANNEL_INTERNAL(sConfig->Channel))
 80028ac:	2b02      	cmp	r3, #2
 80028ae:	d8f4      	bhi.n	800289a <HAL_ADC_ConfigChannel+0x9a>
        ADC->CCR &= ~ADC_CHANNEL_INTERNAL_PATH(sConfig->Channel);
 80028b0:	4b18      	ldr	r3, [pc, #96]	; (8002914 <HAL_ADC_ConfigChannel+0x114>)
 80028b2:	681b      	ldr	r3, [r3, #0]
 80028b4:	2a10      	cmp	r2, #16
 80028b6:	d010      	beq.n	80028da <HAL_ADC_ConfigChannel+0xda>
 80028b8:	3a11      	subs	r2, #17
 80028ba:	4251      	negs	r1, r2
 80028bc:	414a      	adcs	r2, r1
 80028be:	21c0      	movs	r1, #192	; 0xc0
 80028c0:	4252      	negs	r2, r2
 80028c2:	0409      	lsls	r1, r1, #16
 80028c4:	400a      	ands	r2, r1
 80028c6:	4914      	ldr	r1, [pc, #80]	; (8002918 <HAL_ADC_ConfigChannel+0x118>)
 80028c8:	468c      	mov	ip, r1
 80028ca:	4462      	add	r2, ip
 80028cc:	401a      	ands	r2, r3
 80028ce:	4b11      	ldr	r3, [pc, #68]	; (8002914 <HAL_ADC_ConfigChannel+0x114>)
  HAL_StatusTypeDef tmp_hal_status = HAL_OK;
 80028d0:	2000      	movs	r0, #0
        ADC->CCR &= ~ADC_CHANNEL_INTERNAL_PATH(sConfig->Channel);
 80028d2:	601a      	str	r2, [r3, #0]
 80028d4:	e7a9      	b.n	800282a <HAL_ADC_ConfigChannel+0x2a>
  __HAL_LOCK(hadc);
 80028d6:	2002      	movs	r0, #2
 80028d8:	e7aa      	b.n	8002830 <HAL_ADC_ConfigChannel+0x30>
        ADC->CCR &= ~ADC_CHANNEL_INTERNAL_PATH(sConfig->Channel);
 80028da:	4a10      	ldr	r2, [pc, #64]	; (800291c <HAL_ADC_ConfigChannel+0x11c>)
 80028dc:	e7f6      	b.n	80028cc <HAL_ADC_ConfigChannel+0xcc>
        ADC->CCR |= ADC_CHANNEL_INTERNAL_PATH(sConfig->Channel);
 80028de:	2280      	movs	r2, #128	; 0x80
 80028e0:	0412      	lsls	r2, r2, #16
 80028e2:	4313      	orrs	r3, r2
 80028e4:	600b      	str	r3, [r1, #0]
          wait_loop_index = (ADC_TEMPSENSOR_DELAY_US * (SystemCoreClock / 1000000U));
 80028e6:	4b0e      	ldr	r3, [pc, #56]	; (8002920 <HAL_ADC_ConfigChannel+0x120>)
 80028e8:	490e      	ldr	r1, [pc, #56]	; (8002924 <HAL_ADC_ConfigChannel+0x124>)
 80028ea:	6818      	ldr	r0, [r3, #0]
 80028ec:	f7fd fc0c 	bl	8000108 <__udivsi3>
 80028f0:	0083      	lsls	r3, r0, #2
 80028f2:	181b      	adds	r3, r3, r0
 80028f4:	005b      	lsls	r3, r3, #1
 80028f6:	9301      	str	r3, [sp, #4]
          while(wait_loop_index != 0U)
 80028f8:	9b01      	ldr	r3, [sp, #4]
 80028fa:	2b00      	cmp	r3, #0
 80028fc:	d0cd      	beq.n	800289a <HAL_ADC_ConfigChannel+0x9a>
            wait_loop_index--;
 80028fe:	9b01      	ldr	r3, [sp, #4]
 8002900:	3b01      	subs	r3, #1
 8002902:	9301      	str	r3, [sp, #4]
          while(wait_loop_index != 0U)
 8002904:	9b01      	ldr	r3, [sp, #4]
 8002906:	2b00      	cmp	r3, #0
 8002908:	d1f9      	bne.n	80028fe <HAL_ADC_ConfigChannel+0xfe>
  HAL_StatusTypeDef tmp_hal_status = HAL_OK;
 800290a:	2000      	movs	r0, #0
 800290c:	e78d      	b.n	800282a <HAL_ADC_ConfigChannel+0x2a>
 800290e:	46c0      	nop			; (mov r8, r8)
 8002910:	00001001 	.word	0x00001001
 8002914:	40012708 	.word	0x40012708
 8002918:	feffffff 	.word	0xfeffffff
 800291c:	ff7fffff 	.word	0xff7fffff
 8002920:	20000594 	.word	0x20000594
 8002924:	000f4240 	.word	0x000f4240

08002928 <HAL_NVIC_SetPriority>:
  *         with stm32f0xx devices, this parameter is a dummy value and it is ignored, because 
  *         no subpriority supported in Cortex M0 based products.   
  * @retval None
  */
void HAL_NVIC_SetPriority(IRQn_Type IRQn, uint32_t PreemptPriority, uint32_t SubPriority)
{ 
 8002928:	b570      	push	{r4, r5, r6, lr}
  \param [in]  priority  Priority to set.
  \note    The priority cannot be set for every processor exception.
 */
__STATIC_INLINE void __NVIC_SetPriority(IRQn_Type IRQn, uint32_t priority)
{
  if ((int32_t)(IRQn) >= 0)
 800292a:	2800      	cmp	r0, #0
 800292c:	db14      	blt.n	8002958 <HAL_NVIC_SetPriority+0x30>
  {
    NVIC->IP[_IP_IDX(IRQn)]  = ((uint32_t)(NVIC->IP[_IP_IDX(IRQn)]  & ~(0xFFUL << _BIT_SHIFT(IRQn))) |
 800292e:	4b15      	ldr	r3, [pc, #84]	; (8002984 <HAL_NVIC_SetPriority+0x5c>)
 8002930:	2203      	movs	r2, #3
 8002932:	469c      	mov	ip, r3
 8002934:	23ff      	movs	r3, #255	; 0xff
 8002936:	0884      	lsrs	r4, r0, #2
 8002938:	4002      	ands	r2, r0
 800293a:	0018      	movs	r0, r3
 800293c:	26c0      	movs	r6, #192	; 0xc0
 800293e:	00d2      	lsls	r2, r2, #3
       (((priority << (8U - __NVIC_PRIO_BITS)) & (uint32_t)0xFFUL) << _BIT_SHIFT(IRQn)));
 8002940:	0189      	lsls	r1, r1, #6
    NVIC->IP[_IP_IDX(IRQn)]  = ((uint32_t)(NVIC->IP[_IP_IDX(IRQn)]  & ~(0xFFUL << _BIT_SHIFT(IRQn))) |
 8002942:	4090      	lsls	r0, r2
       (((priority << (8U - __NVIC_PRIO_BITS)) & (uint32_t)0xFFUL) << _BIT_SHIFT(IRQn)));
 8002944:	400b      	ands	r3, r1
 8002946:	4093      	lsls	r3, r2
 8002948:	00a4      	lsls	r4, r4, #2
 800294a:	4464      	add	r4, ip
    NVIC->IP[_IP_IDX(IRQn)]  = ((uint32_t)(NVIC->IP[_IP_IDX(IRQn)]  & ~(0xFFUL << _BIT_SHIFT(IRQn))) |
 800294c:	00b6      	lsls	r6, r6, #2
 800294e:	59a5      	ldr	r5, [r4, r6]
 8002950:	4385      	bics	r5, r0
 8002952:	432b      	orrs	r3, r5
 8002954:	51a3      	str	r3, [r4, r6]
  /* Check the parameters */
  assert_param(IS_NVIC_PREEMPTION_PRIORITY(PreemptPriority));
  NVIC_SetPriority(IRQn,PreemptPriority);
}
 8002956:	bd70      	pop	{r4, r5, r6, pc}
  }
  else
  {
    SCB->SHP[_SHP_IDX(IRQn)] = ((uint32_t)(SCB->SHP[_SHP_IDX(IRQn)] & ~(0xFFUL << _BIT_SHIFT(IRQn))) |
 8002958:	4a0b      	ldr	r2, [pc, #44]	; (8002988 <HAL_NVIC_SetPriority+0x60>)
 800295a:	230f      	movs	r3, #15
 800295c:	4694      	mov	ip, r2
 800295e:	2203      	movs	r2, #3
 8002960:	4003      	ands	r3, r0
 8002962:	4010      	ands	r0, r2
 8002964:	32fc      	adds	r2, #252	; 0xfc
 8002966:	0015      	movs	r5, r2
 8002968:	00c0      	lsls	r0, r0, #3
       (((priority << (8U - __NVIC_PRIO_BITS)) & (uint32_t)0xFFUL) << _BIT_SHIFT(IRQn)));
 800296a:	0189      	lsls	r1, r1, #6
    SCB->SHP[_SHP_IDX(IRQn)] = ((uint32_t)(SCB->SHP[_SHP_IDX(IRQn)] & ~(0xFFUL << _BIT_SHIFT(IRQn))) |
 800296c:	4085      	lsls	r5, r0
       (((priority << (8U - __NVIC_PRIO_BITS)) & (uint32_t)0xFFUL) << _BIT_SHIFT(IRQn)));
 800296e:	400a      	ands	r2, r1
 8002970:	4082      	lsls	r2, r0
    SCB->SHP[_SHP_IDX(IRQn)] = ((uint32_t)(SCB->SHP[_SHP_IDX(IRQn)] & ~(0xFFUL << _BIT_SHIFT(IRQn))) |
 8002972:	3b08      	subs	r3, #8
 8002974:	089b      	lsrs	r3, r3, #2
 8002976:	009b      	lsls	r3, r3, #2
 8002978:	4463      	add	r3, ip
 800297a:	69dc      	ldr	r4, [r3, #28]
 800297c:	43ac      	bics	r4, r5
 800297e:	4322      	orrs	r2, r4
 8002980:	61da      	str	r2, [r3, #28]
 8002982:	e7e8      	b.n	8002956 <HAL_NVIC_SetPriority+0x2e>
 8002984:	e000e100 	.word	0xe000e100
 8002988:	e000ed00 	.word	0xe000ed00

0800298c <HAL_NVIC_EnableIRQ>:
  if ((int32_t)(IRQn) >= 0)
 800298c:	2800      	cmp	r0, #0
 800298e:	db05      	blt.n	800299c <HAL_NVIC_EnableIRQ+0x10>
    NVIC->ISER[0U] = (uint32_t)(1UL << (((uint32_t)IRQn) & 0x1FUL));
 8002990:	221f      	movs	r2, #31
 8002992:	2301      	movs	r3, #1
 8002994:	4002      	ands	r2, r0
 8002996:	4093      	lsls	r3, r2
 8002998:	4a01      	ldr	r2, [pc, #4]	; (80029a0 <HAL_NVIC_EnableIRQ+0x14>)
 800299a:	6013      	str	r3, [r2, #0]
  /* Check the parameters */
  assert_param(IS_NVIC_DEVICE_IRQ(IRQn));
  
  /* Enable interrupt */
  NVIC_EnableIRQ(IRQn);
}
 800299c:	4770      	bx	lr
 800299e:	46c0      	nop			; (mov r8, r8)
 80029a0:	e000e100 	.word	0xe000e100

080029a4 <HAL_SYSTICK_Config>:
           function <b>SysTick_Config</b> is not included. In this case, the file <b><i>device</i>.h</b>
           must contain a vendor-specific implementation of this function.
 */
__STATIC_INLINE uint32_t SysTick_Config(uint32_t ticks)
{
  if ((ticks - 1UL) > SysTick_LOAD_RELOAD_Msk)
 80029a4:	2280      	movs	r2, #128	; 0x80
 80029a6:	1e43      	subs	r3, r0, #1
 80029a8:	0452      	lsls	r2, r2, #17
  {
    return (1UL);                                                   /* Reload value impossible */
 80029aa:	2001      	movs	r0, #1
  if ((ticks - 1UL) > SysTick_LOAD_RELOAD_Msk)
 80029ac:	4293      	cmp	r3, r2
 80029ae:	d20e      	bcs.n	80029ce <HAL_SYSTICK_Config+0x2a>
    SCB->SHP[_SHP_IDX(IRQn)] = ((uint32_t)(SCB->SHP[_SHP_IDX(IRQn)] & ~(0xFFUL << _BIT_SHIFT(IRQn))) |
 80029b0:	21c0      	movs	r1, #192	; 0xc0
  }

  SysTick->LOAD  = (uint32_t)(ticks - 1UL);                         /* set reload register */
 80029b2:	4a07      	ldr	r2, [pc, #28]	; (80029d0 <HAL_SYSTICK_Config+0x2c>)
    SCB->SHP[_SHP_IDX(IRQn)] = ((uint32_t)(SCB->SHP[_SHP_IDX(IRQn)] & ~(0xFFUL << _BIT_SHIFT(IRQn))) |
 80029b4:	4807      	ldr	r0, [pc, #28]	; (80029d4 <HAL_SYSTICK_Config+0x30>)
  SysTick->LOAD  = (uint32_t)(ticks - 1UL);                         /* set reload register */
 80029b6:	6053      	str	r3, [r2, #4]
    SCB->SHP[_SHP_IDX(IRQn)] = ((uint32_t)(SCB->SHP[_SHP_IDX(IRQn)] & ~(0xFFUL << _BIT_SHIFT(IRQn))) |
 80029b8:	6a03      	ldr	r3, [r0, #32]
 80029ba:	0609      	lsls	r1, r1, #24
 80029bc:	021b      	lsls	r3, r3, #8
 80029be:	0a1b      	lsrs	r3, r3, #8
 80029c0:	430b      	orrs	r3, r1
 80029c2:	6203      	str	r3, [r0, #32]
  NVIC_SetPriority (SysTick_IRQn, (1UL << __NVIC_PRIO_BITS) - 1UL); /* set Priority for Systick Interrupt */
  SysTick->VAL   = 0UL;                                             /* Load the SysTick Counter Value */
 80029c4:	2300      	movs	r3, #0
  SysTick->CTRL  = SysTick_CTRL_CLKSOURCE_Msk |
                   SysTick_CTRL_TICKINT_Msk   |
                   SysTick_CTRL_ENABLE_Msk;                         /* Enable SysTick IRQ and SysTick Timer */
  return (0UL);                                                     /* Function successful */
 80029c6:	2000      	movs	r0, #0
  SysTick->VAL   = 0UL;                                             /* Load the SysTick Counter Value */
 80029c8:	6093      	str	r3, [r2, #8]
  SysTick->CTRL  = SysTick_CTRL_CLKSOURCE_Msk |
 80029ca:	3307      	adds	r3, #7
 80029cc:	6013      	str	r3, [r2, #0]
  *                  - 1  Function failed.
  */
uint32_t HAL_SYSTICK_Config(uint32_t TicksNumb)
{
   return SysTick_Config(TicksNumb);
}
 80029ce:	4770      	bx	lr
 80029d0:	e000e010 	.word	0xe000e010
 80029d4:	e000ed00 	.word	0xe000ed00

080029d8 <HAL_SYSTICK_Callback>:
__weak void HAL_SYSTICK_Callback(void)
{
  /* NOTE : This function Should not be modified, when the callback is needed,
            the HAL_SYSTICK_Callback could be implemented in the user file
   */
}
 80029d8:	4770      	bx	lr
 80029da:	46c0      	nop			; (mov r8, r8)

080029dc <HAL_SYSTICK_IRQHandler>:
{
 80029dc:	b510      	push	{r4, lr}
  HAL_SYSTICK_Callback();
 80029de:	f7ff fffb 	bl	80029d8 <HAL_SYSTICK_Callback>
}
 80029e2:	bd10      	pop	{r4, pc}

080029e4 <HAL_DMA_Init>:
  * @param  hdma Pointer to a DMA_HandleTypeDef structure that contains
  *               the configuration information for the specified DMA Channel.  
  * @retval HAL status
  */
HAL_StatusTypeDef HAL_DMA_Init(DMA_HandleTypeDef *hdma)
{ 
 80029e4:	b570      	push	{r4, r5, r6, lr}
 80029e6:	1e04      	subs	r4, r0, #0
  uint32_t tmp = 0U;
  
  /* Check the DMA handle allocation */
  if(NULL == hdma)
 80029e8:	d027      	beq.n	8002a3a <HAL_DMA_Init+0x56>
  assert_param(IS_DMA_MEMORY_DATA_SIZE(hdma->Init.MemDataAlignment));
  assert_param(IS_DMA_MODE(hdma->Init.Mode));
  assert_param(IS_DMA_PRIORITY(hdma->Init.Priority));
  
  /* Change DMA peripheral state */
  hdma->State = HAL_DMA_STATE_BUSY;
 80029ea:	2521      	movs	r5, #33	; 0x21
 80029ec:	2302      	movs	r3, #2
 80029ee:	5543      	strb	r3, [r0, r5]

  /* Get the CR register value */
  tmp = hdma->Instance->CCR;
 80029f0:	6800      	ldr	r0, [r0, #0]
  
  /* Clear PL, MSIZE, PSIZE, MINC, PINC, CIRC, DIR bits */
  tmp &= ((uint32_t)~(DMA_CCR_PL    | DMA_CCR_MSIZE  | DMA_CCR_PSIZE  | \
 80029f2:	4b13      	ldr	r3, [pc, #76]	; (8002a40 <HAL_DMA_Init+0x5c>)
  tmp = hdma->Instance->CCR;
 80029f4:	6802      	ldr	r2, [r0, #0]
                      DMA_CCR_MINC  | DMA_CCR_PINC   | DMA_CCR_CIRC   | \
                      DMA_CCR_DIR));
  
  /* Prepare the DMA Channel configuration */
  tmp |=  hdma->Init.Direction        |
 80029f6:	68a1      	ldr	r1, [r4, #8]
  tmp &= ((uint32_t)~(DMA_CCR_PL    | DMA_CCR_MSIZE  | DMA_CCR_PSIZE  | \
 80029f8:	401a      	ands	r2, r3
  tmp |=  hdma->Init.Direction        |
 80029fa:	6863      	ldr	r3, [r4, #4]
 80029fc:	430b      	orrs	r3, r1
          hdma->Init.PeriphInc           | hdma->Init.MemInc           |
 80029fe:	68e1      	ldr	r1, [r4, #12]
 8002a00:	430b      	orrs	r3, r1
 8002a02:	6921      	ldr	r1, [r4, #16]
 8002a04:	430b      	orrs	r3, r1
          hdma->Init.PeriphDataAlignment | hdma->Init.MemDataAlignment |
 8002a06:	6961      	ldr	r1, [r4, #20]
 8002a08:	430b      	orrs	r3, r1
 8002a0a:	69a1      	ldr	r1, [r4, #24]
 8002a0c:	430b      	orrs	r3, r1
          hdma->Init.Mode                | hdma->Init.Priority;
 8002a0e:	69e1      	ldr	r1, [r4, #28]
 8002a10:	430b      	orrs	r3, r1
  tmp |=  hdma->Init.Direction        |
 8002a12:	4313      	orrs	r3, r2

  /* Write to DMA Channel CR register */
  hdma->Instance->CCR = tmp;  
 8002a14:	6003      	str	r3, [r0, #0]
    hdma->DmaBaseAddress = DMA2;
  }
#else
  /* calculation of the channel index */
  /* DMA1 */
  hdma->ChannelIndex = (((uint32_t)hdma->Instance - (uint32_t)DMA1_Channel1) / ((uint32_t)DMA1_Channel2 - (uint32_t)DMA1_Channel1)) << 2U;
 8002a16:	4b0b      	ldr	r3, [pc, #44]	; (8002a44 <HAL_DMA_Init+0x60>)
 8002a18:	2114      	movs	r1, #20
 8002a1a:	469c      	mov	ip, r3
 8002a1c:	4460      	add	r0, ip
 8002a1e:	f7fd fb73 	bl	8000108 <__udivsi3>
  hdma->DmaBaseAddress = DMA1;
 8002a22:	4b09      	ldr	r3, [pc, #36]	; (8002a48 <HAL_DMA_Init+0x64>)
  hdma->State = HAL_DMA_STATE_READY;
 8002a24:	2201      	movs	r2, #1
  hdma->DmaBaseAddress = DMA1;
 8002a26:	63e3      	str	r3, [r4, #60]	; 0x3c
  hdma->ErrorCode = HAL_DMA_ERROR_NONE;
 8002a28:	2300      	movs	r3, #0
  hdma->ChannelIndex = (((uint32_t)hdma->Instance - (uint32_t)DMA1_Channel1) / ((uint32_t)DMA1_Channel2 - (uint32_t)DMA1_Channel1)) << 2U;
 8002a2a:	0080      	lsls	r0, r0, #2
 8002a2c:	6420      	str	r0, [r4, #64]	; 0x40
  return HAL_OK;
 8002a2e:	2000      	movs	r0, #0
  hdma->ErrorCode = HAL_DMA_ERROR_NONE;
 8002a30:	63a3      	str	r3, [r4, #56]	; 0x38
  hdma->State = HAL_DMA_STATE_READY;
 8002a32:	5562      	strb	r2, [r4, r5]
  hdma->Lock = HAL_UNLOCKED;
 8002a34:	321f      	adds	r2, #31
 8002a36:	54a3      	strb	r3, [r4, r2]
}  
 8002a38:	bd70      	pop	{r4, r5, r6, pc}
    return HAL_ERROR;
 8002a3a:	2001      	movs	r0, #1
 8002a3c:	e7fc      	b.n	8002a38 <HAL_DMA_Init+0x54>
 8002a3e:	46c0      	nop			; (mov r8, r8)
 8002a40:	ffffc00f 	.word	0xffffc00f
 8002a44:	bffdfff8 	.word	0xbffdfff8
 8002a48:	40020000 	.word	0x40020000

08002a4c <HAL_GPIO_Init>:
  * @param  GPIO_Init pointer to a GPIO_InitTypeDef structure that contains
  *         the configuration information for the specified GPIO peripheral.
  * @retval None
  */
void HAL_GPIO_Init(GPIO_TypeDef  *GPIOx, GPIO_InitTypeDef *GPIO_Init)
{
 8002a4c:	b5f0      	push	{r4, r5, r6, r7, lr}
 8002a4e:	46de      	mov	lr, fp
 8002a50:	4657      	mov	r7, sl
 8002a52:	464e      	mov	r6, r9
 8002a54:	4645      	mov	r5, r8
 8002a56:	b5e0      	push	{r5, r6, r7, lr}
 8002a58:	468c      	mov	ip, r1
  assert_param(IS_GPIO_ALL_INSTANCE(GPIOx));
  assert_param(IS_GPIO_PIN(GPIO_Init->Pin));
  assert_param(IS_GPIO_MODE(GPIO_Init->Mode));

  /* Configure the port pins */
  while (((GPIO_Init->Pin) >> position) != 0x00u)
 8002a5a:	6809      	ldr	r1, [r1, #0]
 8002a5c:	2200      	movs	r2, #0
  uint32_t position = 0x00u;
 8002a5e:	2300      	movs	r3, #0
{
 8002a60:	b087      	sub	sp, #28
  while (((GPIO_Init->Pin) >> position) != 0x00u)
 8002a62:	2900      	cmp	r1, #0
 8002a64:	d100      	bne.n	8002a68 <HAL_GPIO_Init+0x1c>
 8002a66:	e0d0      	b.n	8002c0a <HAL_GPIO_Init+0x1be>
      /*--------------------- EXTI Mode Configuration ------------------------*/
      /* Configure the External Interrupt or event for the current IO */
      if((GPIO_Init->Mode & EXTI_MODE) != 0x00u)
      {
        /* Enable SYSCFG Clock */
        __HAL_RCC_SYSCFG_CLK_ENABLE();
 8002a68:	4c72      	ldr	r4, [pc, #456]	; (8002c34 <HAL_GPIO_Init+0x1e8>)
        SYSCFG->EXTICR[position >> 2u] = temp;

        /* Clear EXTI line configuration */
        temp = EXTI->IMR;
        temp &= ~(iocurrent);
        if((GPIO_Init->Mode & EXTI_IT) != 0x00u)
 8002a6a:	46e2      	mov	sl, ip
        __HAL_RCC_SYSCFG_CLK_ENABLE();
 8002a6c:	46a3      	mov	fp, r4
 8002a6e:	e064      	b.n	8002b3a <HAL_GPIO_Init+0xee>
      if((GPIO_Init->Mode & GPIO_MODE) != MODE_ANALOG)
 8002a70:	4665      	mov	r5, ip
 8002a72:	2d03      	cmp	r5, #3
 8002a74:	d000      	beq.n	8002a78 <HAL_GPIO_Init+0x2c>
 8002a76:	e0b6      	b.n	8002be6 <HAL_GPIO_Init+0x19a>
        temp &= ~(GPIO_OSPEEDER_OSPEEDR0 << (position * 2u));
 8002a78:	4666      	mov	r6, ip
 8002a7a:	4096      	lsls	r6, r2
 8002a7c:	43f5      	mvns	r5, r6
 8002a7e:	9502      	str	r5, [sp, #8]
      temp = GPIOx->MODER;
 8002a80:	6807      	ldr	r7, [r0, #0]
      temp &= ~(GPIO_MODER_MODER0 << (position * 2u));
 8002a82:	9d02      	ldr	r5, [sp, #8]
 8002a84:	403d      	ands	r5, r7
      temp |= ((GPIO_Init->Mode & GPIO_MODE) << (position * 2u));
 8002a86:	432e      	orrs	r6, r5
      if((GPIO_Init->Mode & EXTI_MODE) != 0x00u)
 8002a88:	25c0      	movs	r5, #192	; 0xc0
 8002a8a:	02ad      	lsls	r5, r5, #10
      GPIOx->MODER = temp;
 8002a8c:	6006      	str	r6, [r0, #0]
      if((GPIO_Init->Mode & EXTI_MODE) != 0x00u)
 8002a8e:	422c      	tst	r4, r5
 8002a90:	d04d      	beq.n	8002b2e <HAL_GPIO_Init+0xe2>
        __HAL_RCC_SYSCFG_CLK_ENABLE();
 8002a92:	465d      	mov	r5, fp
 8002a94:	2601      	movs	r6, #1
 8002a96:	465f      	mov	r7, fp
 8002a98:	69ad      	ldr	r5, [r5, #24]
 8002a9a:	4335      	orrs	r5, r6
 8002a9c:	61bd      	str	r5, [r7, #24]
 8002a9e:	69bd      	ldr	r5, [r7, #24]
        temp &= ~(0x0FuL << (4u * (position & 0x03u)));
 8002aa0:	2703      	movs	r7, #3
        __HAL_RCC_SYSCFG_CLK_ENABLE();
 8002aa2:	4035      	ands	r5, r6
 8002aa4:	4e64      	ldr	r6, [pc, #400]	; (8002c38 <HAL_GPIO_Init+0x1ec>)
 8002aa6:	9505      	str	r5, [sp, #20]
 8002aa8:	46b4      	mov	ip, r6
 8002aaa:	9d05      	ldr	r5, [sp, #20]
        temp &= ~(0x0FuL << (4u * (position & 0x03u)));
 8002aac:	401f      	ands	r7, r3
        temp = SYSCFG->EXTICR[position >> 2u];
 8002aae:	089d      	lsrs	r5, r3, #2
        temp &= ~(0x0FuL << (4u * (position & 0x03u)));
 8002ab0:	00bf      	lsls	r7, r7, #2
 8002ab2:	00ad      	lsls	r5, r5, #2
 8002ab4:	4465      	add	r5, ip
 8002ab6:	46bc      	mov	ip, r7
        temp = SYSCFG->EXTICR[position >> 2u];
 8002ab8:	68ae      	ldr	r6, [r5, #8]
        temp &= ~(0x0FuL << (4u * (position & 0x03u)));
 8002aba:	270f      	movs	r7, #15
        temp = SYSCFG->EXTICR[position >> 2u];
 8002abc:	46b1      	mov	r9, r6
        temp &= ~(0x0FuL << (4u * (position & 0x03u)));
 8002abe:	4666      	mov	r6, ip
 8002ac0:	40b7      	lsls	r7, r6
 8002ac2:	003e      	movs	r6, r7
 8002ac4:	464f      	mov	r7, r9
 8002ac6:	43b7      	bics	r7, r6
 8002ac8:	46b9      	mov	r9, r7
        temp |= (GPIO_GET_INDEX(GPIOx) << (4u * (position & 0x03u)));
 8002aca:	2790      	movs	r7, #144	; 0x90
 8002acc:	05ff      	lsls	r7, r7, #23
 8002ace:	42b8      	cmp	r0, r7
 8002ad0:	d00e      	beq.n	8002af0 <HAL_GPIO_Init+0xa4>
 8002ad2:	4f5a      	ldr	r7, [pc, #360]	; (8002c3c <HAL_GPIO_Init+0x1f0>)
 8002ad4:	42b8      	cmp	r0, r7
 8002ad6:	d100      	bne.n	8002ada <HAL_GPIO_Init+0x8e>
 8002ad8:	e09e      	b.n	8002c18 <HAL_GPIO_Init+0x1cc>
 8002ada:	4f59      	ldr	r7, [pc, #356]	; (8002c40 <HAL_GPIO_Init+0x1f4>)
 8002adc:	42b8      	cmp	r0, r7
 8002ade:	d100      	bne.n	8002ae2 <HAL_GPIO_Init+0x96>
 8002ae0:	e0a1      	b.n	8002c26 <HAL_GPIO_Init+0x1da>
 8002ae2:	4666      	mov	r6, ip
 8002ae4:	2705      	movs	r7, #5
 8002ae6:	40b7      	lsls	r7, r6
 8002ae8:	003e      	movs	r6, r7
 8002aea:	464f      	mov	r7, r9
 8002aec:	4337      	orrs	r7, r6
 8002aee:	46b9      	mov	r9, r7
        SYSCFG->EXTICR[position >> 2u] = temp;
 8002af0:	464e      	mov	r6, r9
        if((GPIO_Init->Mode & EXTI_IT) != 0x00u)
 8002af2:	2780      	movs	r7, #128	; 0x80
        SYSCFG->EXTICR[position >> 2u] = temp;
 8002af4:	60ae      	str	r6, [r5, #8]
        temp = EXTI->IMR;
 8002af6:	4d53      	ldr	r5, [pc, #332]	; (8002c44 <HAL_GPIO_Init+0x1f8>)
        temp &= ~(iocurrent);
 8002af8:	9e01      	ldr	r6, [sp, #4]
        if((GPIO_Init->Mode & EXTI_IT) != 0x00u)
 8002afa:	027f      	lsls	r7, r7, #9
        temp &= ~(iocurrent);
 8002afc:	43f6      	mvns	r6, r6
        temp = EXTI->IMR;
 8002afe:	682d      	ldr	r5, [r5, #0]
        if((GPIO_Init->Mode & EXTI_IT) != 0x00u)
 8002b00:	423c      	tst	r4, r7
 8002b02:	d17f      	bne.n	8002c04 <HAL_GPIO_Init+0x1b8>
        temp &= ~(iocurrent);
 8002b04:	4035      	ands	r5, r6
        {
          temp |= iocurrent;
        }
        EXTI->IMR = temp;
 8002b06:	4f4f      	ldr	r7, [pc, #316]	; (8002c44 <HAL_GPIO_Init+0x1f8>)
 8002b08:	603d      	str	r5, [r7, #0]

        temp = EXTI->EMR;
 8002b0a:	687d      	ldr	r5, [r7, #4]
        temp &= ~(iocurrent);
        if((GPIO_Init->Mode & EXTI_EVT) != 0x00u)
 8002b0c:	03a7      	lsls	r7, r4, #14
 8002b0e:	d476      	bmi.n	8002bfe <HAL_GPIO_Init+0x1b2>
        temp &= ~(iocurrent);
 8002b10:	4035      	ands	r5, r6
        {
          temp |= iocurrent;
        }
        EXTI->EMR = temp;
 8002b12:	4f4c      	ldr	r7, [pc, #304]	; (8002c44 <HAL_GPIO_Init+0x1f8>)
 8002b14:	607d      	str	r5, [r7, #4]

        /* Clear Rising Falling edge configuration */
        temp = EXTI->RTSR;
 8002b16:	68bd      	ldr	r5, [r7, #8]
        temp &= ~(iocurrent);
        if((GPIO_Init->Mode & TRIGGER_RISING) != 0x00u)
 8002b18:	02e7      	lsls	r7, r4, #11
 8002b1a:	d46d      	bmi.n	8002bf8 <HAL_GPIO_Init+0x1ac>
        temp &= ~(iocurrent);
 8002b1c:	4035      	ands	r5, r6
        {
          temp |= iocurrent;
        }
        EXTI->RTSR = temp;
 8002b1e:	4f49      	ldr	r7, [pc, #292]	; (8002c44 <HAL_GPIO_Init+0x1f8>)
 8002b20:	60bd      	str	r5, [r7, #8]

        temp = EXTI->FTSR;
 8002b22:	68fd      	ldr	r5, [r7, #12]
        temp &= ~(iocurrent);
        if((GPIO_Init->Mode & TRIGGER_FALLING) != 0x00u)
 8002b24:	02a4      	lsls	r4, r4, #10
 8002b26:	d463      	bmi.n	8002bf0 <HAL_GPIO_Init+0x1a4>
        temp &= ~(iocurrent);
 8002b28:	4035      	ands	r5, r6
        {
          temp |= iocurrent;
        }
        EXTI->FTSR = temp;
 8002b2a:	4c46      	ldr	r4, [pc, #280]	; (8002c44 <HAL_GPIO_Init+0x1f8>)
 8002b2c:	60e5      	str	r5, [r4, #12]
  while (((GPIO_Init->Pin) >> position) != 0x00u)
 8002b2e:	000c      	movs	r4, r1
      }
    }

    position++;
 8002b30:	3301      	adds	r3, #1
  while (((GPIO_Init->Pin) >> position) != 0x00u)
 8002b32:	40dc      	lsrs	r4, r3
 8002b34:	3202      	adds	r2, #2
 8002b36:	2c00      	cmp	r4, #0
 8002b38:	d067      	beq.n	8002c0a <HAL_GPIO_Init+0x1be>
    iocurrent = (GPIO_Init->Pin) & (1uL << position);
 8002b3a:	2601      	movs	r6, #1
 8002b3c:	000c      	movs	r4, r1
 8002b3e:	409e      	lsls	r6, r3
 8002b40:	4034      	ands	r4, r6
 8002b42:	9401      	str	r4, [sp, #4]
    if (iocurrent != 0x00u)
 8002b44:	4231      	tst	r1, r6
 8002b46:	d0f2      	beq.n	8002b2e <HAL_GPIO_Init+0xe2>
      if(((GPIO_Init->Mode & GPIO_MODE) == MODE_OUTPUT) ||
 8002b48:	4654      	mov	r4, sl
 8002b4a:	2503      	movs	r5, #3
 8002b4c:	6864      	ldr	r4, [r4, #4]
 8002b4e:	4025      	ands	r5, r4
 8002b50:	46ac      	mov	ip, r5
 8002b52:	3d01      	subs	r5, #1
 8002b54:	2d01      	cmp	r5, #1
 8002b56:	d88b      	bhi.n	8002a70 <HAL_GPIO_Init+0x24>
        temp = GPIOx->OSPEEDR;
 8002b58:	6885      	ldr	r5, [r0, #8]
 8002b5a:	46a9      	mov	r9, r5
        temp &= ~(GPIO_OSPEEDER_OSPEEDR0 << (position * 2u));
 8002b5c:	2503      	movs	r5, #3
 8002b5e:	4095      	lsls	r5, r2
 8002b60:	46a8      	mov	r8, r5
 8002b62:	43ed      	mvns	r5, r5
 8002b64:	464f      	mov	r7, r9
 8002b66:	9502      	str	r5, [sp, #8]
 8002b68:	4645      	mov	r5, r8
 8002b6a:	43af      	bics	r7, r5
        temp |= (GPIO_Init->Speed << (position * 2u));
 8002b6c:	4655      	mov	r5, sl
 8002b6e:	68ed      	ldr	r5, [r5, #12]
        temp &= ~(GPIO_OSPEEDER_OSPEEDR0 << (position * 2u));
 8002b70:	46b9      	mov	r9, r7
        temp |= (GPIO_Init->Speed << (position * 2u));
 8002b72:	002f      	movs	r7, r5
 8002b74:	4097      	lsls	r7, r2
 8002b76:	46b8      	mov	r8, r7
 8002b78:	464f      	mov	r7, r9
 8002b7a:	4645      	mov	r5, r8
 8002b7c:	432f      	orrs	r7, r5
        GPIOx->OSPEEDR = temp;
 8002b7e:	6087      	str	r7, [r0, #8]
        temp = GPIOx->OTYPER;
 8002b80:	6845      	ldr	r5, [r0, #4]
        temp &= ~(GPIO_OTYPER_OT_0 << position) ;
 8002b82:	002f      	movs	r7, r5
        temp |= (((GPIO_Init->Mode & OUTPUT_TYPE) >> OUTPUT_TYPE_Pos) << position);
 8002b84:	2501      	movs	r5, #1
        temp &= ~(GPIO_OTYPER_OT_0 << position) ;
 8002b86:	43b7      	bics	r7, r6
        temp |= (((GPIO_Init->Mode & OUTPUT_TYPE) >> OUTPUT_TYPE_Pos) << position);
 8002b88:	0926      	lsrs	r6, r4, #4
 8002b8a:	402e      	ands	r6, r5
 8002b8c:	409e      	lsls	r6, r3
 8002b8e:	433e      	orrs	r6, r7
        GPIOx->OTYPER = temp;
 8002b90:	6046      	str	r6, [r0, #4]
        temp = GPIOx->PUPDR;
 8002b92:	68c6      	ldr	r6, [r0, #12]
        temp &= ~(GPIO_PUPDR_PUPDR0 << (position * 2u));
 8002b94:	9d02      	ldr	r5, [sp, #8]
 8002b96:	402e      	ands	r6, r5
 8002b98:	46b0      	mov	r8, r6
        temp |= ((GPIO_Init->Pull) << (position * 2u));
 8002b9a:	4656      	mov	r6, sl
 8002b9c:	68b6      	ldr	r6, [r6, #8]
 8002b9e:	4647      	mov	r7, r8
 8002ba0:	4096      	lsls	r6, r2
 8002ba2:	433e      	orrs	r6, r7
        GPIOx->PUPDR = temp;
 8002ba4:	60c6      	str	r6, [r0, #12]
      if((GPIO_Init->Mode & GPIO_MODE) == MODE_AF)
 8002ba6:	4667      	mov	r7, ip
 8002ba8:	4666      	mov	r6, ip
 8002baa:	4096      	lsls	r6, r2
 8002bac:	2f02      	cmp	r7, #2
 8002bae:	d000      	beq.n	8002bb2 <HAL_GPIO_Init+0x166>
 8002bb0:	e766      	b.n	8002a80 <HAL_GPIO_Init+0x34>
        temp = GPIOx->AFR[position >> 3u];
 8002bb2:	08dd      	lsrs	r5, r3, #3
 8002bb4:	00ad      	lsls	r5, r5, #2
 8002bb6:	46ac      	mov	ip, r5
 8002bb8:	4484      	add	ip, r0
 8002bba:	4665      	mov	r5, ip
 8002bbc:	6a2f      	ldr	r7, [r5, #32]
        temp &= ~(0xFu << ((position & 0x07u) * 4u));
 8002bbe:	2507      	movs	r5, #7
 8002bc0:	401d      	ands	r5, r3
 8002bc2:	00ad      	lsls	r5, r5, #2
 8002bc4:	46a8      	mov	r8, r5
        temp = GPIOx->AFR[position >> 3u];
 8002bc6:	9703      	str	r7, [sp, #12]
        temp &= ~(0xFu << ((position & 0x07u) * 4u));
 8002bc8:	250f      	movs	r5, #15
 8002bca:	4647      	mov	r7, r8
 8002bcc:	40bd      	lsls	r5, r7
 8002bce:	9f03      	ldr	r7, [sp, #12]
 8002bd0:	43af      	bics	r7, r5
        temp |= ((GPIO_Init->Alternate) << ((position & 0x07u) * 4u));
 8002bd2:	4655      	mov	r5, sl
        temp &= ~(0xFu << ((position & 0x07u) * 4u));
 8002bd4:	9703      	str	r7, [sp, #12]
        temp |= ((GPIO_Init->Alternate) << ((position & 0x07u) * 4u));
 8002bd6:	4647      	mov	r7, r8
 8002bd8:	692d      	ldr	r5, [r5, #16]
 8002bda:	40bd      	lsls	r5, r7
 8002bdc:	9f03      	ldr	r7, [sp, #12]
 8002bde:	432f      	orrs	r7, r5
        GPIOx->AFR[position >> 3u] = temp;
 8002be0:	4665      	mov	r5, ip
 8002be2:	622f      	str	r7, [r5, #32]
 8002be4:	e74c      	b.n	8002a80 <HAL_GPIO_Init+0x34>
        temp &= ~(GPIO_OSPEEDER_OSPEEDR0 << (position * 2u));
 8002be6:	2503      	movs	r5, #3
 8002be8:	4095      	lsls	r5, r2
 8002bea:	43ed      	mvns	r5, r5
 8002bec:	9502      	str	r5, [sp, #8]
 8002bee:	e7d0      	b.n	8002b92 <HAL_GPIO_Init+0x146>
          temp |= iocurrent;
 8002bf0:	9c01      	ldr	r4, [sp, #4]
 8002bf2:	432c      	orrs	r4, r5
 8002bf4:	0025      	movs	r5, r4
 8002bf6:	e798      	b.n	8002b2a <HAL_GPIO_Init+0xde>
          temp |= iocurrent;
 8002bf8:	9f01      	ldr	r7, [sp, #4]
 8002bfa:	433d      	orrs	r5, r7
 8002bfc:	e78f      	b.n	8002b1e <HAL_GPIO_Init+0xd2>
          temp |= iocurrent;
 8002bfe:	9f01      	ldr	r7, [sp, #4]
 8002c00:	433d      	orrs	r5, r7
 8002c02:	e786      	b.n	8002b12 <HAL_GPIO_Init+0xc6>
          temp |= iocurrent;
 8002c04:	9f01      	ldr	r7, [sp, #4]
 8002c06:	433d      	orrs	r5, r7
 8002c08:	e77d      	b.n	8002b06 <HAL_GPIO_Init+0xba>
  } 
}
 8002c0a:	b007      	add	sp, #28
 8002c0c:	bcf0      	pop	{r4, r5, r6, r7}
 8002c0e:	46bb      	mov	fp, r7
 8002c10:	46b2      	mov	sl, r6
 8002c12:	46a9      	mov	r9, r5
 8002c14:	46a0      	mov	r8, r4
 8002c16:	bdf0      	pop	{r4, r5, r6, r7, pc}
        temp |= (GPIO_GET_INDEX(GPIOx) << (4u * (position & 0x03u)));
 8002c18:	4667      	mov	r7, ip
 8002c1a:	2601      	movs	r6, #1
 8002c1c:	40be      	lsls	r6, r7
 8002c1e:	464f      	mov	r7, r9
 8002c20:	4337      	orrs	r7, r6
 8002c22:	46b9      	mov	r9, r7
 8002c24:	e764      	b.n	8002af0 <HAL_GPIO_Init+0xa4>
 8002c26:	4667      	mov	r7, ip
 8002c28:	2602      	movs	r6, #2
 8002c2a:	40be      	lsls	r6, r7
 8002c2c:	464f      	mov	r7, r9
 8002c2e:	4337      	orrs	r7, r6
 8002c30:	46b9      	mov	r9, r7
 8002c32:	e75d      	b.n	8002af0 <HAL_GPIO_Init+0xa4>
 8002c34:	40021000 	.word	0x40021000
 8002c38:	40010000 	.word	0x40010000
 8002c3c:	48000400 	.word	0x48000400
 8002c40:	48000800 	.word	0x48000800
 8002c44:	40010400 	.word	0x40010400

08002c48 <HAL_GPIO_WritePin>:
{
  /* Check the parameters */
  assert_param(IS_GPIO_PIN(GPIO_Pin));
  assert_param(IS_GPIO_PIN_ACTION(PinState));

  if (PinState != GPIO_PIN_RESET)
 8002c48:	2a00      	cmp	r2, #0
 8002c4a:	d001      	beq.n	8002c50 <HAL_GPIO_WritePin+0x8>
  {
    GPIOx->BSRR = (uint32_t)GPIO_Pin;
 8002c4c:	6181      	str	r1, [r0, #24]
  }
  else
  {
    GPIOx->BRR = (uint32_t)GPIO_Pin;
  }
}
 8002c4e:	4770      	bx	lr
    GPIOx->BRR = (uint32_t)GPIO_Pin;
 8002c50:	6281      	str	r1, [r0, #40]	; 0x28
}
 8002c52:	e7fc      	b.n	8002c4e <HAL_GPIO_WritePin+0x6>

08002c54 <HAL_RCC_OscConfig>:
  *         supported by this macro. User should request a transition to HSE Off
  *         first and then HSE On or HSE Bypass.
  * @retval HAL status
  */
HAL_StatusTypeDef HAL_RCC_OscConfig(RCC_OscInitTypeDef  *RCC_OscInitStruct)
{
 8002c54:	b5f0      	push	{r4, r5, r6, r7, lr}
 8002c56:	46ce      	mov	lr, r9
 8002c58:	4647      	mov	r7, r8
 8002c5a:	b580      	push	{r7, lr}
 8002c5c:	0004      	movs	r4, r0
 8002c5e:	b083      	sub	sp, #12
  uint32_t tickstart;
  uint32_t pll_config;
  uint32_t pll_config2;

  /* Check Null pointer */
  if(RCC_OscInitStruct == NULL)
 8002c60:	2800      	cmp	r0, #0
 8002c62:	d100      	bne.n	8002c66 <HAL_RCC_OscConfig+0x12>
 8002c64:	e0ee      	b.n	8002e44 <HAL_RCC_OscConfig+0x1f0>

  /* Check the parameters */
  assert_param(IS_RCC_OSCILLATORTYPE(RCC_OscInitStruct->OscillatorType));

  /*------------------------------- HSE Configuration ------------------------*/ 
  if(((RCC_OscInitStruct->OscillatorType) & RCC_OSCILLATORTYPE_HSE) == RCC_OSCILLATORTYPE_HSE)
 8002c66:	6803      	ldr	r3, [r0, #0]
 8002c68:	07da      	lsls	r2, r3, #31
 8002c6a:	d535      	bpl.n	8002cd8 <HAL_RCC_OscConfig+0x84>
  {
    /* Check the parameters */
    assert_param(IS_RCC_HSE(RCC_OscInitStruct->HSEState));

    /* When the HSE is used as system clock or clock source for PLL in these cases it is not allowed to be disabled */
    if((__HAL_RCC_GET_SYSCLK_SOURCE() == RCC_SYSCLKSOURCE_STATUS_HSE) 
 8002c6c:	210c      	movs	r1, #12
 8002c6e:	48c3      	ldr	r0, [pc, #780]	; (8002f7c <HAL_RCC_OscConfig+0x328>)
 8002c70:	6842      	ldr	r2, [r0, #4]
 8002c72:	400a      	ands	r2, r1
 8002c74:	2a04      	cmp	r2, #4
 8002c76:	d100      	bne.n	8002c7a <HAL_RCC_OscConfig+0x26>
 8002c78:	e101      	b.n	8002e7e <HAL_RCC_OscConfig+0x22a>
       || ((__HAL_RCC_GET_SYSCLK_SOURCE() == RCC_SYSCLKSOURCE_STATUS_PLLCLK) && (__HAL_RCC_GET_PLL_OSCSOURCE() == RCC_PLLSOURCE_HSE)))
 8002c7a:	6842      	ldr	r2, [r0, #4]
 8002c7c:	4011      	ands	r1, r2
 8002c7e:	2908      	cmp	r1, #8
 8002c80:	d100      	bne.n	8002c84 <HAL_RCC_OscConfig+0x30>
 8002c82:	e0f8      	b.n	8002e76 <HAL_RCC_OscConfig+0x222>
      }
    }
    else
    {
      /* Set the new HSE configuration ---------------------------------------*/
      __HAL_RCC_HSE_CONFIG(RCC_OscInitStruct->HSEState);
 8002c84:	6863      	ldr	r3, [r4, #4]
 8002c86:	2b01      	cmp	r3, #1
 8002c88:	d00f      	beq.n	8002caa <HAL_RCC_OscConfig+0x56>
 8002c8a:	2b00      	cmp	r3, #0
 8002c8c:	d100      	bne.n	8002c90 <HAL_RCC_OscConfig+0x3c>
 8002c8e:	e11e      	b.n	8002ece <HAL_RCC_OscConfig+0x27a>
 8002c90:	2b05      	cmp	r3, #5
 8002c92:	d100      	bne.n	8002c96 <HAL_RCC_OscConfig+0x42>
 8002c94:	e1a7      	b.n	8002fe6 <HAL_RCC_OscConfig+0x392>
 8002c96:	4bb9      	ldr	r3, [pc, #740]	; (8002f7c <HAL_RCC_OscConfig+0x328>)
 8002c98:	49b9      	ldr	r1, [pc, #740]	; (8002f80 <HAL_RCC_OscConfig+0x32c>)
 8002c9a:	681a      	ldr	r2, [r3, #0]
 8002c9c:	400a      	ands	r2, r1
 8002c9e:	601a      	str	r2, [r3, #0]
 8002ca0:	681a      	ldr	r2, [r3, #0]
 8002ca2:	49b8      	ldr	r1, [pc, #736]	; (8002f84 <HAL_RCC_OscConfig+0x330>)
 8002ca4:	400a      	ands	r2, r1
 8002ca6:	601a      	str	r2, [r3, #0]
 8002ca8:	e005      	b.n	8002cb6 <HAL_RCC_OscConfig+0x62>
 8002caa:	2380      	movs	r3, #128	; 0x80
 8002cac:	4ab3      	ldr	r2, [pc, #716]	; (8002f7c <HAL_RCC_OscConfig+0x328>)
 8002cae:	025b      	lsls	r3, r3, #9
 8002cb0:	6811      	ldr	r1, [r2, #0]
 8002cb2:	430b      	orrs	r3, r1
 8002cb4:	6013      	str	r3, [r2, #0]

       /* Check the HSE State */
      if(RCC_OscInitStruct->HSEState != RCC_HSE_OFF)
      {
        /* Get Start Tick */
        tickstart = HAL_GetTick();
 8002cb6:	f7ff fcf5 	bl	80026a4 <HAL_GetTick>
        
        /* Wait till HSE is ready */
        while(__HAL_RCC_GET_FLAG(RCC_FLAG_HSERDY) == RESET)
 8002cba:	2680      	movs	r6, #128	; 0x80
        tickstart = HAL_GetTick();
 8002cbc:	0005      	movs	r5, r0
        while(__HAL_RCC_GET_FLAG(RCC_FLAG_HSERDY) == RESET)
 8002cbe:	4faf      	ldr	r7, [pc, #700]	; (8002f7c <HAL_RCC_OscConfig+0x328>)
 8002cc0:	02b6      	lsls	r6, r6, #10
 8002cc2:	e005      	b.n	8002cd0 <HAL_RCC_OscConfig+0x7c>
        {
          if((HAL_GetTick() - tickstart ) > HSE_TIMEOUT_VALUE)
 8002cc4:	f7ff fcee 	bl	80026a4 <HAL_GetTick>
 8002cc8:	1b40      	subs	r0, r0, r5
 8002cca:	2864      	cmp	r0, #100	; 0x64
 8002ccc:	d900      	bls.n	8002cd0 <HAL_RCC_OscConfig+0x7c>
 8002cce:	e0fc      	b.n	8002eca <HAL_RCC_OscConfig+0x276>
        while(__HAL_RCC_GET_FLAG(RCC_FLAG_HSERDY) == RESET)
 8002cd0:	683b      	ldr	r3, [r7, #0]
 8002cd2:	4233      	tst	r3, r6
 8002cd4:	d0f6      	beq.n	8002cc4 <HAL_RCC_OscConfig+0x70>
        }
      }
    }
  }
  /*----------------------------- HSI Configuration --------------------------*/ 
  if(((RCC_OscInitStruct->OscillatorType) & RCC_OSCILLATORTYPE_HSI) == RCC_OSCILLATORTYPE_HSI)
 8002cd6:	6823      	ldr	r3, [r4, #0]
 8002cd8:	079a      	lsls	r2, r3, #30
 8002cda:	d529      	bpl.n	8002d30 <HAL_RCC_OscConfig+0xdc>
    /* Check the parameters */
    assert_param(IS_RCC_HSI(RCC_OscInitStruct->HSIState));
    assert_param(IS_RCC_CALIBRATION_VALUE(RCC_OscInitStruct->HSICalibrationValue));
    
    /* Check if HSI is used as system clock or as PLL source when PLL is selected as system clock */ 
    if((__HAL_RCC_GET_SYSCLK_SOURCE() == RCC_SYSCLKSOURCE_STATUS_HSI) 
 8002cdc:	220c      	movs	r2, #12
 8002cde:	49a7      	ldr	r1, [pc, #668]	; (8002f7c <HAL_RCC_OscConfig+0x328>)
 8002ce0:	6848      	ldr	r0, [r1, #4]
 8002ce2:	4202      	tst	r2, r0
 8002ce4:	d100      	bne.n	8002ce8 <HAL_RCC_OscConfig+0x94>
 8002ce6:	e0a6      	b.n	8002e36 <HAL_RCC_OscConfig+0x1e2>
       || ((__HAL_RCC_GET_SYSCLK_SOURCE() == RCC_SYSCLKSOURCE_STATUS_PLLCLK) && (__HAL_RCC_GET_PLL_OSCSOURCE() == RCC_PLLSOURCE_HSI)))
 8002ce8:	6848      	ldr	r0, [r1, #4]
 8002cea:	4002      	ands	r2, r0
 8002cec:	2a08      	cmp	r2, #8
 8002cee:	d100      	bne.n	8002cf2 <HAL_RCC_OscConfig+0x9e>
 8002cf0:	e09d      	b.n	8002e2e <HAL_RCC_OscConfig+0x1da>
      }
    }
    else
    {
      /* Check the HSI State */
      if(RCC_OscInitStruct->HSIState != RCC_HSI_OFF)
 8002cf2:	68e3      	ldr	r3, [r4, #12]
      {
       /* Enable the Internal High Speed oscillator (HSI). */
        __HAL_RCC_HSI_ENABLE();
 8002cf4:	4da1      	ldr	r5, [pc, #644]	; (8002f7c <HAL_RCC_OscConfig+0x328>)
      if(RCC_OscInitStruct->HSIState != RCC_HSI_OFF)
 8002cf6:	2b00      	cmp	r3, #0
 8002cf8:	d100      	bne.n	8002cfc <HAL_RCC_OscConfig+0xa8>
 8002cfa:	e11f      	b.n	8002f3c <HAL_RCC_OscConfig+0x2e8>
        __HAL_RCC_HSI_ENABLE();
 8002cfc:	2201      	movs	r2, #1
 8002cfe:	682b      	ldr	r3, [r5, #0]
        
        /* Get Start Tick */
        tickstart = HAL_GetTick();
        
        /* Wait till HSI is ready */
        while(__HAL_RCC_GET_FLAG(RCC_FLAG_HSIRDY) == RESET)
 8002d00:	2702      	movs	r7, #2
        __HAL_RCC_HSI_ENABLE();
 8002d02:	4313      	orrs	r3, r2
 8002d04:	602b      	str	r3, [r5, #0]
        tickstart = HAL_GetTick();
 8002d06:	f7ff fccd 	bl	80026a4 <HAL_GetTick>
 8002d0a:	0006      	movs	r6, r0
        while(__HAL_RCC_GET_FLAG(RCC_FLAG_HSIRDY) == RESET)
 8002d0c:	e005      	b.n	8002d1a <HAL_RCC_OscConfig+0xc6>
        {
          if((HAL_GetTick() - tickstart ) > HSI_TIMEOUT_VALUE)
 8002d0e:	f7ff fcc9 	bl	80026a4 <HAL_GetTick>
 8002d12:	1b80      	subs	r0, r0, r6
 8002d14:	2802      	cmp	r0, #2
 8002d16:	d900      	bls.n	8002d1a <HAL_RCC_OscConfig+0xc6>
 8002d18:	e0d7      	b.n	8002eca <HAL_RCC_OscConfig+0x276>
        while(__HAL_RCC_GET_FLAG(RCC_FLAG_HSIRDY) == RESET)
 8002d1a:	682b      	ldr	r3, [r5, #0]
 8002d1c:	421f      	tst	r7, r3
 8002d1e:	d0f6      	beq.n	8002d0e <HAL_RCC_OscConfig+0xba>
            return HAL_TIMEOUT;
          }
        }
                
        /* Adjusts the Internal High Speed oscillator (HSI) calibration value.*/
        __HAL_RCC_HSI_CALIBRATIONVALUE_ADJUST(RCC_OscInitStruct->HSICalibrationValue);
 8002d20:	21f8      	movs	r1, #248	; 0xf8
 8002d22:	682a      	ldr	r2, [r5, #0]
 8002d24:	6923      	ldr	r3, [r4, #16]
 8002d26:	438a      	bics	r2, r1
 8002d28:	00db      	lsls	r3, r3, #3
 8002d2a:	4313      	orrs	r3, r2
 8002d2c:	602b      	str	r3, [r5, #0]
        }
      }
    }
  }
  /*------------------------------ LSI Configuration -------------------------*/ 
  if(((RCC_OscInitStruct->OscillatorType) & RCC_OSCILLATORTYPE_LSI) == RCC_OSCILLATORTYPE_LSI)
 8002d2e:	6823      	ldr	r3, [r4, #0]
 8002d30:	071a      	lsls	r2, r3, #28
 8002d32:	d42d      	bmi.n	8002d90 <HAL_RCC_OscConfig+0x13c>
        }
      }
    }
  }
  /*------------------------------ LSE Configuration -------------------------*/ 
  if(((RCC_OscInitStruct->OscillatorType) & RCC_OSCILLATORTYPE_LSE) == RCC_OSCILLATORTYPE_LSE)
 8002d34:	075a      	lsls	r2, r3, #29
 8002d36:	d544      	bpl.n	8002dc2 <HAL_RCC_OscConfig+0x16e>
    /* Check the parameters */
    assert_param(IS_RCC_LSE(RCC_OscInitStruct->LSEState));

    /* Update LSE configuration in Backup Domain control register    */
    /* Requires to enable write access to Backup Domain of necessary */
    if(__HAL_RCC_PWR_IS_CLK_DISABLED())
 8002d38:	2280      	movs	r2, #128	; 0x80
    FlagStatus       pwrclkchanged = RESET;
 8002d3a:	2000      	movs	r0, #0
    if(__HAL_RCC_PWR_IS_CLK_DISABLED())
 8002d3c:	4b8f      	ldr	r3, [pc, #572]	; (8002f7c <HAL_RCC_OscConfig+0x328>)
 8002d3e:	0552      	lsls	r2, r2, #21
 8002d40:	69d9      	ldr	r1, [r3, #28]
    FlagStatus       pwrclkchanged = RESET;
 8002d42:	4681      	mov	r9, r0
    if(__HAL_RCC_PWR_IS_CLK_DISABLED())
 8002d44:	4211      	tst	r1, r2
 8002d46:	d108      	bne.n	8002d5a <HAL_RCC_OscConfig+0x106>
    {
      __HAL_RCC_PWR_CLK_ENABLE();
 8002d48:	69d9      	ldr	r1, [r3, #28]
 8002d4a:	4311      	orrs	r1, r2
 8002d4c:	61d9      	str	r1, [r3, #28]
 8002d4e:	69db      	ldr	r3, [r3, #28]
 8002d50:	4013      	ands	r3, r2
 8002d52:	9301      	str	r3, [sp, #4]
 8002d54:	9b01      	ldr	r3, [sp, #4]
      pwrclkchanged = SET;
 8002d56:	2301      	movs	r3, #1
 8002d58:	4699      	mov	r9, r3
    }
    
    if(HAL_IS_BIT_CLR(PWR->CR, PWR_CR_DBP))
 8002d5a:	2780      	movs	r7, #128	; 0x80
 8002d5c:	4e8a      	ldr	r6, [pc, #552]	; (8002f88 <HAL_RCC_OscConfig+0x334>)
 8002d5e:	007f      	lsls	r7, r7, #1
 8002d60:	6833      	ldr	r3, [r6, #0]
 8002d62:	423b      	tst	r3, r7
 8002d64:	d100      	bne.n	8002d68 <HAL_RCC_OscConfig+0x114>
 8002d66:	e094      	b.n	8002e92 <HAL_RCC_OscConfig+0x23e>
        }
      }
    }

    /* Set the new LSE configuration -----------------------------------------*/
    __HAL_RCC_LSE_CONFIG(RCC_OscInitStruct->LSEState);
 8002d68:	68a3      	ldr	r3, [r4, #8]
 8002d6a:	2b01      	cmp	r3, #1
 8002d6c:	d100      	bne.n	8002d70 <HAL_RCC_OscConfig+0x11c>
 8002d6e:	e0f8      	b.n	8002f62 <HAL_RCC_OscConfig+0x30e>
 8002d70:	2b00      	cmp	r3, #0
 8002d72:	d100      	bne.n	8002d76 <HAL_RCC_OscConfig+0x122>
 8002d74:	e0c4      	b.n	8002f00 <HAL_RCC_OscConfig+0x2ac>
 8002d76:	2b05      	cmp	r3, #5
 8002d78:	d100      	bne.n	8002d7c <HAL_RCC_OscConfig+0x128>
 8002d7a:	e140      	b.n	8002ffe <HAL_RCC_OscConfig+0x3aa>
 8002d7c:	2101      	movs	r1, #1
 8002d7e:	4b7f      	ldr	r3, [pc, #508]	; (8002f7c <HAL_RCC_OscConfig+0x328>)
 8002d80:	6a1a      	ldr	r2, [r3, #32]
 8002d82:	438a      	bics	r2, r1
 8002d84:	621a      	str	r2, [r3, #32]
 8002d86:	6a1a      	ldr	r2, [r3, #32]
 8002d88:	3103      	adds	r1, #3
 8002d8a:	438a      	bics	r2, r1
 8002d8c:	621a      	str	r2, [r3, #32]
 8002d8e:	e0ec      	b.n	8002f6a <HAL_RCC_OscConfig+0x316>
    if(RCC_OscInitStruct->LSIState != RCC_LSI_OFF)
 8002d90:	69e3      	ldr	r3, [r4, #28]
      __HAL_RCC_LSI_ENABLE();
 8002d92:	4d7a      	ldr	r5, [pc, #488]	; (8002f7c <HAL_RCC_OscConfig+0x328>)
    if(RCC_OscInitStruct->LSIState != RCC_LSI_OFF)
 8002d94:	2b00      	cmp	r3, #0
 8002d96:	d05b      	beq.n	8002e50 <HAL_RCC_OscConfig+0x1fc>
      __HAL_RCC_LSI_ENABLE();
 8002d98:	2201      	movs	r2, #1
 8002d9a:	6a6b      	ldr	r3, [r5, #36]	; 0x24
      while(__HAL_RCC_GET_FLAG(RCC_FLAG_LSIRDY) == RESET)
 8002d9c:	2702      	movs	r7, #2
      __HAL_RCC_LSI_ENABLE();
 8002d9e:	4313      	orrs	r3, r2
 8002da0:	626b      	str	r3, [r5, #36]	; 0x24
      tickstart = HAL_GetTick();
 8002da2:	f7ff fc7f 	bl	80026a4 <HAL_GetTick>
 8002da6:	0006      	movs	r6, r0
      while(__HAL_RCC_GET_FLAG(RCC_FLAG_LSIRDY) == RESET)
 8002da8:	e005      	b.n	8002db6 <HAL_RCC_OscConfig+0x162>
        if((HAL_GetTick() - tickstart ) > LSI_TIMEOUT_VALUE)
 8002daa:	f7ff fc7b 	bl	80026a4 <HAL_GetTick>
 8002dae:	1b80      	subs	r0, r0, r6
 8002db0:	2802      	cmp	r0, #2
 8002db2:	d900      	bls.n	8002db6 <HAL_RCC_OscConfig+0x162>
 8002db4:	e089      	b.n	8002eca <HAL_RCC_OscConfig+0x276>
      while(__HAL_RCC_GET_FLAG(RCC_FLAG_LSIRDY) == RESET)
 8002db6:	6a6b      	ldr	r3, [r5, #36]	; 0x24
 8002db8:	421f      	tst	r7, r3
 8002dba:	d0f6      	beq.n	8002daa <HAL_RCC_OscConfig+0x156>
  if(((RCC_OscInitStruct->OscillatorType) & RCC_OSCILLATORTYPE_LSE) == RCC_OSCILLATORTYPE_LSE)
 8002dbc:	6823      	ldr	r3, [r4, #0]
 8002dbe:	075a      	lsls	r2, r3, #29
 8002dc0:	d4ba      	bmi.n	8002d38 <HAL_RCC_OscConfig+0xe4>
      __HAL_RCC_PWR_CLK_DISABLE();
    }
  }

  /*----------------------------- HSI14 Configuration --------------------------*/
  if(((RCC_OscInitStruct->OscillatorType) & RCC_OSCILLATORTYPE_HSI14) == RCC_OSCILLATORTYPE_HSI14)
 8002dc2:	06db      	lsls	r3, r3, #27
 8002dc4:	d512      	bpl.n	8002dec <HAL_RCC_OscConfig+0x198>
    /* Check the parameters */
    assert_param(IS_RCC_HSI14(RCC_OscInitStruct->HSI14State));
    assert_param(IS_RCC_CALIBRATION_VALUE(RCC_OscInitStruct->HSI14CalibrationValue));

    /* Check the HSI14 State */
    if(RCC_OscInitStruct->HSI14State == RCC_HSI14_ON)
 8002dc6:	6963      	ldr	r3, [r4, #20]
 8002dc8:	2b01      	cmp	r3, #1
 8002dca:	d100      	bne.n	8002dce <HAL_RCC_OscConfig+0x17a>
 8002dcc:	e13d      	b.n	800304a <HAL_RCC_OscConfig+0x3f6>
      } 

      /* Adjusts the Internal High Speed oscillator 14Mhz (HSI14) calibration value. */
      __HAL_RCC_HSI14_CALIBRATIONVALUE_ADJUST(RCC_OscInitStruct->HSI14CalibrationValue);
    }
    else if(RCC_OscInitStruct->HSI14State == RCC_HSI14_ADC_CONTROL)
 8002dce:	3305      	adds	r3, #5
 8002dd0:	d000      	beq.n	8002dd4 <HAL_RCC_OscConfig+0x180>
 8002dd2:	e0e9      	b.n	8002fa8 <HAL_RCC_OscConfig+0x354>
    {
      /* Enable ADC control of the Internal High Speed oscillator HSI14 */
      __HAL_RCC_HSI14ADC_ENABLE();
 8002dd4:	2104      	movs	r1, #4

      /* Adjusts the Internal High Speed oscillator 14Mhz (HSI14) calibration value. */
      __HAL_RCC_HSI14_CALIBRATIONVALUE_ADJUST(RCC_OscInitStruct->HSI14CalibrationValue);
 8002dd6:	20f8      	movs	r0, #248	; 0xf8
      __HAL_RCC_HSI14ADC_ENABLE();
 8002dd8:	4a68      	ldr	r2, [pc, #416]	; (8002f7c <HAL_RCC_OscConfig+0x328>)
 8002dda:	6b53      	ldr	r3, [r2, #52]	; 0x34
 8002ddc:	438b      	bics	r3, r1
 8002dde:	6353      	str	r3, [r2, #52]	; 0x34
      __HAL_RCC_HSI14_CALIBRATIONVALUE_ADJUST(RCC_OscInitStruct->HSI14CalibrationValue);
 8002de0:	6b51      	ldr	r1, [r2, #52]	; 0x34
 8002de2:	69a3      	ldr	r3, [r4, #24]
 8002de4:	4381      	bics	r1, r0
 8002de6:	00db      	lsls	r3, r3, #3
 8002de8:	430b      	orrs	r3, r1
 8002dea:	6353      	str	r3, [r2, #52]	; 0x34
#endif /* RCC_HSI48_SUPPORT */
       
  /*-------------------------------- PLL Configuration -----------------------*/
  /* Check the parameters */
  assert_param(IS_RCC_PLL(RCC_OscInitStruct->PLL.PLLState));
  if ((RCC_OscInitStruct->PLL.PLLState) != RCC_PLL_NONE)
 8002dec:	6a23      	ldr	r3, [r4, #32]
 8002dee:	2b00      	cmp	r3, #0
 8002df0:	d01b      	beq.n	8002e2a <HAL_RCC_OscConfig+0x1d6>
  {
    /* Check if the PLL is used as system clock or not */
    if(__HAL_RCC_GET_SYSCLK_SOURCE() != RCC_SYSCLKSOURCE_STATUS_PLLCLK)
 8002df2:	220c      	movs	r2, #12
 8002df4:	4d61      	ldr	r5, [pc, #388]	; (8002f7c <HAL_RCC_OscConfig+0x328>)
 8002df6:	6869      	ldr	r1, [r5, #4]
 8002df8:	400a      	ands	r2, r1
 8002dfa:	2a08      	cmp	r2, #8
 8002dfc:	d100      	bne.n	8002e00 <HAL_RCC_OscConfig+0x1ac>
 8002dfe:	e108      	b.n	8003012 <HAL_RCC_OscConfig+0x3be>
    { 
      if((RCC_OscInitStruct->PLL.PLLState) == RCC_PLL_ON)
 8002e00:	2b02      	cmp	r3, #2
 8002e02:	d100      	bne.n	8002e06 <HAL_RCC_OscConfig+0x1b2>
 8002e04:	e13f      	b.n	8003086 <HAL_RCC_OscConfig+0x432>
        }
      }
      else
      {
        /* Disable the main PLL. */
        __HAL_RCC_PLL_DISABLE();
 8002e06:	682b      	ldr	r3, [r5, #0]
 8002e08:	4a60      	ldr	r2, [pc, #384]	; (8002f8c <HAL_RCC_OscConfig+0x338>)
 
        /* Get Start Tick */
        tickstart = HAL_GetTick();
        
        /* Wait till PLL is disabled */  
        while(__HAL_RCC_GET_FLAG(RCC_FLAG_PLLRDY)  != RESET)
 8002e0a:	2680      	movs	r6, #128	; 0x80
        __HAL_RCC_PLL_DISABLE();
 8002e0c:	4013      	ands	r3, r2
 8002e0e:	602b      	str	r3, [r5, #0]
        tickstart = HAL_GetTick();
 8002e10:	f7ff fc48 	bl	80026a4 <HAL_GetTick>
        while(__HAL_RCC_GET_FLAG(RCC_FLAG_PLLRDY)  != RESET)
 8002e14:	04b6      	lsls	r6, r6, #18
        tickstart = HAL_GetTick();
 8002e16:	0004      	movs	r4, r0
        while(__HAL_RCC_GET_FLAG(RCC_FLAG_PLLRDY)  != RESET)
 8002e18:	e004      	b.n	8002e24 <HAL_RCC_OscConfig+0x1d0>
        {
          if((HAL_GetTick() - tickstart ) > PLL_TIMEOUT_VALUE)
 8002e1a:	f7ff fc43 	bl	80026a4 <HAL_GetTick>
 8002e1e:	1b00      	subs	r0, r0, r4
 8002e20:	2802      	cmp	r0, #2
 8002e22:	d852      	bhi.n	8002eca <HAL_RCC_OscConfig+0x276>
        while(__HAL_RCC_GET_FLAG(RCC_FLAG_PLLRDY)  != RESET)
 8002e24:	682b      	ldr	r3, [r5, #0]
 8002e26:	4233      	tst	r3, r6
 8002e28:	d1f7      	bne.n	8002e1a <HAL_RCC_OscConfig+0x1c6>
        }
      }
    }
  }

  return HAL_OK;
 8002e2a:	2000      	movs	r0, #0
 8002e2c:	e00b      	b.n	8002e46 <HAL_RCC_OscConfig+0x1f2>
       || ((__HAL_RCC_GET_SYSCLK_SOURCE() == RCC_SYSCLKSOURCE_STATUS_PLLCLK) && (__HAL_RCC_GET_PLL_OSCSOURCE() == RCC_PLLSOURCE_HSI)))
 8002e2e:	684a      	ldr	r2, [r1, #4]
 8002e30:	03d2      	lsls	r2, r2, #15
 8002e32:	d500      	bpl.n	8002e36 <HAL_RCC_OscConfig+0x1e2>
 8002e34:	e75d      	b.n	8002cf2 <HAL_RCC_OscConfig+0x9e>
      if((__HAL_RCC_GET_FLAG(RCC_FLAG_HSIRDY) != RESET) && (RCC_OscInitStruct->HSIState != RCC_HSI_ON))
 8002e36:	4a51      	ldr	r2, [pc, #324]	; (8002f7c <HAL_RCC_OscConfig+0x328>)
 8002e38:	6812      	ldr	r2, [r2, #0]
 8002e3a:	0792      	lsls	r2, r2, #30
 8002e3c:	d539      	bpl.n	8002eb2 <HAL_RCC_OscConfig+0x25e>
 8002e3e:	68e2      	ldr	r2, [r4, #12]
 8002e40:	2a01      	cmp	r2, #1
 8002e42:	d036      	beq.n	8002eb2 <HAL_RCC_OscConfig+0x25e>
        return HAL_ERROR;
 8002e44:	2001      	movs	r0, #1
}
 8002e46:	b003      	add	sp, #12
 8002e48:	bcc0      	pop	{r6, r7}
 8002e4a:	46b9      	mov	r9, r7
 8002e4c:	46b0      	mov	r8, r6
 8002e4e:	bdf0      	pop	{r4, r5, r6, r7, pc}
      __HAL_RCC_LSI_DISABLE();
 8002e50:	2201      	movs	r2, #1
 8002e52:	6a6b      	ldr	r3, [r5, #36]	; 0x24
      while(__HAL_RCC_GET_FLAG(RCC_FLAG_LSIRDY) != RESET)
 8002e54:	2702      	movs	r7, #2
      __HAL_RCC_LSI_DISABLE();
 8002e56:	4393      	bics	r3, r2
 8002e58:	626b      	str	r3, [r5, #36]	; 0x24
      tickstart = HAL_GetTick();
 8002e5a:	f7ff fc23 	bl	80026a4 <HAL_GetTick>
 8002e5e:	0006      	movs	r6, r0
      while(__HAL_RCC_GET_FLAG(RCC_FLAG_LSIRDY) != RESET)
 8002e60:	e004      	b.n	8002e6c <HAL_RCC_OscConfig+0x218>
        if((HAL_GetTick() - tickstart ) > LSI_TIMEOUT_VALUE)
 8002e62:	f7ff fc1f 	bl	80026a4 <HAL_GetTick>
 8002e66:	1b80      	subs	r0, r0, r6
 8002e68:	2802      	cmp	r0, #2
 8002e6a:	d82e      	bhi.n	8002eca <HAL_RCC_OscConfig+0x276>
      while(__HAL_RCC_GET_FLAG(RCC_FLAG_LSIRDY) != RESET)
 8002e6c:	6a6b      	ldr	r3, [r5, #36]	; 0x24
 8002e6e:	421f      	tst	r7, r3
 8002e70:	d1f7      	bne.n	8002e62 <HAL_RCC_OscConfig+0x20e>
  if(((RCC_OscInitStruct->OscillatorType) & RCC_OSCILLATORTYPE_LSE) == RCC_OSCILLATORTYPE_LSE)
 8002e72:	6823      	ldr	r3, [r4, #0]
 8002e74:	e7a3      	b.n	8002dbe <HAL_RCC_OscConfig+0x16a>
       || ((__HAL_RCC_GET_SYSCLK_SOURCE() == RCC_SYSCLKSOURCE_STATUS_PLLCLK) && (__HAL_RCC_GET_PLL_OSCSOURCE() == RCC_PLLSOURCE_HSE)))
 8002e76:	6842      	ldr	r2, [r0, #4]
 8002e78:	03d2      	lsls	r2, r2, #15
 8002e7a:	d400      	bmi.n	8002e7e <HAL_RCC_OscConfig+0x22a>
 8002e7c:	e702      	b.n	8002c84 <HAL_RCC_OscConfig+0x30>
      if((__HAL_RCC_GET_FLAG(RCC_FLAG_HSERDY) != RESET) && (RCC_OscInitStruct->HSEState == RCC_HSE_OFF))
 8002e7e:	4a3f      	ldr	r2, [pc, #252]	; (8002f7c <HAL_RCC_OscConfig+0x328>)
 8002e80:	6812      	ldr	r2, [r2, #0]
 8002e82:	0392      	lsls	r2, r2, #14
 8002e84:	d400      	bmi.n	8002e88 <HAL_RCC_OscConfig+0x234>
 8002e86:	e727      	b.n	8002cd8 <HAL_RCC_OscConfig+0x84>
 8002e88:	6862      	ldr	r2, [r4, #4]
 8002e8a:	2a00      	cmp	r2, #0
 8002e8c:	d000      	beq.n	8002e90 <HAL_RCC_OscConfig+0x23c>
 8002e8e:	e723      	b.n	8002cd8 <HAL_RCC_OscConfig+0x84>
 8002e90:	e7d8      	b.n	8002e44 <HAL_RCC_OscConfig+0x1f0>
      SET_BIT(PWR->CR, PWR_CR_DBP);
 8002e92:	6833      	ldr	r3, [r6, #0]
 8002e94:	433b      	orrs	r3, r7
 8002e96:	6033      	str	r3, [r6, #0]
      tickstart = HAL_GetTick();
 8002e98:	f7ff fc04 	bl	80026a4 <HAL_GetTick>
 8002e9c:	0005      	movs	r5, r0
      while(HAL_IS_BIT_CLR(PWR->CR, PWR_CR_DBP))
 8002e9e:	e004      	b.n	8002eaa <HAL_RCC_OscConfig+0x256>
        if((HAL_GetTick() - tickstart) > RCC_DBP_TIMEOUT_VALUE)
 8002ea0:	f7ff fc00 	bl	80026a4 <HAL_GetTick>
 8002ea4:	1b40      	subs	r0, r0, r5
 8002ea6:	2864      	cmp	r0, #100	; 0x64
 8002ea8:	d80f      	bhi.n	8002eca <HAL_RCC_OscConfig+0x276>
      while(HAL_IS_BIT_CLR(PWR->CR, PWR_CR_DBP))
 8002eaa:	6833      	ldr	r3, [r6, #0]
 8002eac:	423b      	tst	r3, r7
 8002eae:	d0f7      	beq.n	8002ea0 <HAL_RCC_OscConfig+0x24c>
 8002eb0:	e75a      	b.n	8002d68 <HAL_RCC_OscConfig+0x114>
        __HAL_RCC_HSI_CALIBRATIONVALUE_ADJUST(RCC_OscInitStruct->HSICalibrationValue);
 8002eb2:	25f8      	movs	r5, #248	; 0xf8
 8002eb4:	4831      	ldr	r0, [pc, #196]	; (8002f7c <HAL_RCC_OscConfig+0x328>)
 8002eb6:	6922      	ldr	r2, [r4, #16]
 8002eb8:	6801      	ldr	r1, [r0, #0]
 8002eba:	00d2      	lsls	r2, r2, #3
 8002ebc:	43a9      	bics	r1, r5
 8002ebe:	430a      	orrs	r2, r1
 8002ec0:	6002      	str	r2, [r0, #0]
  if(((RCC_OscInitStruct->OscillatorType) & RCC_OSCILLATORTYPE_LSI) == RCC_OSCILLATORTYPE_LSI)
 8002ec2:	071a      	lsls	r2, r3, #28
 8002ec4:	d400      	bmi.n	8002ec8 <HAL_RCC_OscConfig+0x274>
 8002ec6:	e735      	b.n	8002d34 <HAL_RCC_OscConfig+0xe0>
 8002ec8:	e762      	b.n	8002d90 <HAL_RCC_OscConfig+0x13c>
            return HAL_TIMEOUT;
 8002eca:	2003      	movs	r0, #3
 8002ecc:	e7bb      	b.n	8002e46 <HAL_RCC_OscConfig+0x1f2>
      __HAL_RCC_HSE_CONFIG(RCC_OscInitStruct->HSEState);
 8002ece:	4d2b      	ldr	r5, [pc, #172]	; (8002f7c <HAL_RCC_OscConfig+0x328>)
 8002ed0:	4a2b      	ldr	r2, [pc, #172]	; (8002f80 <HAL_RCC_OscConfig+0x32c>)
 8002ed2:	682b      	ldr	r3, [r5, #0]
        while(__HAL_RCC_GET_FLAG(RCC_FLAG_HSERDY) != RESET)
 8002ed4:	2780      	movs	r7, #128	; 0x80
      __HAL_RCC_HSE_CONFIG(RCC_OscInitStruct->HSEState);
 8002ed6:	4013      	ands	r3, r2
 8002ed8:	602b      	str	r3, [r5, #0]
 8002eda:	682b      	ldr	r3, [r5, #0]
 8002edc:	4a29      	ldr	r2, [pc, #164]	; (8002f84 <HAL_RCC_OscConfig+0x330>)
        while(__HAL_RCC_GET_FLAG(RCC_FLAG_HSERDY) != RESET)
 8002ede:	02bf      	lsls	r7, r7, #10
      __HAL_RCC_HSE_CONFIG(RCC_OscInitStruct->HSEState);
 8002ee0:	4013      	ands	r3, r2
 8002ee2:	602b      	str	r3, [r5, #0]
        tickstart = HAL_GetTick();
 8002ee4:	f7ff fbde 	bl	80026a4 <HAL_GetTick>
 8002ee8:	0006      	movs	r6, r0
        while(__HAL_RCC_GET_FLAG(RCC_FLAG_HSERDY) != RESET)
 8002eea:	e004      	b.n	8002ef6 <HAL_RCC_OscConfig+0x2a2>
           if((HAL_GetTick() - tickstart ) > HSE_TIMEOUT_VALUE)
 8002eec:	f7ff fbda 	bl	80026a4 <HAL_GetTick>
 8002ef0:	1b80      	subs	r0, r0, r6
 8002ef2:	2864      	cmp	r0, #100	; 0x64
 8002ef4:	d8e9      	bhi.n	8002eca <HAL_RCC_OscConfig+0x276>
        while(__HAL_RCC_GET_FLAG(RCC_FLAG_HSERDY) != RESET)
 8002ef6:	682b      	ldr	r3, [r5, #0]
 8002ef8:	423b      	tst	r3, r7
 8002efa:	d1f7      	bne.n	8002eec <HAL_RCC_OscConfig+0x298>
  if(((RCC_OscInitStruct->OscillatorType) & RCC_OSCILLATORTYPE_HSI) == RCC_OSCILLATORTYPE_HSI)
 8002efc:	6823      	ldr	r3, [r4, #0]
 8002efe:	e6eb      	b.n	8002cd8 <HAL_RCC_OscConfig+0x84>
    __HAL_RCC_LSE_CONFIG(RCC_OscInitStruct->LSEState);
 8002f00:	2201      	movs	r2, #1
 8002f02:	4e1e      	ldr	r6, [pc, #120]	; (8002f7c <HAL_RCC_OscConfig+0x328>)
        if((HAL_GetTick() - tickstart ) > RCC_LSE_TIMEOUT_VALUE)
 8002f04:	4d22      	ldr	r5, [pc, #136]	; (8002f90 <HAL_RCC_OscConfig+0x33c>)
    __HAL_RCC_LSE_CONFIG(RCC_OscInitStruct->LSEState);
 8002f06:	6a33      	ldr	r3, [r6, #32]
 8002f08:	4393      	bics	r3, r2
 8002f0a:	6233      	str	r3, [r6, #32]
 8002f0c:	6a33      	ldr	r3, [r6, #32]
 8002f0e:	3203      	adds	r2, #3
 8002f10:	4393      	bics	r3, r2
 8002f12:	6233      	str	r3, [r6, #32]
      tickstart = HAL_GetTick();
 8002f14:	f7ff fbc6 	bl	80026a4 <HAL_GetTick>
      while(__HAL_RCC_GET_FLAG(RCC_FLAG_LSERDY) != RESET)
 8002f18:	2302      	movs	r3, #2
      tickstart = HAL_GetTick();
 8002f1a:	0007      	movs	r7, r0
      while(__HAL_RCC_GET_FLAG(RCC_FLAG_LSERDY) != RESET)
 8002f1c:	4698      	mov	r8, r3
 8002f1e:	e004      	b.n	8002f2a <HAL_RCC_OscConfig+0x2d6>
        if((HAL_GetTick() - tickstart ) > RCC_LSE_TIMEOUT_VALUE)
 8002f20:	f7ff fbc0 	bl	80026a4 <HAL_GetTick>
 8002f24:	1bc0      	subs	r0, r0, r7
 8002f26:	42a8      	cmp	r0, r5
 8002f28:	d8cf      	bhi.n	8002eca <HAL_RCC_OscConfig+0x276>
      while(__HAL_RCC_GET_FLAG(RCC_FLAG_LSERDY) != RESET)
 8002f2a:	4642      	mov	r2, r8
 8002f2c:	6a33      	ldr	r3, [r6, #32]
 8002f2e:	421a      	tst	r2, r3
 8002f30:	d1f6      	bne.n	8002f20 <HAL_RCC_OscConfig+0x2cc>
    if(pwrclkchanged == SET)
 8002f32:	464b      	mov	r3, r9
 8002f34:	2b01      	cmp	r3, #1
 8002f36:	d04f      	beq.n	8002fd8 <HAL_RCC_OscConfig+0x384>
  if(((RCC_OscInitStruct->OscillatorType) & RCC_OSCILLATORTYPE_HSI14) == RCC_OSCILLATORTYPE_HSI14)
 8002f38:	6823      	ldr	r3, [r4, #0]
 8002f3a:	e742      	b.n	8002dc2 <HAL_RCC_OscConfig+0x16e>
        __HAL_RCC_HSI_DISABLE();
 8002f3c:	2201      	movs	r2, #1
 8002f3e:	682b      	ldr	r3, [r5, #0]
        while(__HAL_RCC_GET_FLAG(RCC_FLAG_HSIRDY) != RESET)
 8002f40:	2702      	movs	r7, #2
        __HAL_RCC_HSI_DISABLE();
 8002f42:	4393      	bics	r3, r2
 8002f44:	602b      	str	r3, [r5, #0]
        tickstart = HAL_GetTick();
 8002f46:	f7ff fbad 	bl	80026a4 <HAL_GetTick>
 8002f4a:	0006      	movs	r6, r0
        while(__HAL_RCC_GET_FLAG(RCC_FLAG_HSIRDY) != RESET)
 8002f4c:	e004      	b.n	8002f58 <HAL_RCC_OscConfig+0x304>
          if((HAL_GetTick() - tickstart ) > HSI_TIMEOUT_VALUE)
 8002f4e:	f7ff fba9 	bl	80026a4 <HAL_GetTick>
 8002f52:	1b80      	subs	r0, r0, r6
 8002f54:	2802      	cmp	r0, #2
 8002f56:	d8b8      	bhi.n	8002eca <HAL_RCC_OscConfig+0x276>
        while(__HAL_RCC_GET_FLAG(RCC_FLAG_HSIRDY) != RESET)
 8002f58:	682b      	ldr	r3, [r5, #0]
 8002f5a:	421f      	tst	r7, r3
 8002f5c:	d1f7      	bne.n	8002f4e <HAL_RCC_OscConfig+0x2fa>
  if(((RCC_OscInitStruct->OscillatorType) & RCC_OSCILLATORTYPE_LSI) == RCC_OSCILLATORTYPE_LSI)
 8002f5e:	6823      	ldr	r3, [r4, #0]
 8002f60:	e6e6      	b.n	8002d30 <HAL_RCC_OscConfig+0xdc>
    __HAL_RCC_LSE_CONFIG(RCC_OscInitStruct->LSEState);
 8002f62:	4906      	ldr	r1, [pc, #24]	; (8002f7c <HAL_RCC_OscConfig+0x328>)
 8002f64:	6a0a      	ldr	r2, [r1, #32]
 8002f66:	4313      	orrs	r3, r2
 8002f68:	620b      	str	r3, [r1, #32]
      tickstart = HAL_GetTick();
 8002f6a:	f7ff fb9b 	bl	80026a4 <HAL_GetTick>
      while(__HAL_RCC_GET_FLAG(RCC_FLAG_LSERDY) == RESET)
 8002f6e:	4b03      	ldr	r3, [pc, #12]	; (8002f7c <HAL_RCC_OscConfig+0x328>)
      tickstart = HAL_GetTick();
 8002f70:	0006      	movs	r6, r0
      while(__HAL_RCC_GET_FLAG(RCC_FLAG_LSERDY) == RESET)
 8002f72:	4698      	mov	r8, r3
 8002f74:	2702      	movs	r7, #2
        if((HAL_GetTick() - tickstart ) > RCC_LSE_TIMEOUT_VALUE)
 8002f76:	4d06      	ldr	r5, [pc, #24]	; (8002f90 <HAL_RCC_OscConfig+0x33c>)
      while(__HAL_RCC_GET_FLAG(RCC_FLAG_LSERDY) == RESET)
 8002f78:	e011      	b.n	8002f9e <HAL_RCC_OscConfig+0x34a>
 8002f7a:	46c0      	nop			; (mov r8, r8)
 8002f7c:	40021000 	.word	0x40021000
 8002f80:	fffeffff 	.word	0xfffeffff
 8002f84:	fffbffff 	.word	0xfffbffff
 8002f88:	40007000 	.word	0x40007000
 8002f8c:	feffffff 	.word	0xfeffffff
 8002f90:	00001388 	.word	0x00001388
        if((HAL_GetTick() - tickstart ) > RCC_LSE_TIMEOUT_VALUE)
 8002f94:	f7ff fb86 	bl	80026a4 <HAL_GetTick>
 8002f98:	1b80      	subs	r0, r0, r6
 8002f9a:	42a8      	cmp	r0, r5
 8002f9c:	d895      	bhi.n	8002eca <HAL_RCC_OscConfig+0x276>
      while(__HAL_RCC_GET_FLAG(RCC_FLAG_LSERDY) == RESET)
 8002f9e:	4643      	mov	r3, r8
 8002fa0:	6a1b      	ldr	r3, [r3, #32]
 8002fa2:	421f      	tst	r7, r3
 8002fa4:	d0f6      	beq.n	8002f94 <HAL_RCC_OscConfig+0x340>
 8002fa6:	e7c4      	b.n	8002f32 <HAL_RCC_OscConfig+0x2de>
      __HAL_RCC_HSI14ADC_DISABLE();
 8002fa8:	2204      	movs	r2, #4
 8002faa:	4d53      	ldr	r5, [pc, #332]	; (80030f8 <HAL_RCC_OscConfig+0x4a4>)
      while(__HAL_RCC_GET_FLAG(RCC_FLAG_HSI14RDY) != RESET)
 8002fac:	2702      	movs	r7, #2
      __HAL_RCC_HSI14ADC_DISABLE();
 8002fae:	6b6b      	ldr	r3, [r5, #52]	; 0x34
 8002fb0:	4313      	orrs	r3, r2
 8002fb2:	636b      	str	r3, [r5, #52]	; 0x34
      __HAL_RCC_HSI14_DISABLE();
 8002fb4:	6b6b      	ldr	r3, [r5, #52]	; 0x34
 8002fb6:	3a03      	subs	r2, #3
 8002fb8:	4393      	bics	r3, r2
 8002fba:	636b      	str	r3, [r5, #52]	; 0x34
      tickstart = HAL_GetTick();
 8002fbc:	f7ff fb72 	bl	80026a4 <HAL_GetTick>
 8002fc0:	0006      	movs	r6, r0
      while(__HAL_RCC_GET_FLAG(RCC_FLAG_HSI14RDY) != RESET)
 8002fc2:	e005      	b.n	8002fd0 <HAL_RCC_OscConfig+0x37c>
        if((HAL_GetTick() - tickstart) > HSI14_TIMEOUT_VALUE)
 8002fc4:	f7ff fb6e 	bl	80026a4 <HAL_GetTick>
 8002fc8:	1b80      	subs	r0, r0, r6
 8002fca:	2802      	cmp	r0, #2
 8002fcc:	d900      	bls.n	8002fd0 <HAL_RCC_OscConfig+0x37c>
 8002fce:	e77c      	b.n	8002eca <HAL_RCC_OscConfig+0x276>
      while(__HAL_RCC_GET_FLAG(RCC_FLAG_HSI14RDY) != RESET)
 8002fd0:	6b6b      	ldr	r3, [r5, #52]	; 0x34
 8002fd2:	421f      	tst	r7, r3
 8002fd4:	d1f6      	bne.n	8002fc4 <HAL_RCC_OscConfig+0x370>
 8002fd6:	e709      	b.n	8002dec <HAL_RCC_OscConfig+0x198>
      __HAL_RCC_PWR_CLK_DISABLE();
 8002fd8:	4a47      	ldr	r2, [pc, #284]	; (80030f8 <HAL_RCC_OscConfig+0x4a4>)
 8002fda:	4948      	ldr	r1, [pc, #288]	; (80030fc <HAL_RCC_OscConfig+0x4a8>)
 8002fdc:	69d3      	ldr	r3, [r2, #28]
 8002fde:	400b      	ands	r3, r1
 8002fe0:	61d3      	str	r3, [r2, #28]
  if(((RCC_OscInitStruct->OscillatorType) & RCC_OSCILLATORTYPE_HSI14) == RCC_OSCILLATORTYPE_HSI14)
 8002fe2:	6823      	ldr	r3, [r4, #0]
 8002fe4:	e6ed      	b.n	8002dc2 <HAL_RCC_OscConfig+0x16e>
      __HAL_RCC_HSE_CONFIG(RCC_OscInitStruct->HSEState);
 8002fe6:	2280      	movs	r2, #128	; 0x80
 8002fe8:	4b43      	ldr	r3, [pc, #268]	; (80030f8 <HAL_RCC_OscConfig+0x4a4>)
 8002fea:	02d2      	lsls	r2, r2, #11
 8002fec:	6819      	ldr	r1, [r3, #0]
 8002fee:	430a      	orrs	r2, r1
 8002ff0:	601a      	str	r2, [r3, #0]
 8002ff2:	2280      	movs	r2, #128	; 0x80
 8002ff4:	6819      	ldr	r1, [r3, #0]
 8002ff6:	0252      	lsls	r2, r2, #9
 8002ff8:	430a      	orrs	r2, r1
 8002ffa:	601a      	str	r2, [r3, #0]
 8002ffc:	e65b      	b.n	8002cb6 <HAL_RCC_OscConfig+0x62>
    __HAL_RCC_LSE_CONFIG(RCC_OscInitStruct->LSEState);
 8002ffe:	2104      	movs	r1, #4
 8003000:	4b3d      	ldr	r3, [pc, #244]	; (80030f8 <HAL_RCC_OscConfig+0x4a4>)
 8003002:	6a1a      	ldr	r2, [r3, #32]
 8003004:	430a      	orrs	r2, r1
 8003006:	621a      	str	r2, [r3, #32]
 8003008:	6a1a      	ldr	r2, [r3, #32]
 800300a:	3903      	subs	r1, #3
 800300c:	430a      	orrs	r2, r1
 800300e:	621a      	str	r2, [r3, #32]
 8003010:	e7ab      	b.n	8002f6a <HAL_RCC_OscConfig+0x316>
      if((RCC_OscInitStruct->PLL.PLLState) == RCC_PLL_OFF)
 8003012:	2b01      	cmp	r3, #1
 8003014:	d100      	bne.n	8003018 <HAL_RCC_OscConfig+0x3c4>
 8003016:	e715      	b.n	8002e44 <HAL_RCC_OscConfig+0x1f0>
        if((READ_BIT(pll_config,  RCC_CFGR_PLLSRC)  != RCC_OscInitStruct->PLL.PLLSource) ||
 8003018:	2380      	movs	r3, #128	; 0x80
        pll_config  = RCC->CFGR;
 800301a:	686a      	ldr	r2, [r5, #4]
        if((READ_BIT(pll_config,  RCC_CFGR_PLLSRC)  != RCC_OscInitStruct->PLL.PLLSource) ||
 800301c:	6a61      	ldr	r1, [r4, #36]	; 0x24
 800301e:	025b      	lsls	r3, r3, #9
        return HAL_ERROR;
 8003020:	2001      	movs	r0, #1
        pll_config2 = RCC->CFGR2;
 8003022:	6aed      	ldr	r5, [r5, #44]	; 0x2c
        if((READ_BIT(pll_config,  RCC_CFGR_PLLSRC)  != RCC_OscInitStruct->PLL.PLLSource) ||
 8003024:	4013      	ands	r3, r2
 8003026:	428b      	cmp	r3, r1
 8003028:	d000      	beq.n	800302c <HAL_RCC_OscConfig+0x3d8>
 800302a:	e70c      	b.n	8002e46 <HAL_RCC_OscConfig+0x1f2>
           (READ_BIT(pll_config2, RCC_CFGR2_PREDIV) != RCC_OscInitStruct->PLL.PREDIV)    ||
 800302c:	230f      	movs	r3, #15
        if((READ_BIT(pll_config,  RCC_CFGR_PLLSRC)  != RCC_OscInitStruct->PLL.PLLSource) ||
 800302e:	6ae1      	ldr	r1, [r4, #44]	; 0x2c
           (READ_BIT(pll_config2, RCC_CFGR2_PREDIV) != RCC_OscInitStruct->PLL.PREDIV)    ||
 8003030:	402b      	ands	r3, r5
        if((READ_BIT(pll_config,  RCC_CFGR_PLLSRC)  != RCC_OscInitStruct->PLL.PLLSource) ||
 8003032:	428b      	cmp	r3, r1
 8003034:	d000      	beq.n	8003038 <HAL_RCC_OscConfig+0x3e4>
 8003036:	e706      	b.n	8002e46 <HAL_RCC_OscConfig+0x1f2>
           (READ_BIT(pll_config,  RCC_CFGR_PLLMUL)  != RCC_OscInitStruct->PLL.PLLMUL))
 8003038:	23f0      	movs	r3, #240	; 0xf0
 800303a:	039b      	lsls	r3, r3, #14
 800303c:	401a      	ands	r2, r3
           (READ_BIT(pll_config2, RCC_CFGR2_PREDIV) != RCC_OscInitStruct->PLL.PREDIV)    ||
 800303e:	6aa3      	ldr	r3, [r4, #40]	; 0x28
 8003040:	1ad2      	subs	r2, r2, r3
 8003042:	1e53      	subs	r3, r2, #1
 8003044:	419a      	sbcs	r2, r3
    return HAL_ERROR;
 8003046:	b2d0      	uxtb	r0, r2
 8003048:	e6fd      	b.n	8002e46 <HAL_RCC_OscConfig+0x1f2>
      __HAL_RCC_HSI14ADC_DISABLE();
 800304a:	2104      	movs	r1, #4
 800304c:	4d2a      	ldr	r5, [pc, #168]	; (80030f8 <HAL_RCC_OscConfig+0x4a4>)
      while(__HAL_RCC_GET_FLAG(RCC_FLAG_HSI14RDY) == RESET)
 800304e:	2702      	movs	r7, #2
      __HAL_RCC_HSI14ADC_DISABLE();
 8003050:	6b6a      	ldr	r2, [r5, #52]	; 0x34
 8003052:	430a      	orrs	r2, r1
 8003054:	636a      	str	r2, [r5, #52]	; 0x34
      __HAL_RCC_HSI14_ENABLE();
 8003056:	6b6a      	ldr	r2, [r5, #52]	; 0x34
 8003058:	4313      	orrs	r3, r2
 800305a:	636b      	str	r3, [r5, #52]	; 0x34
      tickstart = HAL_GetTick();
 800305c:	f7ff fb22 	bl	80026a4 <HAL_GetTick>
 8003060:	0006      	movs	r6, r0
      while(__HAL_RCC_GET_FLAG(RCC_FLAG_HSI14RDY) == RESET)
 8003062:	e005      	b.n	8003070 <HAL_RCC_OscConfig+0x41c>
        if((HAL_GetTick() - tickstart) > HSI14_TIMEOUT_VALUE)
 8003064:	f7ff fb1e 	bl	80026a4 <HAL_GetTick>
 8003068:	1b80      	subs	r0, r0, r6
 800306a:	2802      	cmp	r0, #2
 800306c:	d900      	bls.n	8003070 <HAL_RCC_OscConfig+0x41c>
 800306e:	e72c      	b.n	8002eca <HAL_RCC_OscConfig+0x276>
      while(__HAL_RCC_GET_FLAG(RCC_FLAG_HSI14RDY) == RESET)
 8003070:	6b6b      	ldr	r3, [r5, #52]	; 0x34
 8003072:	421f      	tst	r7, r3
 8003074:	d0f6      	beq.n	8003064 <HAL_RCC_OscConfig+0x410>
      __HAL_RCC_HSI14_CALIBRATIONVALUE_ADJUST(RCC_OscInitStruct->HSI14CalibrationValue);
 8003076:	21f8      	movs	r1, #248	; 0xf8
 8003078:	6b6a      	ldr	r2, [r5, #52]	; 0x34
 800307a:	69a3      	ldr	r3, [r4, #24]
 800307c:	438a      	bics	r2, r1
 800307e:	00db      	lsls	r3, r3, #3
 8003080:	4313      	orrs	r3, r2
 8003082:	636b      	str	r3, [r5, #52]	; 0x34
 8003084:	e6b2      	b.n	8002dec <HAL_RCC_OscConfig+0x198>
        __HAL_RCC_PLL_DISABLE();
 8003086:	682b      	ldr	r3, [r5, #0]
 8003088:	4a1d      	ldr	r2, [pc, #116]	; (8003100 <HAL_RCC_OscConfig+0x4ac>)
        while(__HAL_RCC_GET_FLAG(RCC_FLAG_PLLRDY)  != RESET)
 800308a:	2780      	movs	r7, #128	; 0x80
        __HAL_RCC_PLL_DISABLE();
 800308c:	4013      	ands	r3, r2
 800308e:	602b      	str	r3, [r5, #0]
        tickstart = HAL_GetTick();
 8003090:	f7ff fb08 	bl	80026a4 <HAL_GetTick>
        while(__HAL_RCC_GET_FLAG(RCC_FLAG_PLLRDY)  != RESET)
 8003094:	04bf      	lsls	r7, r7, #18
        tickstart = HAL_GetTick();
 8003096:	0006      	movs	r6, r0
        while(__HAL_RCC_GET_FLAG(RCC_FLAG_PLLRDY)  != RESET)
 8003098:	e005      	b.n	80030a6 <HAL_RCC_OscConfig+0x452>
          if((HAL_GetTick() - tickstart ) > PLL_TIMEOUT_VALUE)
 800309a:	f7ff fb03 	bl	80026a4 <HAL_GetTick>
 800309e:	1b80      	subs	r0, r0, r6
 80030a0:	2802      	cmp	r0, #2
 80030a2:	d900      	bls.n	80030a6 <HAL_RCC_OscConfig+0x452>
 80030a4:	e711      	b.n	8002eca <HAL_RCC_OscConfig+0x276>
        while(__HAL_RCC_GET_FLAG(RCC_FLAG_PLLRDY)  != RESET)
 80030a6:	682b      	ldr	r3, [r5, #0]
 80030a8:	423b      	tst	r3, r7
 80030aa:	d1f6      	bne.n	800309a <HAL_RCC_OscConfig+0x446>
        __HAL_RCC_PLL_CONFIG(RCC_OscInitStruct->PLL.PLLSource,
 80030ac:	220f      	movs	r2, #15
 80030ae:	6aeb      	ldr	r3, [r5, #44]	; 0x2c
        while(__HAL_RCC_GET_FLAG(RCC_FLAG_PLLRDY)  == RESET)
 80030b0:	4e11      	ldr	r6, [pc, #68]	; (80030f8 <HAL_RCC_OscConfig+0x4a4>)
        __HAL_RCC_PLL_CONFIG(RCC_OscInitStruct->PLL.PLLSource,
 80030b2:	4393      	bics	r3, r2
 80030b4:	6ae2      	ldr	r2, [r4, #44]	; 0x2c
 80030b6:	4313      	orrs	r3, r2
 80030b8:	62eb      	str	r3, [r5, #44]	; 0x2c
 80030ba:	6a61      	ldr	r1, [r4, #36]	; 0x24
 80030bc:	6aa3      	ldr	r3, [r4, #40]	; 0x28
 80030be:	686a      	ldr	r2, [r5, #4]
 80030c0:	430b      	orrs	r3, r1
 80030c2:	4910      	ldr	r1, [pc, #64]	; (8003104 <HAL_RCC_OscConfig+0x4b0>)
 80030c4:	400a      	ands	r2, r1
 80030c6:	4313      	orrs	r3, r2
 80030c8:	606b      	str	r3, [r5, #4]
        __HAL_RCC_PLL_ENABLE();
 80030ca:	2380      	movs	r3, #128	; 0x80
 80030cc:	682a      	ldr	r2, [r5, #0]
 80030ce:	045b      	lsls	r3, r3, #17
 80030d0:	4313      	orrs	r3, r2
 80030d2:	602b      	str	r3, [r5, #0]
        tickstart = HAL_GetTick();
 80030d4:	f7ff fae6 	bl	80026a4 <HAL_GetTick>
        while(__HAL_RCC_GET_FLAG(RCC_FLAG_PLLRDY)  == RESET)
 80030d8:	2580      	movs	r5, #128	; 0x80
        tickstart = HAL_GetTick();
 80030da:	0004      	movs	r4, r0
        while(__HAL_RCC_GET_FLAG(RCC_FLAG_PLLRDY)  == RESET)
 80030dc:	04ad      	lsls	r5, r5, #18
 80030de:	e005      	b.n	80030ec <HAL_RCC_OscConfig+0x498>
          if((HAL_GetTick() - tickstart ) > PLL_TIMEOUT_VALUE)
 80030e0:	f7ff fae0 	bl	80026a4 <HAL_GetTick>
 80030e4:	1b00      	subs	r0, r0, r4
 80030e6:	2802      	cmp	r0, #2
 80030e8:	d900      	bls.n	80030ec <HAL_RCC_OscConfig+0x498>
 80030ea:	e6ee      	b.n	8002eca <HAL_RCC_OscConfig+0x276>
        while(__HAL_RCC_GET_FLAG(RCC_FLAG_PLLRDY)  == RESET)
 80030ec:	6833      	ldr	r3, [r6, #0]
 80030ee:	422b      	tst	r3, r5
 80030f0:	d0f6      	beq.n	80030e0 <HAL_RCC_OscConfig+0x48c>
  return HAL_OK;
 80030f2:	2000      	movs	r0, #0
 80030f4:	e6a7      	b.n	8002e46 <HAL_RCC_OscConfig+0x1f2>
 80030f6:	46c0      	nop			; (mov r8, r8)
 80030f8:	40021000 	.word	0x40021000
 80030fc:	efffffff 	.word	0xefffffff
 8003100:	feffffff 	.word	0xfeffffff
 8003104:	ffc2ffff 	.word	0xffc2ffff

08003108 <HAL_RCC_ClockConfig>:
  *         You can use @ref HAL_RCC_GetClockConfig() function to know which clock is
  *         currently used as system clock source.
  * @retval HAL status
  */
HAL_StatusTypeDef HAL_RCC_ClockConfig(RCC_ClkInitTypeDef  *RCC_ClkInitStruct, uint32_t FLatency)
{
 8003108:	b5f0      	push	{r4, r5, r6, r7, lr}
 800310a:	46ce      	mov	lr, r9
 800310c:	4647      	mov	r7, r8
 800310e:	b580      	push	{r7, lr}
 8003110:	0004      	movs	r4, r0
 8003112:	000d      	movs	r5, r1
 8003114:	b089      	sub	sp, #36	; 0x24
  uint32_t tickstart;

  /* Check Null pointer */
  if(RCC_ClkInitStruct == NULL)
 8003116:	2800      	cmp	r0, #0
 8003118:	d00d      	beq.n	8003136 <HAL_RCC_ClockConfig+0x2e>
  /* To correctly read data from FLASH memory, the number of wait states (LATENCY) 
  must be correctly programmed according to the frequency of the CPU clock 
    (HCLK) of the device. */

  /* Increasing the number of wait states because of higher CPU frequency */
  if(FLatency > __HAL_FLASH_GET_LATENCY())
 800311a:	2301      	movs	r3, #1
 800311c:	4950      	ldr	r1, [pc, #320]	; (8003260 <HAL_RCC_ClockConfig+0x158>)
 800311e:	680a      	ldr	r2, [r1, #0]
 8003120:	401a      	ands	r2, r3
 8003122:	42aa      	cmp	r2, r5
 8003124:	d20d      	bcs.n	8003142 <HAL_RCC_ClockConfig+0x3a>
  {    
    /* Program the new number of wait states to the LATENCY bits in the FLASH_ACR register */
    __HAL_FLASH_SET_LATENCY(FLatency);
 8003126:	680a      	ldr	r2, [r1, #0]
 8003128:	439a      	bics	r2, r3
 800312a:	432a      	orrs	r2, r5
 800312c:	600a      	str	r2, [r1, #0]
    
    /* Check that the new number of wait states is taken into account to access the Flash
    memory by reading the FLASH_ACR register */
    if(__HAL_FLASH_GET_LATENCY() != FLatency)
 800312e:	680a      	ldr	r2, [r1, #0]
 8003130:	4013      	ands	r3, r2
 8003132:	42ab      	cmp	r3, r5
 8003134:	d005      	beq.n	8003142 <HAL_RCC_ClockConfig+0x3a>
    return HAL_ERROR;
 8003136:	2001      	movs	r0, #1

  /* Configure the source of time base considering new system clocks settings*/
  HAL_InitTick (TICK_INT_PRIORITY);
  
  return HAL_OK;
}
 8003138:	b009      	add	sp, #36	; 0x24
 800313a:	bcc0      	pop	{r6, r7}
 800313c:	46b9      	mov	r9, r7
 800313e:	46b0      	mov	r8, r6
 8003140:	bdf0      	pop	{r4, r5, r6, r7, pc}
  if(((RCC_ClkInitStruct->ClockType) & RCC_CLOCKTYPE_HCLK) == RCC_CLOCKTYPE_HCLK)
 8003142:	6823      	ldr	r3, [r4, #0]
 8003144:	079a      	lsls	r2, r3, #30
 8003146:	d50e      	bpl.n	8003166 <HAL_RCC_ClockConfig+0x5e>
    if(((RCC_ClkInitStruct->ClockType) & RCC_CLOCKTYPE_PCLK1) == RCC_CLOCKTYPE_PCLK1)
 8003148:	075a      	lsls	r2, r3, #29
 800314a:	d505      	bpl.n	8003158 <HAL_RCC_ClockConfig+0x50>
      MODIFY_REG(RCC->CFGR, RCC_CFGR_PPRE, RCC_HCLK_DIV16);
 800314c:	22e0      	movs	r2, #224	; 0xe0
 800314e:	4945      	ldr	r1, [pc, #276]	; (8003264 <HAL_RCC_ClockConfig+0x15c>)
 8003150:	00d2      	lsls	r2, r2, #3
 8003152:	6848      	ldr	r0, [r1, #4]
 8003154:	4302      	orrs	r2, r0
 8003156:	604a      	str	r2, [r1, #4]
    MODIFY_REG(RCC->CFGR, RCC_CFGR_HPRE, RCC_ClkInitStruct->AHBCLKDivider);
 8003158:	20f0      	movs	r0, #240	; 0xf0
 800315a:	4942      	ldr	r1, [pc, #264]	; (8003264 <HAL_RCC_ClockConfig+0x15c>)
 800315c:	684a      	ldr	r2, [r1, #4]
 800315e:	4382      	bics	r2, r0
 8003160:	68a0      	ldr	r0, [r4, #8]
 8003162:	4302      	orrs	r2, r0
 8003164:	604a      	str	r2, [r1, #4]
  if(((RCC_ClkInitStruct->ClockType) & RCC_CLOCKTYPE_SYSCLK) == RCC_CLOCKTYPE_SYSCLK)
 8003166:	07db      	lsls	r3, r3, #31
 8003168:	d522      	bpl.n	80031b0 <HAL_RCC_ClockConfig+0xa8>
      if(__HAL_RCC_GET_FLAG(RCC_FLAG_HSERDY) == RESET)
 800316a:	4b3e      	ldr	r3, [pc, #248]	; (8003264 <HAL_RCC_ClockConfig+0x15c>)
    if(RCC_ClkInitStruct->SYSCLKSource == RCC_SYSCLKSOURCE_HSE)
 800316c:	6862      	ldr	r2, [r4, #4]
      if(__HAL_RCC_GET_FLAG(RCC_FLAG_HSERDY) == RESET)
 800316e:	681b      	ldr	r3, [r3, #0]
    if(RCC_ClkInitStruct->SYSCLKSource == RCC_SYSCLKSOURCE_HSE)
 8003170:	2a01      	cmp	r2, #1
 8003172:	d067      	beq.n	8003244 <HAL_RCC_ClockConfig+0x13c>
    else if(RCC_ClkInitStruct->SYSCLKSource == RCC_SYSCLKSOURCE_PLLCLK)
 8003174:	2a02      	cmp	r2, #2
 8003176:	d062      	beq.n	800323e <HAL_RCC_ClockConfig+0x136>
      if(__HAL_RCC_GET_FLAG(RCC_FLAG_HSIRDY) == RESET)
 8003178:	079b      	lsls	r3, r3, #30
 800317a:	d5dc      	bpl.n	8003136 <HAL_RCC_ClockConfig+0x2e>
    __HAL_RCC_SYSCLK_CONFIG(RCC_ClkInitStruct->SYSCLKSource);
 800317c:	2103      	movs	r1, #3
 800317e:	4e39      	ldr	r6, [pc, #228]	; (8003264 <HAL_RCC_ClockConfig+0x15c>)
 8003180:	6873      	ldr	r3, [r6, #4]
 8003182:	438b      	bics	r3, r1
 8003184:	4313      	orrs	r3, r2
 8003186:	6073      	str	r3, [r6, #4]
    tickstart = HAL_GetTick();
 8003188:	f7ff fa8c 	bl	80026a4 <HAL_GetTick>
    while (__HAL_RCC_GET_SYSCLK_SOURCE() != (RCC_ClkInitStruct->SYSCLKSource << RCC_CFGR_SWS_Pos))
 800318c:	230c      	movs	r3, #12
 800318e:	4698      	mov	r8, r3
      if((HAL_GetTick() - tickstart ) > CLOCKSWITCH_TIMEOUT_VALUE)
 8003190:	4b35      	ldr	r3, [pc, #212]	; (8003268 <HAL_RCC_ClockConfig+0x160>)
    tickstart = HAL_GetTick();
 8003192:	0007      	movs	r7, r0
      if((HAL_GetTick() - tickstart ) > CLOCKSWITCH_TIMEOUT_VALUE)
 8003194:	4699      	mov	r9, r3
    while (__HAL_RCC_GET_SYSCLK_SOURCE() != (RCC_ClkInitStruct->SYSCLKSource << RCC_CFGR_SWS_Pos))
 8003196:	e004      	b.n	80031a2 <HAL_RCC_ClockConfig+0x9a>
      if((HAL_GetTick() - tickstart ) > CLOCKSWITCH_TIMEOUT_VALUE)
 8003198:	f7ff fa84 	bl	80026a4 <HAL_GetTick>
 800319c:	1bc0      	subs	r0, r0, r7
 800319e:	4548      	cmp	r0, r9
 80031a0:	d853      	bhi.n	800324a <HAL_RCC_ClockConfig+0x142>
    while (__HAL_RCC_GET_SYSCLK_SOURCE() != (RCC_ClkInitStruct->SYSCLKSource << RCC_CFGR_SWS_Pos))
 80031a2:	4643      	mov	r3, r8
 80031a4:	6872      	ldr	r2, [r6, #4]
 80031a6:	401a      	ands	r2, r3
 80031a8:	6863      	ldr	r3, [r4, #4]
 80031aa:	009b      	lsls	r3, r3, #2
 80031ac:	429a      	cmp	r2, r3
 80031ae:	d1f3      	bne.n	8003198 <HAL_RCC_ClockConfig+0x90>
  if(FLatency < __HAL_FLASH_GET_LATENCY())
 80031b0:	2101      	movs	r1, #1
 80031b2:	4a2b      	ldr	r2, [pc, #172]	; (8003260 <HAL_RCC_ClockConfig+0x158>)
 80031b4:	6813      	ldr	r3, [r2, #0]
 80031b6:	400b      	ands	r3, r1
 80031b8:	42ab      	cmp	r3, r5
 80031ba:	d905      	bls.n	80031c8 <HAL_RCC_ClockConfig+0xc0>
    __HAL_FLASH_SET_LATENCY(FLatency);
 80031bc:	6813      	ldr	r3, [r2, #0]
 80031be:	438b      	bics	r3, r1
 80031c0:	6013      	str	r3, [r2, #0]
    if(__HAL_FLASH_GET_LATENCY() != FLatency)
 80031c2:	6813      	ldr	r3, [r2, #0]
 80031c4:	4219      	tst	r1, r3
 80031c6:	d1b6      	bne.n	8003136 <HAL_RCC_ClockConfig+0x2e>
  if(((RCC_ClkInitStruct->ClockType) & RCC_CLOCKTYPE_PCLK1) == RCC_CLOCKTYPE_PCLK1)
 80031c8:	6823      	ldr	r3, [r4, #0]
 80031ca:	075b      	lsls	r3, r3, #29
 80031cc:	d506      	bpl.n	80031dc <HAL_RCC_ClockConfig+0xd4>
    MODIFY_REG(RCC->CFGR, RCC_CFGR_PPRE, RCC_ClkInitStruct->APB1CLKDivider);
 80031ce:	4a25      	ldr	r2, [pc, #148]	; (8003264 <HAL_RCC_ClockConfig+0x15c>)
 80031d0:	4926      	ldr	r1, [pc, #152]	; (800326c <HAL_RCC_ClockConfig+0x164>)
 80031d2:	6853      	ldr	r3, [r2, #4]
 80031d4:	400b      	ands	r3, r1
 80031d6:	68e1      	ldr	r1, [r4, #12]
 80031d8:	430b      	orrs	r3, r1
 80031da:	6053      	str	r3, [r2, #4]
  *         
  * @retval SYSCLK frequency
  */
uint32_t HAL_RCC_GetSysClockFreq(void)
{
  const uint8_t aPLLMULFactorTable[16] = { 2U,  3U,  4U,  5U,  6U,  7U,  8U,  9U,
 80031dc:	466a      	mov	r2, sp
 80031de:	0011      	movs	r1, r2
 80031e0:	4b23      	ldr	r3, [pc, #140]	; (8003270 <HAL_RCC_ClockConfig+0x168>)
 80031e2:	cb31      	ldmia	r3!, {r0, r4, r5}
 80031e4:	c131      	stmia	r1!, {r0, r4, r5}
 80031e6:	681b      	ldr	r3, [r3, #0]
                                         10U, 11U, 12U, 13U, 14U, 15U, 16U, 16U};
  const uint8_t aPredivFactorTable[16] = { 1U, 2U,  3U,  4U,  5U,  6U,  7U,  8U,
 80031e8:	a804      	add	r0, sp, #16
  const uint8_t aPLLMULFactorTable[16] = { 2U,  3U,  4U,  5U,  6U,  7U,  8U,  9U,
 80031ea:	600b      	str	r3, [r1, #0]
  const uint8_t aPredivFactorTable[16] = { 1U, 2U,  3U,  4U,  5U,  6U,  7U,  8U,
 80031ec:	0001      	movs	r1, r0
 80031ee:	4b21      	ldr	r3, [pc, #132]	; (8003274 <HAL_RCC_ClockConfig+0x16c>)
 80031f0:	cb70      	ldmia	r3!, {r4, r5, r6}
 80031f2:	c170      	stmia	r1!, {r4, r5, r6}
 80031f4:	681b      	ldr	r3, [r3, #0]
                                           9U,10U, 11U, 12U, 13U, 14U, 15U, 16U};

  uint32_t tmpreg = 0U, prediv = 0U, pllclk = 0U, pllmul = 0U;
  uint32_t sysclockfreq = 0U;
  
  tmpreg = RCC->CFGR;
 80031f6:	4c1b      	ldr	r4, [pc, #108]	; (8003264 <HAL_RCC_ClockConfig+0x15c>)
  const uint8_t aPredivFactorTable[16] = { 1U, 2U,  3U,  4U,  5U,  6U,  7U,  8U,
 80031f8:	600b      	str	r3, [r1, #0]
  
  /* Get SYSCLK source -------------------------------------------------------*/
  switch (tmpreg & RCC_CFGR_SWS)
 80031fa:	230c      	movs	r3, #12
  tmpreg = RCC->CFGR;
 80031fc:	6861      	ldr	r1, [r4, #4]
  switch (tmpreg & RCC_CFGR_SWS)
 80031fe:	400b      	ands	r3, r1
 8003200:	2b08      	cmp	r3, #8
 8003202:	d00e      	beq.n	8003222 <HAL_RCC_ClockConfig+0x11a>
  {
    case RCC_SYSCLKSOURCE_STATUS_HSE:  /* HSE used as system clock */
    {
      sysclockfreq = HSE_VALUE;
 8003204:	481c      	ldr	r0, [pc, #112]	; (8003278 <HAL_RCC_ClockConfig+0x170>)
  SystemCoreClock = HAL_RCC_GetSysClockFreq() >> AHBPrescTable[(RCC->CFGR & RCC_CFGR_HPRE)>> RCC_CFGR_HPRE_BITNUMBER];
 8003206:	4b17      	ldr	r3, [pc, #92]	; (8003264 <HAL_RCC_ClockConfig+0x15c>)
 8003208:	4a1c      	ldr	r2, [pc, #112]	; (800327c <HAL_RCC_ClockConfig+0x174>)
 800320a:	685b      	ldr	r3, [r3, #4]
 800320c:	491c      	ldr	r1, [pc, #112]	; (8003280 <HAL_RCC_ClockConfig+0x178>)
 800320e:	061b      	lsls	r3, r3, #24
 8003210:	0f1b      	lsrs	r3, r3, #28
 8003212:	5cd3      	ldrb	r3, [r2, r3]
 8003214:	40d8      	lsrs	r0, r3
 8003216:	6008      	str	r0, [r1, #0]
  HAL_InitTick (TICK_INT_PRIORITY);
 8003218:	2002      	movs	r0, #2
 800321a:	f7ff fa01 	bl	8002620 <HAL_InitTick>
  return HAL_OK;
 800321e:	2000      	movs	r0, #0
 8003220:	e78a      	b.n	8003138 <HAL_RCC_ClockConfig+0x30>
      break;
    }
    case RCC_SYSCLKSOURCE_STATUS_PLLCLK:  /* PLL used as system clock */
    {
      pllmul = aPLLMULFactorTable[(uint32_t)(tmpreg & RCC_CFGR_PLLMUL) >> RCC_CFGR_PLLMUL_BITNUMBER];
 8003222:	260f      	movs	r6, #15
 8003224:	0c8b      	lsrs	r3, r1, #18
 8003226:	4033      	ands	r3, r6
 8003228:	5cd5      	ldrb	r5, [r2, r3]
      prediv = aPredivFactorTable[(uint32_t)(RCC->CFGR2 & RCC_CFGR2_PREDIV) >> RCC_CFGR2_PREDIV_BITNUMBER];
 800322a:	6ae3      	ldr	r3, [r4, #44]	; 0x2c
      if ((tmpreg & RCC_CFGR_PLLSRC) == RCC_PLLSOURCE_HSE)
 800322c:	03c9      	lsls	r1, r1, #15
 800322e:	d50e      	bpl.n	800324e <HAL_RCC_ClockConfig+0x146>
      prediv = aPredivFactorTable[(uint32_t)(RCC->CFGR2 & RCC_CFGR2_PREDIV) >> RCC_CFGR2_PREDIV_BITNUMBER];
 8003230:	401e      	ands	r6, r3
 8003232:	5d81      	ldrb	r1, [r0, r6]
      {
        /* HSE used as PLL clock source : PLLCLK = HSE/PREDIV * PLLMUL */
        pllclk = (uint32_t)((uint64_t) HSE_VALUE / (uint64_t) (prediv)) * ((uint64_t) pllmul);
 8003234:	4810      	ldr	r0, [pc, #64]	; (8003278 <HAL_RCC_ClockConfig+0x170>)
 8003236:	f7fc ff67 	bl	8000108 <__udivsi3>
 800323a:	4368      	muls	r0, r5
 800323c:	e7e3      	b.n	8003206 <HAL_RCC_ClockConfig+0xfe>
      if(__HAL_RCC_GET_FLAG(RCC_FLAG_PLLRDY) == RESET)
 800323e:	019b      	lsls	r3, r3, #6
 8003240:	d49c      	bmi.n	800317c <HAL_RCC_ClockConfig+0x74>
 8003242:	e778      	b.n	8003136 <HAL_RCC_ClockConfig+0x2e>
      if(__HAL_RCC_GET_FLAG(RCC_FLAG_HSERDY) == RESET)
 8003244:	039b      	lsls	r3, r3, #14
 8003246:	d499      	bmi.n	800317c <HAL_RCC_ClockConfig+0x74>
 8003248:	e775      	b.n	8003136 <HAL_RCC_ClockConfig+0x2e>
        return HAL_TIMEOUT;
 800324a:	2003      	movs	r0, #3
 800324c:	e774      	b.n	8003138 <HAL_RCC_ClockConfig+0x30>
#if  (defined(STM32F042x6) || defined(STM32F048xx) || defined(STM32F070x6) || defined(STM32F071xB) || defined(STM32F072xB) || defined(STM32F078xx) || defined(STM32F070xB) || defined(STM32F091xC) || defined(STM32F098xx) || defined(STM32F030xC))
        /* HSI used as PLL clock source : PLLCLK = HSI/PREDIV * PLLMUL */
        pllclk = (uint32_t)((uint64_t) HSI_VALUE / (uint64_t) (prediv)) * ((uint64_t) pllmul);
#else
        /* HSI used as PLL clock source : PLLCLK = HSI/2 * PLLMUL */
        pllclk = (uint32_t)((uint64_t) (HSI_VALUE >> 1U) * ((uint64_t) pllmul));
 800324e:	016b      	lsls	r3, r5, #5
 8003250:	1b5b      	subs	r3, r3, r5
 8003252:	0198      	lsls	r0, r3, #6
 8003254:	1ac0      	subs	r0, r0, r3
 8003256:	00c0      	lsls	r0, r0, #3
 8003258:	1940      	adds	r0, r0, r5
 800325a:	0200      	lsls	r0, r0, #8
 800325c:	e7d3      	b.n	8003206 <HAL_RCC_ClockConfig+0xfe>
 800325e:	46c0      	nop			; (mov r8, r8)
 8003260:	40022000 	.word	0x40022000
 8003264:	40021000 	.word	0x40021000
 8003268:	00001388 	.word	0x00001388
 800326c:	fffff8ff 	.word	0xfffff8ff
 8003270:	080067e8 	.word	0x080067e8
 8003274:	080067fc 	.word	0x080067fc
 8003278:	007a1200 	.word	0x007a1200
 800327c:	080067d0 	.word	0x080067d0
 8003280:	20000594 	.word	0x20000594

08003284 <HAL_RCC_EnableCSS>:
  SET_BIT(RCC->CR, RCC_CR_CSSON) ;
 8003284:	2380      	movs	r3, #128	; 0x80
 8003286:	4a03      	ldr	r2, [pc, #12]	; (8003294 <HAL_RCC_EnableCSS+0x10>)
 8003288:	031b      	lsls	r3, r3, #12
 800328a:	6811      	ldr	r1, [r2, #0]
 800328c:	430b      	orrs	r3, r1
 800328e:	6013      	str	r3, [r2, #0]
}
 8003290:	4770      	bx	lr
 8003292:	46c0      	nop			; (mov r8, r8)
 8003294:	40021000 	.word	0x40021000

08003298 <HAL_RCC_GetSysClockFreq>:
{
 8003298:	b570      	push	{r4, r5, r6, lr}
 800329a:	b088      	sub	sp, #32
  const uint8_t aPLLMULFactorTable[16] = { 2U,  3U,  4U,  5U,  6U,  7U,  8U,  9U,
 800329c:	466a      	mov	r2, sp
 800329e:	0011      	movs	r1, r2
 80032a0:	4b15      	ldr	r3, [pc, #84]	; (80032f8 <HAL_RCC_GetSysClockFreq+0x60>)
 80032a2:	cb31      	ldmia	r3!, {r0, r4, r5}
 80032a4:	c131      	stmia	r1!, {r0, r4, r5}
 80032a6:	681b      	ldr	r3, [r3, #0]
 80032a8:	600b      	str	r3, [r1, #0]
  const uint8_t aPredivFactorTable[16] = { 1U, 2U,  3U,  4U,  5U,  6U,  7U,  8U,
 80032aa:	a904      	add	r1, sp, #16
 80032ac:	0008      	movs	r0, r1
 80032ae:	4b13      	ldr	r3, [pc, #76]	; (80032fc <HAL_RCC_GetSysClockFreq+0x64>)
 80032b0:	cb70      	ldmia	r3!, {r4, r5, r6}
 80032b2:	c070      	stmia	r0!, {r4, r5, r6}
 80032b4:	681b      	ldr	r3, [r3, #0]
 80032b6:	6003      	str	r3, [r0, #0]
  switch (tmpreg & RCC_CFGR_SWS)
 80032b8:	230c      	movs	r3, #12
  tmpreg = RCC->CFGR;
 80032ba:	4811      	ldr	r0, [pc, #68]	; (8003300 <HAL_RCC_GetSysClockFreq+0x68>)
 80032bc:	6844      	ldr	r4, [r0, #4]
  switch (tmpreg & RCC_CFGR_SWS)
 80032be:	4023      	ands	r3, r4
 80032c0:	2b08      	cmp	r3, #8
 80032c2:	d002      	beq.n	80032ca <HAL_RCC_GetSysClockFreq+0x32>
      sysclockfreq = HSE_VALUE;
 80032c4:	480f      	ldr	r0, [pc, #60]	; (8003304 <HAL_RCC_GetSysClockFreq+0x6c>)
      sysclockfreq = HSI_VALUE;
      break;
    }
  }
  return sysclockfreq;
}
 80032c6:	b008      	add	sp, #32
 80032c8:	bd70      	pop	{r4, r5, r6, pc}
      pllmul = aPLLMULFactorTable[(uint32_t)(tmpreg & RCC_CFGR_PLLMUL) >> RCC_CFGR_PLLMUL_BITNUMBER];
 80032ca:	260f      	movs	r6, #15
 80032cc:	0ca3      	lsrs	r3, r4, #18
 80032ce:	4033      	ands	r3, r6
 80032d0:	5cd5      	ldrb	r5, [r2, r3]
      prediv = aPredivFactorTable[(uint32_t)(RCC->CFGR2 & RCC_CFGR2_PREDIV) >> RCC_CFGR2_PREDIV_BITNUMBER];
 80032d2:	6ac3      	ldr	r3, [r0, #44]	; 0x2c
      if ((tmpreg & RCC_CFGR_PLLSRC) == RCC_PLLSOURCE_HSE)
 80032d4:	03e4      	lsls	r4, r4, #15
 80032d6:	d506      	bpl.n	80032e6 <HAL_RCC_GetSysClockFreq+0x4e>
      prediv = aPredivFactorTable[(uint32_t)(RCC->CFGR2 & RCC_CFGR2_PREDIV) >> RCC_CFGR2_PREDIV_BITNUMBER];
 80032d8:	401e      	ands	r6, r3
 80032da:	5d89      	ldrb	r1, [r1, r6]
        pllclk = (uint32_t)((uint64_t) HSE_VALUE / (uint64_t) (prediv)) * ((uint64_t) pllmul);
 80032dc:	4809      	ldr	r0, [pc, #36]	; (8003304 <HAL_RCC_GetSysClockFreq+0x6c>)
 80032de:	f7fc ff13 	bl	8000108 <__udivsi3>
 80032e2:	4368      	muls	r0, r5
 80032e4:	e7ef      	b.n	80032c6 <HAL_RCC_GetSysClockFreq+0x2e>
        pllclk = (uint32_t)((uint64_t) (HSI_VALUE >> 1U) * ((uint64_t) pllmul));
 80032e6:	016a      	lsls	r2, r5, #5
 80032e8:	1b52      	subs	r2, r2, r5
 80032ea:	0193      	lsls	r3, r2, #6
 80032ec:	1a9b      	subs	r3, r3, r2
 80032ee:	00db      	lsls	r3, r3, #3
 80032f0:	195b      	adds	r3, r3, r5
 80032f2:	0218      	lsls	r0, r3, #8
 80032f4:	e7e7      	b.n	80032c6 <HAL_RCC_GetSysClockFreq+0x2e>
 80032f6:	46c0      	nop			; (mov r8, r8)
 80032f8:	080067e8 	.word	0x080067e8
 80032fc:	080067fc 	.word	0x080067fc
 8003300:	40021000 	.word	0x40021000
 8003304:	007a1200 	.word	0x007a1200

08003308 <HAL_RCC_GetHCLKFreq>:
  *         and updated within this function
  * @retval HCLK frequency
  */
uint32_t HAL_RCC_GetHCLKFreq(void)
{
  return SystemCoreClock;
 8003308:	4b01      	ldr	r3, [pc, #4]	; (8003310 <HAL_RCC_GetHCLKFreq+0x8>)
 800330a:	6818      	ldr	r0, [r3, #0]
}
 800330c:	4770      	bx	lr
 800330e:	46c0      	nop			; (mov r8, r8)
 8003310:	20000594 	.word	0x20000594

08003314 <HAL_RCC_GetPCLK1Freq>:
  * @retval PCLK1 frequency
  */
uint32_t HAL_RCC_GetPCLK1Freq(void)
{
  /* Get HCLK source and Compute PCLK1 frequency ---------------------------*/
  return (HAL_RCC_GetHCLKFreq() >> APBPrescTable[(RCC->CFGR & RCC_CFGR_PPRE) >> RCC_CFGR_PPRE_BITNUMBER]);
 8003314:	4b04      	ldr	r3, [pc, #16]	; (8003328 <HAL_RCC_GetPCLK1Freq+0x14>)
  return SystemCoreClock;
 8003316:	4a05      	ldr	r2, [pc, #20]	; (800332c <HAL_RCC_GetPCLK1Freq+0x18>)
  return (HAL_RCC_GetHCLKFreq() >> APBPrescTable[(RCC->CFGR & RCC_CFGR_PPRE) >> RCC_CFGR_PPRE_BITNUMBER]);
 8003318:	685b      	ldr	r3, [r3, #4]
 800331a:	4905      	ldr	r1, [pc, #20]	; (8003330 <HAL_RCC_GetPCLK1Freq+0x1c>)
 800331c:	055b      	lsls	r3, r3, #21
 800331e:	0f5b      	lsrs	r3, r3, #29
 8003320:	5ccb      	ldrb	r3, [r1, r3]
 8003322:	6810      	ldr	r0, [r2, #0]
 8003324:	40d8      	lsrs	r0, r3
}    
 8003326:	4770      	bx	lr
 8003328:	40021000 	.word	0x40021000
 800332c:	20000594 	.word	0x20000594
 8003330:	080067e0 	.word	0x080067e0

08003334 <HAL_RCCEx_PeriphCLKConfig>:
  *         the backup registers) and RCC_BDCR register are set to their reset values.
  *
  * @retval HAL status
  */
HAL_StatusTypeDef HAL_RCCEx_PeriphCLKConfig(RCC_PeriphCLKInitTypeDef  *PeriphClkInit)
{
 8003334:	b5f0      	push	{r4, r5, r6, r7, lr}
 8003336:	46ce      	mov	lr, r9
 8003338:	4647      	mov	r7, r8
 800333a:	b580      	push	{r7, lr}

  /* Check the parameters */
  assert_param(IS_RCC_PERIPHCLOCK(PeriphClkInit->PeriphClockSelection));
  
  /*---------------------------- RTC configuration -------------------------------*/
  if(((PeriphClkInit->PeriphClockSelection) & RCC_PERIPHCLK_RTC) == (RCC_PERIPHCLK_RTC))
 800333c:	6803      	ldr	r3, [r0, #0]
{
 800333e:	0004      	movs	r4, r0
 8003340:	b083      	sub	sp, #12
  if(((PeriphClkInit->PeriphClockSelection) & RCC_PERIPHCLK_RTC) == (RCC_PERIPHCLK_RTC))
 8003342:	03da      	lsls	r2, r3, #15
 8003344:	d530      	bpl.n	80033a8 <HAL_RCCEx_PeriphCLKConfig+0x74>
    FlagStatus       pwrclkchanged = RESET;

    /* As soon as function is called to change RTC clock source, activation of the 
       power domain is done. */
    /* Requires to enable write access to Backup Domain of necessary */
    if(__HAL_RCC_PWR_IS_CLK_DISABLED())
 8003346:	2280      	movs	r2, #128	; 0x80
 8003348:	4b43      	ldr	r3, [pc, #268]	; (8003458 <HAL_RCCEx_PeriphCLKConfig+0x124>)
 800334a:	0552      	lsls	r2, r2, #21
 800334c:	69d9      	ldr	r1, [r3, #28]
    FlagStatus       pwrclkchanged = RESET;
 800334e:	2700      	movs	r7, #0
    if(__HAL_RCC_PWR_IS_CLK_DISABLED())
 8003350:	4211      	tst	r1, r2
 8003352:	d041      	beq.n	80033d8 <HAL_RCCEx_PeriphCLKConfig+0xa4>
    {
    __HAL_RCC_PWR_CLK_ENABLE();
      pwrclkchanged = SET;
    }
    
    if(HAL_IS_BIT_CLR(PWR->CR, PWR_CR_DBP))
 8003354:	2680      	movs	r6, #128	; 0x80
 8003356:	4d41      	ldr	r5, [pc, #260]	; (800345c <HAL_RCCEx_PeriphCLKConfig+0x128>)
 8003358:	0076      	lsls	r6, r6, #1
 800335a:	682b      	ldr	r3, [r5, #0]
 800335c:	4233      	tst	r3, r6
 800335e:	d049      	beq.n	80033f4 <HAL_RCCEx_PeriphCLKConfig+0xc0>
        }
      }
    }
    
    /* Reset the Backup domain only if the RTC Clock source selection is modified from reset value */ 
    temp_reg = (RCC->BDCR & RCC_BDCR_RTCSEL);
 8003360:	4d3d      	ldr	r5, [pc, #244]	; (8003458 <HAL_RCCEx_PeriphCLKConfig+0x124>)
 8003362:	23c0      	movs	r3, #192	; 0xc0
 8003364:	6a2a      	ldr	r2, [r5, #32]
 8003366:	009b      	lsls	r3, r3, #2
 8003368:	0010      	movs	r0, r2
 800336a:	4018      	ands	r0, r3
    if((temp_reg != 0x00000000U) && (temp_reg != (PeriphClkInit->RTCClockSelection & RCC_BDCR_RTCSEL)))
 800336c:	421a      	tst	r2, r3
 800336e:	d063      	beq.n	8003438 <HAL_RCCEx_PeriphCLKConfig+0x104>
 8003370:	6861      	ldr	r1, [r4, #4]
 8003372:	400b      	ands	r3, r1
 8003374:	4283      	cmp	r3, r0
 8003376:	d00e      	beq.n	8003396 <HAL_RCCEx_PeriphCLKConfig+0x62>
    {
      /* Store the content of BDCR register before the reset of Backup Domain */
      temp_reg = (RCC->BDCR & ~(RCC_BDCR_RTCSEL));
      /* RTC Clock selection can be changed only if the Backup Domain is reset */
      __HAL_RCC_BACKUPRESET_FORCE();
 8003378:	2080      	movs	r0, #128	; 0x80
      temp_reg = (RCC->BDCR & ~(RCC_BDCR_RTCSEL));
 800337a:	6a2b      	ldr	r3, [r5, #32]
      __HAL_RCC_BACKUPRESET_FORCE();
 800337c:	6a2e      	ldr	r6, [r5, #32]
 800337e:	0240      	lsls	r0, r0, #9
 8003380:	4330      	orrs	r0, r6
 8003382:	6228      	str	r0, [r5, #32]
      __HAL_RCC_BACKUPRESET_RELEASE();
 8003384:	6a28      	ldr	r0, [r5, #32]
      temp_reg = (RCC->BDCR & ~(RCC_BDCR_RTCSEL));
 8003386:	4a36      	ldr	r2, [pc, #216]	; (8003460 <HAL_RCCEx_PeriphCLKConfig+0x12c>)
      __HAL_RCC_BACKUPRESET_RELEASE();
 8003388:	4e36      	ldr	r6, [pc, #216]	; (8003464 <HAL_RCCEx_PeriphCLKConfig+0x130>)
      temp_reg = (RCC->BDCR & ~(RCC_BDCR_RTCSEL));
 800338a:	401a      	ands	r2, r3
      __HAL_RCC_BACKUPRESET_RELEASE();
 800338c:	4030      	ands	r0, r6
 800338e:	6228      	str	r0, [r5, #32]
      /* Restore the Content of BDCR register */
      RCC->BDCR = temp_reg;
 8003390:	622a      	str	r2, [r5, #32]
      
      /* Wait for LSERDY if LSE was enabled */
      if (HAL_IS_BIT_SET(temp_reg, RCC_BDCR_LSEON))
 8003392:	07db      	lsls	r3, r3, #31
 8003394:	d43f      	bmi.n	8003416 <HAL_RCCEx_PeriphCLKConfig+0xe2>
            return HAL_TIMEOUT;
          }
        }
      }
    }
    __HAL_RCC_RTC_CONFIG(PeriphClkInit->RTCClockSelection);
 8003396:	4a30      	ldr	r2, [pc, #192]	; (8003458 <HAL_RCCEx_PeriphCLKConfig+0x124>)
 8003398:	4831      	ldr	r0, [pc, #196]	; (8003460 <HAL_RCCEx_PeriphCLKConfig+0x12c>)
 800339a:	6a13      	ldr	r3, [r2, #32]
 800339c:	4003      	ands	r3, r0
 800339e:	430b      	orrs	r3, r1
 80033a0:	6213      	str	r3, [r2, #32]

    /* Require to disable power clock if necessary */
    if(pwrclkchanged == SET)
 80033a2:	2f01      	cmp	r7, #1
 80033a4:	d051      	beq.n	800344a <HAL_RCCEx_PeriphCLKConfig+0x116>
      __HAL_RCC_PWR_CLK_DISABLE();
    }
  }

  /*------------------------------- USART1 Configuration ------------------------*/ 
  if(((PeriphClkInit->PeriphClockSelection) & RCC_PERIPHCLK_USART1) == RCC_PERIPHCLK_USART1)
 80033a6:	6823      	ldr	r3, [r4, #0]
 80033a8:	07da      	lsls	r2, r3, #31
 80033aa:	d506      	bpl.n	80033ba <HAL_RCCEx_PeriphCLKConfig+0x86>
  {
    /* Check the parameters */
    assert_param(IS_RCC_USART1CLKSOURCE(PeriphClkInit->Usart1ClockSelection));
    
    /* Configure the USART1 clock source */
    __HAL_RCC_USART1_CONFIG(PeriphClkInit->Usart1ClockSelection);
 80033ac:	2003      	movs	r0, #3
 80033ae:	492a      	ldr	r1, [pc, #168]	; (8003458 <HAL_RCCEx_PeriphCLKConfig+0x124>)
 80033b0:	6b0a      	ldr	r2, [r1, #48]	; 0x30
 80033b2:	4382      	bics	r2, r0
 80033b4:	68a0      	ldr	r0, [r4, #8]
 80033b6:	4302      	orrs	r2, r0
 80033b8:	630a      	str	r2, [r1, #48]	; 0x30
#endif /* STM32F042x6 || STM32F048xx ||                */
       /* STM32F051x8 || STM32F058xx ||                */
       /* STM32F071xB || STM32F072xB || STM32F078xx || */
       /* STM32F091xC || STM32F098xx */
  
  return HAL_OK;
 80033ba:	2000      	movs	r0, #0
  if(((PeriphClkInit->PeriphClockSelection) & RCC_PERIPHCLK_I2C1) == RCC_PERIPHCLK_I2C1)
 80033bc:	069b      	lsls	r3, r3, #26
 80033be:	d506      	bpl.n	80033ce <HAL_RCCEx_PeriphCLKConfig+0x9a>
    __HAL_RCC_I2C1_CONFIG(PeriphClkInit->I2c1ClockSelection);
 80033c0:	2110      	movs	r1, #16
 80033c2:	4a25      	ldr	r2, [pc, #148]	; (8003458 <HAL_RCCEx_PeriphCLKConfig+0x124>)
 80033c4:	6b13      	ldr	r3, [r2, #48]	; 0x30
 80033c6:	438b      	bics	r3, r1
 80033c8:	68e1      	ldr	r1, [r4, #12]
 80033ca:	430b      	orrs	r3, r1
 80033cc:	6313      	str	r3, [r2, #48]	; 0x30
}
 80033ce:	b003      	add	sp, #12
 80033d0:	bcc0      	pop	{r6, r7}
 80033d2:	46b9      	mov	r9, r7
 80033d4:	46b0      	mov	r8, r6
 80033d6:	bdf0      	pop	{r4, r5, r6, r7, pc}
    if(HAL_IS_BIT_CLR(PWR->CR, PWR_CR_DBP))
 80033d8:	2680      	movs	r6, #128	; 0x80
    __HAL_RCC_PWR_CLK_ENABLE();
 80033da:	69d9      	ldr	r1, [r3, #28]
    if(HAL_IS_BIT_CLR(PWR->CR, PWR_CR_DBP))
 80033dc:	4d1f      	ldr	r5, [pc, #124]	; (800345c <HAL_RCCEx_PeriphCLKConfig+0x128>)
    __HAL_RCC_PWR_CLK_ENABLE();
 80033de:	4311      	orrs	r1, r2
 80033e0:	61d9      	str	r1, [r3, #28]
 80033e2:	69db      	ldr	r3, [r3, #28]
    if(HAL_IS_BIT_CLR(PWR->CR, PWR_CR_DBP))
 80033e4:	0076      	lsls	r6, r6, #1
    __HAL_RCC_PWR_CLK_ENABLE();
 80033e6:	4013      	ands	r3, r2
 80033e8:	9301      	str	r3, [sp, #4]
 80033ea:	9b01      	ldr	r3, [sp, #4]
    if(HAL_IS_BIT_CLR(PWR->CR, PWR_CR_DBP))
 80033ec:	682b      	ldr	r3, [r5, #0]
      pwrclkchanged = SET;
 80033ee:	3701      	adds	r7, #1
    if(HAL_IS_BIT_CLR(PWR->CR, PWR_CR_DBP))
 80033f0:	4233      	tst	r3, r6
 80033f2:	d1b5      	bne.n	8003360 <HAL_RCCEx_PeriphCLKConfig+0x2c>
      SET_BIT(PWR->CR, PWR_CR_DBP);
 80033f4:	682b      	ldr	r3, [r5, #0]
 80033f6:	4333      	orrs	r3, r6
 80033f8:	602b      	str	r3, [r5, #0]
      tickstart = HAL_GetTick();
 80033fa:	f7ff f953 	bl	80026a4 <HAL_GetTick>
 80033fe:	4680      	mov	r8, r0
      while(HAL_IS_BIT_CLR(PWR->CR, PWR_CR_DBP))
 8003400:	682b      	ldr	r3, [r5, #0]
 8003402:	4233      	tst	r3, r6
 8003404:	d1ac      	bne.n	8003360 <HAL_RCCEx_PeriphCLKConfig+0x2c>
        if((HAL_GetTick() - tickstart) > RCC_DBP_TIMEOUT_VALUE)
 8003406:	f7ff f94d 	bl	80026a4 <HAL_GetTick>
 800340a:	4643      	mov	r3, r8
 800340c:	1ac0      	subs	r0, r0, r3
 800340e:	2864      	cmp	r0, #100	; 0x64
 8003410:	d9f6      	bls.n	8003400 <HAL_RCCEx_PeriphCLKConfig+0xcc>
          return HAL_TIMEOUT;
 8003412:	2003      	movs	r0, #3
 8003414:	e7db      	b.n	80033ce <HAL_RCCEx_PeriphCLKConfig+0x9a>
        tickstart = HAL_GetTick();
 8003416:	f7ff f945 	bl	80026a4 <HAL_GetTick>
        while(__HAL_RCC_GET_FLAG(RCC_FLAG_LSERDY) == RESET)
 800341a:	2302      	movs	r3, #2
 800341c:	4698      	mov	r8, r3
          if((HAL_GetTick() - tickstart) > RCC_LSE_TIMEOUT_VALUE)
 800341e:	4b12      	ldr	r3, [pc, #72]	; (8003468 <HAL_RCCEx_PeriphCLKConfig+0x134>)
        tickstart = HAL_GetTick();
 8003420:	0006      	movs	r6, r0
          if((HAL_GetTick() - tickstart) > RCC_LSE_TIMEOUT_VALUE)
 8003422:	4699      	mov	r9, r3
        while(__HAL_RCC_GET_FLAG(RCC_FLAG_LSERDY) == RESET)
 8003424:	e004      	b.n	8003430 <HAL_RCCEx_PeriphCLKConfig+0xfc>
          if((HAL_GetTick() - tickstart) > RCC_LSE_TIMEOUT_VALUE)
 8003426:	f7ff f93d 	bl	80026a4 <HAL_GetTick>
 800342a:	1b80      	subs	r0, r0, r6
 800342c:	4548      	cmp	r0, r9
 800342e:	d8f0      	bhi.n	8003412 <HAL_RCCEx_PeriphCLKConfig+0xde>
        while(__HAL_RCC_GET_FLAG(RCC_FLAG_LSERDY) == RESET)
 8003430:	4642      	mov	r2, r8
 8003432:	6a2b      	ldr	r3, [r5, #32]
 8003434:	421a      	tst	r2, r3
 8003436:	d0f6      	beq.n	8003426 <HAL_RCCEx_PeriphCLKConfig+0xf2>
    __HAL_RCC_RTC_CONFIG(PeriphClkInit->RTCClockSelection);
 8003438:	4a07      	ldr	r2, [pc, #28]	; (8003458 <HAL_RCCEx_PeriphCLKConfig+0x124>)
 800343a:	4809      	ldr	r0, [pc, #36]	; (8003460 <HAL_RCCEx_PeriphCLKConfig+0x12c>)
 800343c:	6a13      	ldr	r3, [r2, #32]
 800343e:	6861      	ldr	r1, [r4, #4]
 8003440:	4003      	ands	r3, r0
 8003442:	430b      	orrs	r3, r1
 8003444:	6213      	str	r3, [r2, #32]
    if(pwrclkchanged == SET)
 8003446:	2f01      	cmp	r7, #1
 8003448:	d1ad      	bne.n	80033a6 <HAL_RCCEx_PeriphCLKConfig+0x72>
      __HAL_RCC_PWR_CLK_DISABLE();
 800344a:	69d3      	ldr	r3, [r2, #28]
 800344c:	4907      	ldr	r1, [pc, #28]	; (800346c <HAL_RCCEx_PeriphCLKConfig+0x138>)
 800344e:	400b      	ands	r3, r1
 8003450:	61d3      	str	r3, [r2, #28]
  if(((PeriphClkInit->PeriphClockSelection) & RCC_PERIPHCLK_USART1) == RCC_PERIPHCLK_USART1)
 8003452:	6823      	ldr	r3, [r4, #0]
 8003454:	e7a8      	b.n	80033a8 <HAL_RCCEx_PeriphCLKConfig+0x74>
 8003456:	46c0      	nop			; (mov r8, r8)
 8003458:	40021000 	.word	0x40021000
 800345c:	40007000 	.word	0x40007000
 8003460:	fffffcff 	.word	0xfffffcff
 8003464:	fffeffff 	.word	0xfffeffff
 8003468:	00001388 	.word	0x00001388
 800346c:	efffffff 	.word	0xefffffff

08003470 <HAL_TIM_Base_Init>:
  *         Ex: call @ref HAL_TIM_Base_DeInit() before HAL_TIM_Base_Init()
  * @param  htim TIM Base handle
  * @retval HAL status
  */
HAL_StatusTypeDef HAL_TIM_Base_Init(TIM_HandleTypeDef *htim)
{
 8003470:	b510      	push	{r4, lr}
 8003472:	1e04      	subs	r4, r0, #0
  /* Check the TIM handle allocation */
  if (htim == NULL)
 8003474:	d066      	beq.n	8003544 <HAL_TIM_Base_Init+0xd4>
  assert_param(IS_TIM_INSTANCE(htim->Instance));
  assert_param(IS_TIM_COUNTER_MODE(htim->Init.CounterMode));
  assert_param(IS_TIM_CLOCKDIVISION_DIV(htim->Init.ClockDivision));
  assert_param(IS_TIM_AUTORELOAD_PRELOAD(htim->Init.AutoReloadPreload));

  if (htim->State == HAL_TIM_STATE_RESET)
 8003476:	233d      	movs	r3, #61	; 0x3d
 8003478:	5cc3      	ldrb	r3, [r0, r3]
 800347a:	b2da      	uxtb	r2, r3
 800347c:	2b00      	cmp	r3, #0
 800347e:	d041      	beq.n	8003504 <HAL_TIM_Base_Init+0x94>
    HAL_TIM_Base_MspInit(htim);
#endif /* USE_HAL_TIM_REGISTER_CALLBACKS */
  }

  /* Set the TIM state */
  htim->State = HAL_TIM_STATE_BUSY;
 8003480:	233d      	movs	r3, #61	; 0x3d
 8003482:	2202      	movs	r2, #2
 8003484:	54e2      	strb	r2, [r4, r3]

  /* Set the Time Base configuration */
  TIM_Base_SetConfig(htim->Instance, &htim->Init);
 8003486:	6822      	ldr	r2, [r4, #0]
{
  uint32_t tmpcr1;
  tmpcr1 = TIMx->CR1;

  /* Set TIM Time Base Unit parameters ---------------------------------------*/
  if (IS_TIM_COUNTER_MODE_SELECT_INSTANCE(TIMx))
 8003488:	492f      	ldr	r1, [pc, #188]	; (8003548 <HAL_TIM_Base_Init+0xd8>)
  tmpcr1 = TIMx->CR1;
 800348a:	6813      	ldr	r3, [r2, #0]
  if (IS_TIM_COUNTER_MODE_SELECT_INSTANCE(TIMx))
 800348c:	428a      	cmp	r2, r1
 800348e:	d045      	beq.n	800351c <HAL_TIM_Base_Init+0xac>
 8003490:	2180      	movs	r1, #128	; 0x80
 8003492:	05c9      	lsls	r1, r1, #23
 8003494:	428a      	cmp	r2, r1
 8003496:	d02c      	beq.n	80034f2 <HAL_TIM_Base_Init+0x82>
 8003498:	492c      	ldr	r1, [pc, #176]	; (800354c <HAL_TIM_Base_Init+0xdc>)
 800349a:	428a      	cmp	r2, r1
 800349c:	d029      	beq.n	80034f2 <HAL_TIM_Base_Init+0x82>
    /* Select the Counter Mode */
    tmpcr1 &= ~(TIM_CR1_DIR | TIM_CR1_CMS);
    tmpcr1 |= Structure->CounterMode;
  }

  if (IS_TIM_CLOCK_DIVISION_INSTANCE(TIMx))
 800349e:	492c      	ldr	r1, [pc, #176]	; (8003550 <HAL_TIM_Base_Init+0xe0>)
 80034a0:	428a      	cmp	r2, r1
 80034a2:	d02a      	beq.n	80034fa <HAL_TIM_Base_Init+0x8a>
 80034a4:	492b      	ldr	r1, [pc, #172]	; (8003554 <HAL_TIM_Base_Init+0xe4>)
 80034a6:	428a      	cmp	r2, r1
 80034a8:	d03c      	beq.n	8003524 <HAL_TIM_Base_Init+0xb4>
 80034aa:	492b      	ldr	r1, [pc, #172]	; (8003558 <HAL_TIM_Base_Init+0xe8>)
 80034ac:	428a      	cmp	r2, r1
 80034ae:	d039      	beq.n	8003524 <HAL_TIM_Base_Init+0xb4>
    tmpcr1 &= ~TIM_CR1_CKD;
    tmpcr1 |= (uint32_t)Structure->ClockDivision;
  }

  /* Set the auto-reload preload */
  MODIFY_REG(tmpcr1, TIM_CR1_ARPE, Structure->AutoReloadPreload);
 80034b0:	2180      	movs	r1, #128	; 0x80
 80034b2:	438b      	bics	r3, r1
 80034b4:	69a1      	ldr	r1, [r4, #24]
 80034b6:	430b      	orrs	r3, r1

  TIMx->CR1 = tmpcr1;
 80034b8:	6013      	str	r3, [r2, #0]

  /* Set the Autoreload value */
  TIMx->ARR = (uint32_t)Structure->Period ;
 80034ba:	68e3      	ldr	r3, [r4, #12]
 80034bc:	62d3      	str	r3, [r2, #44]	; 0x2c

  /* Set the Prescaler value */
  TIMx->PSC = Structure->Prescaler;
 80034be:	6863      	ldr	r3, [r4, #4]
 80034c0:	6293      	str	r3, [r2, #40]	; 0x28
    TIMx->RCR = Structure->RepetitionCounter;
  }

  /* Generate an update event to reload the Prescaler
     and the repetition counter (only for advanced timer) value immediately */
  TIMx->EGR = TIM_EGR_UG;
 80034c2:	2301      	movs	r3, #1
 80034c4:	6153      	str	r3, [r2, #20]
  htim->DMABurstState = HAL_DMA_BURST_STATE_READY;
 80034c6:	2246      	movs	r2, #70	; 0x46
  return HAL_OK;
 80034c8:	2000      	movs	r0, #0
  htim->DMABurstState = HAL_DMA_BURST_STATE_READY;
 80034ca:	54a3      	strb	r3, [r4, r2]
  TIM_CHANNEL_STATE_SET_ALL(htim, HAL_TIM_CHANNEL_STATE_READY);
 80034cc:	3a08      	subs	r2, #8
 80034ce:	54a3      	strb	r3, [r4, r2]
 80034d0:	3201      	adds	r2, #1
 80034d2:	54a3      	strb	r3, [r4, r2]
 80034d4:	3201      	adds	r2, #1
 80034d6:	54a3      	strb	r3, [r4, r2]
 80034d8:	3201      	adds	r2, #1
 80034da:	54a3      	strb	r3, [r4, r2]
  TIM_CHANNEL_N_STATE_SET_ALL(htim, HAL_TIM_CHANNEL_STATE_READY);
 80034dc:	3201      	adds	r2, #1
 80034de:	54a3      	strb	r3, [r4, r2]
 80034e0:	3201      	adds	r2, #1
 80034e2:	54a3      	strb	r3, [r4, r2]
 80034e4:	3201      	adds	r2, #1
 80034e6:	54a3      	strb	r3, [r4, r2]
 80034e8:	3201      	adds	r2, #1
 80034ea:	54a3      	strb	r3, [r4, r2]
  htim->State = HAL_TIM_STATE_READY;
 80034ec:	3a08      	subs	r2, #8
 80034ee:	54a3      	strb	r3, [r4, r2]
}
 80034f0:	bd10      	pop	{r4, pc}
    tmpcr1 &= ~(TIM_CR1_DIR | TIM_CR1_CMS);
 80034f2:	2170      	movs	r1, #112	; 0x70
 80034f4:	438b      	bics	r3, r1
    tmpcr1 |= Structure->CounterMode;
 80034f6:	68a1      	ldr	r1, [r4, #8]
 80034f8:	430b      	orrs	r3, r1
    tmpcr1 &= ~TIM_CR1_CKD;
 80034fa:	4918      	ldr	r1, [pc, #96]	; (800355c <HAL_TIM_Base_Init+0xec>)
 80034fc:	400b      	ands	r3, r1
    tmpcr1 |= (uint32_t)Structure->ClockDivision;
 80034fe:	6921      	ldr	r1, [r4, #16]
 8003500:	430b      	orrs	r3, r1
 8003502:	e7d5      	b.n	80034b0 <HAL_TIM_Base_Init+0x40>
    htim->Lock = HAL_UNLOCKED;
 8003504:	333c      	adds	r3, #60	; 0x3c
 8003506:	54c2      	strb	r2, [r0, r3]
    HAL_TIM_Base_MspInit(htim);
 8003508:	f7fe fc3c 	bl	8001d84 <HAL_TIM_Base_MspInit>
  htim->State = HAL_TIM_STATE_BUSY;
 800350c:	233d      	movs	r3, #61	; 0x3d
 800350e:	2202      	movs	r2, #2
 8003510:	54e2      	strb	r2, [r4, r3]
  TIM_Base_SetConfig(htim->Instance, &htim->Init);
 8003512:	6822      	ldr	r2, [r4, #0]
  if (IS_TIM_COUNTER_MODE_SELECT_INSTANCE(TIMx))
 8003514:	490c      	ldr	r1, [pc, #48]	; (8003548 <HAL_TIM_Base_Init+0xd8>)
  tmpcr1 = TIMx->CR1;
 8003516:	6813      	ldr	r3, [r2, #0]
  if (IS_TIM_COUNTER_MODE_SELECT_INSTANCE(TIMx))
 8003518:	428a      	cmp	r2, r1
 800351a:	d1b9      	bne.n	8003490 <HAL_TIM_Base_Init+0x20>
    tmpcr1 &= ~(TIM_CR1_DIR | TIM_CR1_CMS);
 800351c:	2170      	movs	r1, #112	; 0x70
 800351e:	438b      	bics	r3, r1
    tmpcr1 |= Structure->CounterMode;
 8003520:	68a1      	ldr	r1, [r4, #8]
 8003522:	430b      	orrs	r3, r1
    tmpcr1 &= ~TIM_CR1_CKD;
 8003524:	490d      	ldr	r1, [pc, #52]	; (800355c <HAL_TIM_Base_Init+0xec>)
 8003526:	400b      	ands	r3, r1
    tmpcr1 |= (uint32_t)Structure->ClockDivision;
 8003528:	6921      	ldr	r1, [r4, #16]
 800352a:	430b      	orrs	r3, r1
  MODIFY_REG(tmpcr1, TIM_CR1_ARPE, Structure->AutoReloadPreload);
 800352c:	2180      	movs	r1, #128	; 0x80
 800352e:	438b      	bics	r3, r1
 8003530:	69a1      	ldr	r1, [r4, #24]
 8003532:	430b      	orrs	r3, r1
  TIMx->CR1 = tmpcr1;
 8003534:	6013      	str	r3, [r2, #0]
  TIMx->ARR = (uint32_t)Structure->Period ;
 8003536:	68e3      	ldr	r3, [r4, #12]
 8003538:	62d3      	str	r3, [r2, #44]	; 0x2c
  TIMx->PSC = Structure->Prescaler;
 800353a:	6863      	ldr	r3, [r4, #4]
 800353c:	6293      	str	r3, [r2, #40]	; 0x28
    TIMx->RCR = Structure->RepetitionCounter;
 800353e:	6963      	ldr	r3, [r4, #20]
 8003540:	6313      	str	r3, [r2, #48]	; 0x30
 8003542:	e7be      	b.n	80034c2 <HAL_TIM_Base_Init+0x52>
    return HAL_ERROR;
 8003544:	2001      	movs	r0, #1
 8003546:	e7d3      	b.n	80034f0 <HAL_TIM_Base_Init+0x80>
 8003548:	40012c00 	.word	0x40012c00
 800354c:	40000400 	.word	0x40000400
 8003550:	40002000 	.word	0x40002000
 8003554:	40014400 	.word	0x40014400
 8003558:	40014800 	.word	0x40014800
 800355c:	fffffcff 	.word	0xfffffcff

08003560 <HAL_TIM_PWM_Init>:
{
 8003560:	b510      	push	{r4, lr}
 8003562:	1e04      	subs	r4, r0, #0
  if (htim == NULL)
 8003564:	d066      	beq.n	8003634 <HAL_TIM_PWM_Init+0xd4>
  if (htim->State == HAL_TIM_STATE_RESET)
 8003566:	233d      	movs	r3, #61	; 0x3d
 8003568:	5cc3      	ldrb	r3, [r0, r3]
 800356a:	b2da      	uxtb	r2, r3
 800356c:	2b00      	cmp	r3, #0
 800356e:	d041      	beq.n	80035f4 <HAL_TIM_PWM_Init+0x94>
  htim->State = HAL_TIM_STATE_BUSY;
 8003570:	233d      	movs	r3, #61	; 0x3d
 8003572:	2202      	movs	r2, #2
 8003574:	54e2      	strb	r2, [r4, r3]
  TIM_Base_SetConfig(htim->Instance, &htim->Init);
 8003576:	6822      	ldr	r2, [r4, #0]
  if (IS_TIM_COUNTER_MODE_SELECT_INSTANCE(TIMx))
 8003578:	492f      	ldr	r1, [pc, #188]	; (8003638 <HAL_TIM_PWM_Init+0xd8>)
  tmpcr1 = TIMx->CR1;
 800357a:	6813      	ldr	r3, [r2, #0]
  if (IS_TIM_COUNTER_MODE_SELECT_INSTANCE(TIMx))
 800357c:	428a      	cmp	r2, r1
 800357e:	d045      	beq.n	800360c <HAL_TIM_PWM_Init+0xac>
 8003580:	2180      	movs	r1, #128	; 0x80
 8003582:	05c9      	lsls	r1, r1, #23
 8003584:	428a      	cmp	r2, r1
 8003586:	d02c      	beq.n	80035e2 <HAL_TIM_PWM_Init+0x82>
 8003588:	492c      	ldr	r1, [pc, #176]	; (800363c <HAL_TIM_PWM_Init+0xdc>)
 800358a:	428a      	cmp	r2, r1
 800358c:	d029      	beq.n	80035e2 <HAL_TIM_PWM_Init+0x82>
  if (IS_TIM_CLOCK_DIVISION_INSTANCE(TIMx))
 800358e:	492c      	ldr	r1, [pc, #176]	; (8003640 <HAL_TIM_PWM_Init+0xe0>)
 8003590:	428a      	cmp	r2, r1
 8003592:	d02a      	beq.n	80035ea <HAL_TIM_PWM_Init+0x8a>
 8003594:	492b      	ldr	r1, [pc, #172]	; (8003644 <HAL_TIM_PWM_Init+0xe4>)
 8003596:	428a      	cmp	r2, r1
 8003598:	d03c      	beq.n	8003614 <HAL_TIM_PWM_Init+0xb4>
 800359a:	492b      	ldr	r1, [pc, #172]	; (8003648 <HAL_TIM_PWM_Init+0xe8>)
 800359c:	428a      	cmp	r2, r1
 800359e:	d039      	beq.n	8003614 <HAL_TIM_PWM_Init+0xb4>
  MODIFY_REG(tmpcr1, TIM_CR1_ARPE, Structure->AutoReloadPreload);
 80035a0:	2180      	movs	r1, #128	; 0x80
 80035a2:	438b      	bics	r3, r1
 80035a4:	69a1      	ldr	r1, [r4, #24]
 80035a6:	430b      	orrs	r3, r1
  TIMx->CR1 = tmpcr1;
 80035a8:	6013      	str	r3, [r2, #0]
  TIMx->ARR = (uint32_t)Structure->Period ;
 80035aa:	68e3      	ldr	r3, [r4, #12]
 80035ac:	62d3      	str	r3, [r2, #44]	; 0x2c
  TIMx->PSC = Structure->Prescaler;
 80035ae:	6863      	ldr	r3, [r4, #4]
 80035b0:	6293      	str	r3, [r2, #40]	; 0x28
  TIMx->EGR = TIM_EGR_UG;
 80035b2:	2301      	movs	r3, #1
 80035b4:	6153      	str	r3, [r2, #20]
  htim->DMABurstState = HAL_DMA_BURST_STATE_READY;
 80035b6:	2246      	movs	r2, #70	; 0x46
  return HAL_OK;
 80035b8:	2000      	movs	r0, #0
  htim->DMABurstState = HAL_DMA_BURST_STATE_READY;
 80035ba:	54a3      	strb	r3, [r4, r2]
  TIM_CHANNEL_STATE_SET_ALL(htim, HAL_TIM_CHANNEL_STATE_READY);
 80035bc:	3a08      	subs	r2, #8
 80035be:	54a3      	strb	r3, [r4, r2]
 80035c0:	3201      	adds	r2, #1
 80035c2:	54a3      	strb	r3, [r4, r2]
 80035c4:	3201      	adds	r2, #1
 80035c6:	54a3      	strb	r3, [r4, r2]
 80035c8:	3201      	adds	r2, #1
 80035ca:	54a3      	strb	r3, [r4, r2]
  TIM_CHANNEL_N_STATE_SET_ALL(htim, HAL_TIM_CHANNEL_STATE_READY);
 80035cc:	3201      	adds	r2, #1
 80035ce:	54a3      	strb	r3, [r4, r2]
 80035d0:	3201      	adds	r2, #1
 80035d2:	54a3      	strb	r3, [r4, r2]
 80035d4:	3201      	adds	r2, #1
 80035d6:	54a3      	strb	r3, [r4, r2]
 80035d8:	3201      	adds	r2, #1
 80035da:	54a3      	strb	r3, [r4, r2]
  htim->State = HAL_TIM_STATE_READY;
 80035dc:	3a08      	subs	r2, #8
 80035de:	54a3      	strb	r3, [r4, r2]
}
 80035e0:	bd10      	pop	{r4, pc}
    tmpcr1 &= ~(TIM_CR1_DIR | TIM_CR1_CMS);
 80035e2:	2170      	movs	r1, #112	; 0x70
 80035e4:	438b      	bics	r3, r1
    tmpcr1 |= Structure->CounterMode;
 80035e6:	68a1      	ldr	r1, [r4, #8]
 80035e8:	430b      	orrs	r3, r1
    tmpcr1 &= ~TIM_CR1_CKD;
 80035ea:	4918      	ldr	r1, [pc, #96]	; (800364c <HAL_TIM_PWM_Init+0xec>)
 80035ec:	400b      	ands	r3, r1
    tmpcr1 |= (uint32_t)Structure->ClockDivision;
 80035ee:	6921      	ldr	r1, [r4, #16]
 80035f0:	430b      	orrs	r3, r1
 80035f2:	e7d5      	b.n	80035a0 <HAL_TIM_PWM_Init+0x40>
    htim->Lock = HAL_UNLOCKED;
 80035f4:	333c      	adds	r3, #60	; 0x3c
 80035f6:	54c2      	strb	r2, [r0, r3]
    HAL_TIM_PWM_MspInit(htim);
 80035f8:	f7fe fbae 	bl	8001d58 <HAL_TIM_PWM_MspInit>
  htim->State = HAL_TIM_STATE_BUSY;
 80035fc:	233d      	movs	r3, #61	; 0x3d
 80035fe:	2202      	movs	r2, #2
 8003600:	54e2      	strb	r2, [r4, r3]
  TIM_Base_SetConfig(htim->Instance, &htim->Init);
 8003602:	6822      	ldr	r2, [r4, #0]
  if (IS_TIM_COUNTER_MODE_SELECT_INSTANCE(TIMx))
 8003604:	490c      	ldr	r1, [pc, #48]	; (8003638 <HAL_TIM_PWM_Init+0xd8>)
  tmpcr1 = TIMx->CR1;
 8003606:	6813      	ldr	r3, [r2, #0]
  if (IS_TIM_COUNTER_MODE_SELECT_INSTANCE(TIMx))
 8003608:	428a      	cmp	r2, r1
 800360a:	d1b9      	bne.n	8003580 <HAL_TIM_PWM_Init+0x20>
    tmpcr1 &= ~(TIM_CR1_DIR | TIM_CR1_CMS);
 800360c:	2170      	movs	r1, #112	; 0x70
 800360e:	438b      	bics	r3, r1
    tmpcr1 |= Structure->CounterMode;
 8003610:	68a1      	ldr	r1, [r4, #8]
 8003612:	430b      	orrs	r3, r1
    tmpcr1 &= ~TIM_CR1_CKD;
 8003614:	490d      	ldr	r1, [pc, #52]	; (800364c <HAL_TIM_PWM_Init+0xec>)
 8003616:	400b      	ands	r3, r1
    tmpcr1 |= (uint32_t)Structure->ClockDivision;
 8003618:	6921      	ldr	r1, [r4, #16]
 800361a:	430b      	orrs	r3, r1
  MODIFY_REG(tmpcr1, TIM_CR1_ARPE, Structure->AutoReloadPreload);
 800361c:	2180      	movs	r1, #128	; 0x80
 800361e:	438b      	bics	r3, r1
 8003620:	69a1      	ldr	r1, [r4, #24]
 8003622:	430b      	orrs	r3, r1
  TIMx->CR1 = tmpcr1;
 8003624:	6013      	str	r3, [r2, #0]
  TIMx->ARR = (uint32_t)Structure->Period ;
 8003626:	68e3      	ldr	r3, [r4, #12]
 8003628:	62d3      	str	r3, [r2, #44]	; 0x2c
  TIMx->PSC = Structure->Prescaler;
 800362a:	6863      	ldr	r3, [r4, #4]
 800362c:	6293      	str	r3, [r2, #40]	; 0x28
    TIMx->RCR = Structure->RepetitionCounter;
 800362e:	6963      	ldr	r3, [r4, #20]
 8003630:	6313      	str	r3, [r2, #48]	; 0x30
 8003632:	e7be      	b.n	80035b2 <HAL_TIM_PWM_Init+0x52>
    return HAL_ERROR;
 8003634:	2001      	movs	r0, #1
 8003636:	e7d3      	b.n	80035e0 <HAL_TIM_PWM_Init+0x80>
 8003638:	40012c00 	.word	0x40012c00
 800363c:	40000400 	.word	0x40000400
 8003640:	40002000 	.word	0x40002000
 8003644:	40014400 	.word	0x40014400
 8003648:	40014800 	.word	0x40014800
 800364c:	fffffcff 	.word	0xfffffcff

08003650 <HAL_TIM_PWM_ConfigChannel>:
{
 8003650:	0003      	movs	r3, r0
  __HAL_LOCK(htim);
 8003652:	203c      	movs	r0, #60	; 0x3c
{
 8003654:	b5f0      	push	{r4, r5, r6, r7, lr}
  __HAL_LOCK(htim);
 8003656:	5c1c      	ldrb	r4, [r3, r0]
 8003658:	2c01      	cmp	r4, #1
 800365a:	d100      	bne.n	800365e <HAL_TIM_PWM_ConfigChannel+0xe>
 800365c:	e0de      	b.n	800381c <HAL_TIM_PWM_ConfigChannel+0x1cc>
 800365e:	2401      	movs	r4, #1
 8003660:	541c      	strb	r4, [r3, r0]
  switch (Channel)
 8003662:	2a08      	cmp	r2, #8
 8003664:	d100      	bne.n	8003668 <HAL_TIM_PWM_ConfigChannel+0x18>
 8003666:	e0ac      	b.n	80037c2 <HAL_TIM_PWM_ConfigChannel+0x172>
 8003668:	d834      	bhi.n	80036d4 <HAL_TIM_PWM_ConfigChannel+0x84>
 800366a:	2a00      	cmp	r2, #0
 800366c:	d100      	bne.n	8003670 <HAL_TIM_PWM_ConfigChannel+0x20>
 800366e:	e07d      	b.n	800376c <HAL_TIM_PWM_ConfigChannel+0x11c>
 8003670:	2a04      	cmp	r2, #4
 8003672:	d161      	bne.n	8003738 <HAL_TIM_PWM_ConfigChannel+0xe8>
  uint32_t tmpccmrx;
  uint32_t tmpccer;
  uint32_t tmpcr2;

  /* Disable the Channel 2: Reset the CC2E Bit */
  TIMx->CCER &= ~TIM_CCER_CC2E;
 8003674:	2410      	movs	r4, #16
      TIM_OC2_SetConfig(htim->Instance, sConfig);
 8003676:	681a      	ldr	r2, [r3, #0]
  /* Get the TIMx CCMR1 register value */
  tmpccmrx = TIMx->CCMR1;

  /* Reset the Output Compare mode and Capture/Compare selection Bits */
  tmpccmrx &= ~TIM_CCMR1_OC2M;
  tmpccmrx &= ~TIM_CCMR1_CC2S;
 8003678:	4d77      	ldr	r5, [pc, #476]	; (8003858 <HAL_TIM_PWM_ConfigChannel+0x208>)
  TIMx->CCER &= ~TIM_CCER_CC2E;
 800367a:	6a10      	ldr	r0, [r2, #32]
 800367c:	43a0      	bics	r0, r4
 800367e:	6210      	str	r0, [r2, #32]
  tmpccer = TIMx->CCER;
 8003680:	6a10      	ldr	r0, [r2, #32]
  tmpcr2 =  TIMx->CR2;
 8003682:	6856      	ldr	r6, [r2, #4]
  tmpccmrx = TIMx->CCMR1;
 8003684:	6994      	ldr	r4, [r2, #24]
  tmpccmrx &= ~TIM_CCMR1_CC2S;
 8003686:	402c      	ands	r4, r5

  /* Select the Output Compare Mode */
  tmpccmrx |= (OC_Config->OCMode << 8U);
 8003688:	680d      	ldr	r5, [r1, #0]
 800368a:	022d      	lsls	r5, r5, #8
 800368c:	4325      	orrs	r5, r4

  /* Reset the Output Polarity level */
  tmpccer &= ~TIM_CCER_CC2P;
 800368e:	2420      	movs	r4, #32
 8003690:	43a0      	bics	r0, r4
  /* Set the Output Compare Polarity */
  tmpccer |= (OC_Config->OCPolarity << 4U);
 8003692:	688c      	ldr	r4, [r1, #8]
 8003694:	0124      	lsls	r4, r4, #4
 8003696:	4304      	orrs	r4, r0

  if (IS_TIM_CCXN_INSTANCE(TIMx, TIM_CHANNEL_2))
 8003698:	4870      	ldr	r0, [pc, #448]	; (800385c <HAL_TIM_PWM_ConfigChannel+0x20c>)
 800369a:	4282      	cmp	r2, r0
 800369c:	d057      	beq.n	800374e <HAL_TIM_PWM_ConfigChannel+0xfe>
    /* Reset the Output N State */
    tmpccer &= ~TIM_CCER_CC2NE;

  }

  if (IS_TIM_BREAK_INSTANCE(TIMx))
 800369e:	4870      	ldr	r0, [pc, #448]	; (8003860 <HAL_TIM_PWM_ConfigChannel+0x210>)
 80036a0:	4282      	cmp	r2, r0
 80036a2:	d05b      	beq.n	800375c <HAL_TIM_PWM_ConfigChannel+0x10c>
 80036a4:	486f      	ldr	r0, [pc, #444]	; (8003864 <HAL_TIM_PWM_ConfigChannel+0x214>)
 80036a6:	4282      	cmp	r2, r0
 80036a8:	d058      	beq.n	800375c <HAL_TIM_PWM_ConfigChannel+0x10c>

  /* Write to TIMx CCMR1 */
  TIMx->CCMR1 = tmpccmrx;

  /* Set the Capture Compare Register value */
  TIMx->CCR2 = OC_Config->Pulse;
 80036aa:	6848      	ldr	r0, [r1, #4]
  TIMx->CR2 = tmpcr2;
 80036ac:	6056      	str	r6, [r2, #4]
  TIMx->CCMR1 = tmpccmrx;
 80036ae:	6195      	str	r5, [r2, #24]
  TIMx->CCR2 = OC_Config->Pulse;
 80036b0:	6390      	str	r0, [r2, #56]	; 0x38
      htim->Instance->CCMR1 |= TIM_CCMR1_OC2PE;
 80036b2:	2080      	movs	r0, #128	; 0x80

  /* Write to TIMx CCER */
  TIMx->CCER = tmpccer;
 80036b4:	6214      	str	r4, [r2, #32]
      htim->Instance->CCMR1 |= TIM_CCMR1_OC2PE;
 80036b6:	6994      	ldr	r4, [r2, #24]
 80036b8:	0100      	lsls	r0, r0, #4
 80036ba:	4320      	orrs	r0, r4
 80036bc:	6190      	str	r0, [r2, #24]
      htim->Instance->CCMR1 &= ~TIM_CCMR1_OC2FE;
 80036be:	6990      	ldr	r0, [r2, #24]
 80036c0:	4c69      	ldr	r4, [pc, #420]	; (8003868 <HAL_TIM_PWM_ConfigChannel+0x218>)
      htim->Instance->CCMR1 |= sConfig->OCFastMode << 8U;
 80036c2:	6909      	ldr	r1, [r1, #16]
      htim->Instance->CCMR1 &= ~TIM_CCMR1_OC2FE;
 80036c4:	4020      	ands	r0, r4
 80036c6:	6190      	str	r0, [r2, #24]
      htim->Instance->CCMR1 |= sConfig->OCFastMode << 8U;
 80036c8:	6990      	ldr	r0, [r2, #24]
 80036ca:	0209      	lsls	r1, r1, #8
 80036cc:	4301      	orrs	r1, r0
 80036ce:	6191      	str	r1, [r2, #24]
  HAL_StatusTypeDef status = HAL_OK;
 80036d0:	2000      	movs	r0, #0
      break;
 80036d2:	e032      	b.n	800373a <HAL_TIM_PWM_ConfigChannel+0xea>
  switch (Channel)
 80036d4:	2a0c      	cmp	r2, #12
 80036d6:	d12f      	bne.n	8003738 <HAL_TIM_PWM_ConfigChannel+0xe8>
      TIM_OC4_SetConfig(htim->Instance, sConfig);
 80036d8:	681a      	ldr	r2, [r3, #0]
  uint32_t tmpccmrx;
  uint32_t tmpccer;
  uint32_t tmpcr2;

  /* Disable the Channel 4: Reset the CC4E Bit */
  TIMx->CCER &= ~TIM_CCER_CC4E;
 80036da:	4c64      	ldr	r4, [pc, #400]	; (800386c <HAL_TIM_PWM_ConfigChannel+0x21c>)
 80036dc:	6a10      	ldr	r0, [r2, #32]
  /* Get the TIMx CCMR2 register value */
  tmpccmrx = TIMx->CCMR2;

  /* Reset the Output Compare mode and Capture/Compare selection Bits */
  tmpccmrx &= ~TIM_CCMR2_OC4M;
  tmpccmrx &= ~TIM_CCMR2_CC4S;
 80036de:	4d5e      	ldr	r5, [pc, #376]	; (8003858 <HAL_TIM_PWM_ConfigChannel+0x208>)
  TIMx->CCER &= ~TIM_CCER_CC4E;
 80036e0:	4020      	ands	r0, r4
 80036e2:	6210      	str	r0, [r2, #32]
  tmpccer = TIMx->CCER;
 80036e4:	6a14      	ldr	r4, [r2, #32]
  tmpcr2 =  TIMx->CR2;
 80036e6:	6856      	ldr	r6, [r2, #4]
  tmpccmrx = TIMx->CCMR2;
 80036e8:	69d0      	ldr	r0, [r2, #28]
  tmpccmrx &= ~TIM_CCMR2_CC4S;
 80036ea:	4028      	ands	r0, r5

  /* Select the Output Compare Mode */
  tmpccmrx |= (OC_Config->OCMode << 8U);
 80036ec:	680d      	ldr	r5, [r1, #0]
 80036ee:	022d      	lsls	r5, r5, #8
 80036f0:	4305      	orrs	r5, r0

  /* Reset the Output Polarity level */
  tmpccer &= ~TIM_CCER_CC4P;
 80036f2:	485f      	ldr	r0, [pc, #380]	; (8003870 <HAL_TIM_PWM_ConfigChannel+0x220>)
 80036f4:	4004      	ands	r4, r0
  /* Set the Output Compare Polarity */
  tmpccer |= (OC_Config->OCPolarity << 12U);
 80036f6:	6888      	ldr	r0, [r1, #8]
 80036f8:	0300      	lsls	r0, r0, #12
 80036fa:	4320      	orrs	r0, r4

  if (IS_TIM_BREAK_INSTANCE(TIMx))
 80036fc:	4c57      	ldr	r4, [pc, #348]	; (800385c <HAL_TIM_PWM_ConfigChannel+0x20c>)
 80036fe:	42a2      	cmp	r2, r4
 8003700:	d01f      	beq.n	8003742 <HAL_TIM_PWM_ConfigChannel+0xf2>
 8003702:	4c57      	ldr	r4, [pc, #348]	; (8003860 <HAL_TIM_PWM_ConfigChannel+0x210>)
 8003704:	42a2      	cmp	r2, r4
 8003706:	d01c      	beq.n	8003742 <HAL_TIM_PWM_ConfigChannel+0xf2>
 8003708:	4c56      	ldr	r4, [pc, #344]	; (8003864 <HAL_TIM_PWM_ConfigChannel+0x214>)
 800370a:	42a2      	cmp	r2, r4
 800370c:	d019      	beq.n	8003742 <HAL_TIM_PWM_ConfigChannel+0xf2>

  /* Write to TIMx CCMR2 */
  TIMx->CCMR2 = tmpccmrx;

  /* Set the Capture Compare Register value */
  TIMx->CCR4 = OC_Config->Pulse;
 800370e:	684c      	ldr	r4, [r1, #4]
  TIMx->CR2 = tmpcr2;
 8003710:	6056      	str	r6, [r2, #4]
  TIMx->CCMR2 = tmpccmrx;
 8003712:	61d5      	str	r5, [r2, #28]
  TIMx->CCR4 = OC_Config->Pulse;
 8003714:	6414      	str	r4, [r2, #64]	; 0x40

  /* Write to TIMx CCER */
  TIMx->CCER = tmpccer;
 8003716:	6210      	str	r0, [r2, #32]
      htim->Instance->CCMR2 |= TIM_CCMR2_OC4PE;
 8003718:	2080      	movs	r0, #128	; 0x80
 800371a:	69d4      	ldr	r4, [r2, #28]
 800371c:	0100      	lsls	r0, r0, #4
 800371e:	4320      	orrs	r0, r4
 8003720:	61d0      	str	r0, [r2, #28]
      htim->Instance->CCMR2 &= ~TIM_CCMR2_OC4FE;
 8003722:	69d0      	ldr	r0, [r2, #28]
 8003724:	4c50      	ldr	r4, [pc, #320]	; (8003868 <HAL_TIM_PWM_ConfigChannel+0x218>)
      htim->Instance->CCMR2 |= sConfig->OCFastMode << 8U;
 8003726:	6909      	ldr	r1, [r1, #16]
      htim->Instance->CCMR2 &= ~TIM_CCMR2_OC4FE;
 8003728:	4020      	ands	r0, r4
 800372a:	61d0      	str	r0, [r2, #28]
      htim->Instance->CCMR2 |= sConfig->OCFastMode << 8U;
 800372c:	69d0      	ldr	r0, [r2, #28]
 800372e:	0209      	lsls	r1, r1, #8
 8003730:	4301      	orrs	r1, r0
 8003732:	61d1      	str	r1, [r2, #28]
  HAL_StatusTypeDef status = HAL_OK;
 8003734:	2000      	movs	r0, #0
      break;
 8003736:	e000      	b.n	800373a <HAL_TIM_PWM_ConfigChannel+0xea>
  switch (Channel)
 8003738:	2001      	movs	r0, #1
  __HAL_UNLOCK(htim);
 800373a:	223c      	movs	r2, #60	; 0x3c
 800373c:	2100      	movs	r1, #0
 800373e:	5499      	strb	r1, [r3, r2]
}
 8003740:	bdf0      	pop	{r4, r5, r6, r7, pc}
    tmpcr2 &= ~TIM_CR2_OIS4;
 8003742:	4c4c      	ldr	r4, [pc, #304]	; (8003874 <HAL_TIM_PWM_ConfigChannel+0x224>)
 8003744:	4034      	ands	r4, r6
    tmpcr2 |= (OC_Config->OCIdleState << 6U);
 8003746:	694e      	ldr	r6, [r1, #20]
 8003748:	01b6      	lsls	r6, r6, #6
 800374a:	4326      	orrs	r6, r4
 800374c:	e7df      	b.n	800370e <HAL_TIM_PWM_ConfigChannel+0xbe>
    tmpccer &= ~TIM_CCER_CC2NP;
 800374e:	2080      	movs	r0, #128	; 0x80
 8003750:	4384      	bics	r4, r0
    tmpccer |= (OC_Config->OCNPolarity << 4U);
 8003752:	68c8      	ldr	r0, [r1, #12]
 8003754:	0100      	lsls	r0, r0, #4
 8003756:	4304      	orrs	r4, r0
    tmpccer &= ~TIM_CCER_CC2NE;
 8003758:	2040      	movs	r0, #64	; 0x40
 800375a:	4384      	bics	r4, r0
    tmpcr2 &= ~TIM_CR2_OIS2N;
 800375c:	4846      	ldr	r0, [pc, #280]	; (8003878 <HAL_TIM_PWM_ConfigChannel+0x228>)
    tmpcr2 |= (OC_Config->OCIdleState << 2U);
 800375e:	694f      	ldr	r7, [r1, #20]
    tmpcr2 &= ~TIM_CR2_OIS2N;
 8003760:	4030      	ands	r0, r6
    tmpcr2 |= (OC_Config->OCNIdleState << 2U);
 8003762:	698e      	ldr	r6, [r1, #24]
 8003764:	433e      	orrs	r6, r7
 8003766:	00b6      	lsls	r6, r6, #2
 8003768:	4306      	orrs	r6, r0
 800376a:	e79e      	b.n	80036aa <HAL_TIM_PWM_ConfigChannel+0x5a>
  tmpccmrx &= ~TIM_CCMR1_CC1S;
 800376c:	2673      	movs	r6, #115	; 0x73
      TIM_OC1_SetConfig(htim->Instance, sConfig);
 800376e:	681a      	ldr	r2, [r3, #0]
  TIMx->CCER &= ~TIM_CCER_CC1E;
 8003770:	6a10      	ldr	r0, [r2, #32]
 8003772:	43a0      	bics	r0, r4
 8003774:	6210      	str	r0, [r2, #32]
  tmpccer = TIMx->CCER;
 8003776:	6a10      	ldr	r0, [r2, #32]
  tmpcr2 =  TIMx->CR2;
 8003778:	6855      	ldr	r5, [r2, #4]
  tmpccmrx = TIMx->CCMR1;
 800377a:	6994      	ldr	r4, [r2, #24]
  tmpccmrx &= ~TIM_CCMR1_CC1S;
 800377c:	43b4      	bics	r4, r6
  tmpccmrx |= OC_Config->OCMode;
 800377e:	680e      	ldr	r6, [r1, #0]
 8003780:	4334      	orrs	r4, r6
  tmpccer &= ~TIM_CCER_CC1P;
 8003782:	2602      	movs	r6, #2
 8003784:	43b0      	bics	r0, r6
  tmpccer |= OC_Config->OCPolarity;
 8003786:	688e      	ldr	r6, [r1, #8]
 8003788:	4330      	orrs	r0, r6
  if (IS_TIM_CCXN_INSTANCE(TIMx, TIM_CHANNEL_1))
 800378a:	4e34      	ldr	r6, [pc, #208]	; (800385c <HAL_TIM_PWM_ConfigChannel+0x20c>)
 800378c:	42b2      	cmp	r2, r6
 800378e:	d047      	beq.n	8003820 <HAL_TIM_PWM_ConfigChannel+0x1d0>
 8003790:	4e33      	ldr	r6, [pc, #204]	; (8003860 <HAL_TIM_PWM_ConfigChannel+0x210>)
 8003792:	42b2      	cmp	r2, r6
 8003794:	d044      	beq.n	8003820 <HAL_TIM_PWM_ConfigChannel+0x1d0>
 8003796:	4e33      	ldr	r6, [pc, #204]	; (8003864 <HAL_TIM_PWM_ConfigChannel+0x214>)
 8003798:	42b2      	cmp	r2, r6
 800379a:	d041      	beq.n	8003820 <HAL_TIM_PWM_ConfigChannel+0x1d0>
  TIMx->CR2 = tmpcr2;
 800379c:	6055      	str	r5, [r2, #4]
  TIMx->CCMR1 = tmpccmrx;
 800379e:	6194      	str	r4, [r2, #24]
  TIMx->CCR1 = OC_Config->Pulse;
 80037a0:	684c      	ldr	r4, [r1, #4]
      htim->Instance->CCMR1 |= sConfig->OCFastMode;
 80037a2:	6909      	ldr	r1, [r1, #16]
  TIMx->CCR1 = OC_Config->Pulse;
 80037a4:	6354      	str	r4, [r2, #52]	; 0x34
      htim->Instance->CCMR1 |= TIM_CCMR1_OC1PE;
 80037a6:	2408      	movs	r4, #8
  TIMx->CCER = tmpccer;
 80037a8:	6210      	str	r0, [r2, #32]
      htim->Instance->CCMR1 |= TIM_CCMR1_OC1PE;
 80037aa:	6990      	ldr	r0, [r2, #24]
 80037ac:	4320      	orrs	r0, r4
 80037ae:	6190      	str	r0, [r2, #24]
      htim->Instance->CCMR1 &= ~TIM_CCMR1_OC1FE;
 80037b0:	6990      	ldr	r0, [r2, #24]
 80037b2:	3c04      	subs	r4, #4
 80037b4:	43a0      	bics	r0, r4
 80037b6:	6190      	str	r0, [r2, #24]
      htim->Instance->CCMR1 |= sConfig->OCFastMode;
 80037b8:	6990      	ldr	r0, [r2, #24]
 80037ba:	4301      	orrs	r1, r0
 80037bc:	6191      	str	r1, [r2, #24]
  HAL_StatusTypeDef status = HAL_OK;
 80037be:	2000      	movs	r0, #0
      break;
 80037c0:	e7bb      	b.n	800373a <HAL_TIM_PWM_ConfigChannel+0xea>
  tmpccmrx &= ~TIM_CCMR2_CC3S;
 80037c2:	2673      	movs	r6, #115	; 0x73
      TIM_OC3_SetConfig(htim->Instance, sConfig);
 80037c4:	681a      	ldr	r2, [r3, #0]
  TIMx->CCER &= ~TIM_CCER_CC3E;
 80037c6:	4c2d      	ldr	r4, [pc, #180]	; (800387c <HAL_TIM_PWM_ConfigChannel+0x22c>)
 80037c8:	6a10      	ldr	r0, [r2, #32]
 80037ca:	4020      	ands	r0, r4
 80037cc:	6210      	str	r0, [r2, #32]
  tmpccer = TIMx->CCER;
 80037ce:	6a10      	ldr	r0, [r2, #32]
  tmpcr2 =  TIMx->CR2;
 80037d0:	6855      	ldr	r5, [r2, #4]
  tmpccmrx = TIMx->CCMR2;
 80037d2:	69d4      	ldr	r4, [r2, #28]
  tmpccmrx &= ~TIM_CCMR2_CC3S;
 80037d4:	43b4      	bics	r4, r6
  tmpccmrx |= OC_Config->OCMode;
 80037d6:	680e      	ldr	r6, [r1, #0]
 80037d8:	4326      	orrs	r6, r4
  tmpccer &= ~TIM_CCER_CC3P;
 80037da:	4c29      	ldr	r4, [pc, #164]	; (8003880 <HAL_TIM_PWM_ConfigChannel+0x230>)
 80037dc:	4020      	ands	r0, r4
  tmpccer |= (OC_Config->OCPolarity << 8U);
 80037de:	688c      	ldr	r4, [r1, #8]
 80037e0:	0224      	lsls	r4, r4, #8
 80037e2:	4320      	orrs	r0, r4
  if (IS_TIM_CCXN_INSTANCE(TIMx, TIM_CHANNEL_3))
 80037e4:	4c1d      	ldr	r4, [pc, #116]	; (800385c <HAL_TIM_PWM_ConfigChannel+0x20c>)
 80037e6:	42a2      	cmp	r2, r4
 80037e8:	d027      	beq.n	800383a <HAL_TIM_PWM_ConfigChannel+0x1ea>
  if (IS_TIM_BREAK_INSTANCE(TIMx))
 80037ea:	4c1d      	ldr	r4, [pc, #116]	; (8003860 <HAL_TIM_PWM_ConfigChannel+0x210>)
 80037ec:	42a2      	cmp	r2, r4
 80037ee:	d02b      	beq.n	8003848 <HAL_TIM_PWM_ConfigChannel+0x1f8>
 80037f0:	4c1c      	ldr	r4, [pc, #112]	; (8003864 <HAL_TIM_PWM_ConfigChannel+0x214>)
 80037f2:	42a2      	cmp	r2, r4
 80037f4:	d028      	beq.n	8003848 <HAL_TIM_PWM_ConfigChannel+0x1f8>
  TIMx->CCR3 = OC_Config->Pulse;
 80037f6:	684c      	ldr	r4, [r1, #4]
  TIMx->CR2 = tmpcr2;
 80037f8:	6055      	str	r5, [r2, #4]
  TIMx->CCMR2 = tmpccmrx;
 80037fa:	61d6      	str	r6, [r2, #28]
  TIMx->CCR3 = OC_Config->Pulse;
 80037fc:	63d4      	str	r4, [r2, #60]	; 0x3c
      htim->Instance->CCMR2 |= TIM_CCMR2_OC3PE;
 80037fe:	2408      	movs	r4, #8
  TIMx->CCER = tmpccer;
 8003800:	6210      	str	r0, [r2, #32]
      htim->Instance->CCMR2 |= TIM_CCMR2_OC3PE;
 8003802:	69d0      	ldr	r0, [r2, #28]
      htim->Instance->CCMR2 |= sConfig->OCFastMode;
 8003804:	6909      	ldr	r1, [r1, #16]
      htim->Instance->CCMR2 |= TIM_CCMR2_OC3PE;
 8003806:	4320      	orrs	r0, r4
 8003808:	61d0      	str	r0, [r2, #28]
      htim->Instance->CCMR2 &= ~TIM_CCMR2_OC3FE;
 800380a:	69d0      	ldr	r0, [r2, #28]
 800380c:	3c04      	subs	r4, #4
 800380e:	43a0      	bics	r0, r4
 8003810:	61d0      	str	r0, [r2, #28]
      htim->Instance->CCMR2 |= sConfig->OCFastMode;
 8003812:	69d0      	ldr	r0, [r2, #28]
 8003814:	4301      	orrs	r1, r0
 8003816:	61d1      	str	r1, [r2, #28]
  HAL_StatusTypeDef status = HAL_OK;
 8003818:	2000      	movs	r0, #0
      break;
 800381a:	e78e      	b.n	800373a <HAL_TIM_PWM_ConfigChannel+0xea>
  __HAL_LOCK(htim);
 800381c:	2002      	movs	r0, #2
 800381e:	e78f      	b.n	8003740 <HAL_TIM_PWM_ConfigChannel+0xf0>
    tmpccer &= ~TIM_CCER_CC1NP;
 8003820:	2608      	movs	r6, #8
 8003822:	43b0      	bics	r0, r6
    tmpccer |= OC_Config->OCNPolarity;
 8003824:	68ce      	ldr	r6, [r1, #12]
    tmpcr2 |= OC_Config->OCNIdleState;
 8003826:	698f      	ldr	r7, [r1, #24]
    tmpccer |= OC_Config->OCNPolarity;
 8003828:	4330      	orrs	r0, r6
    tmpccer &= ~TIM_CCER_CC1NE;
 800382a:	2604      	movs	r6, #4
 800382c:	43b0      	bics	r0, r6
    tmpcr2 &= ~TIM_CR2_OIS1N;
 800382e:	4e15      	ldr	r6, [pc, #84]	; (8003884 <HAL_TIM_PWM_ConfigChannel+0x234>)
 8003830:	402e      	ands	r6, r5
    tmpcr2 |= OC_Config->OCNIdleState;
 8003832:	694d      	ldr	r5, [r1, #20]
 8003834:	433d      	orrs	r5, r7
 8003836:	4335      	orrs	r5, r6
 8003838:	e7b0      	b.n	800379c <HAL_TIM_PWM_ConfigChannel+0x14c>
    tmpccer &= ~TIM_CCER_CC3NP;
 800383a:	4c13      	ldr	r4, [pc, #76]	; (8003888 <HAL_TIM_PWM_ConfigChannel+0x238>)
 800383c:	4020      	ands	r0, r4
    tmpccer |= (OC_Config->OCNPolarity << 8U);
 800383e:	68cc      	ldr	r4, [r1, #12]
 8003840:	0224      	lsls	r4, r4, #8
 8003842:	4304      	orrs	r4, r0
    tmpccer &= ~TIM_CCER_CC3NE;
 8003844:	4808      	ldr	r0, [pc, #32]	; (8003868 <HAL_TIM_PWM_ConfigChannel+0x218>)
 8003846:	4020      	ands	r0, r4
    tmpcr2 &= ~TIM_CR2_OIS3N;
 8003848:	4c10      	ldr	r4, [pc, #64]	; (800388c <HAL_TIM_PWM_ConfigChannel+0x23c>)
    tmpcr2 |= (OC_Config->OCIdleState << 4U);
 800384a:	694f      	ldr	r7, [r1, #20]
    tmpcr2 &= ~TIM_CR2_OIS3N;
 800384c:	402c      	ands	r4, r5
    tmpcr2 |= (OC_Config->OCNIdleState << 4U);
 800384e:	698d      	ldr	r5, [r1, #24]
 8003850:	433d      	orrs	r5, r7
 8003852:	012d      	lsls	r5, r5, #4
 8003854:	4325      	orrs	r5, r4
 8003856:	e7ce      	b.n	80037f6 <HAL_TIM_PWM_ConfigChannel+0x1a6>
 8003858:	ffff8cff 	.word	0xffff8cff
 800385c:	40012c00 	.word	0x40012c00
 8003860:	40014400 	.word	0x40014400
 8003864:	40014800 	.word	0x40014800
 8003868:	fffffbff 	.word	0xfffffbff
 800386c:	ffffefff 	.word	0xffffefff
 8003870:	ffffdfff 	.word	0xffffdfff
 8003874:	ffffbfff 	.word	0xffffbfff
 8003878:	fffff3ff 	.word	0xfffff3ff
 800387c:	fffffeff 	.word	0xfffffeff
 8003880:	fffffdff 	.word	0xfffffdff
 8003884:	fffffcff 	.word	0xfffffcff
 8003888:	fffff7ff 	.word	0xfffff7ff
 800388c:	ffffcfff 	.word	0xffffcfff

08003890 <HAL_TIM_ConfigClockSource>:
  __HAL_LOCK(htim);
 8003890:	233c      	movs	r3, #60	; 0x3c
{
 8003892:	b570      	push	{r4, r5, r6, lr}
 8003894:	0002      	movs	r2, r0
  __HAL_LOCK(htim);
 8003896:	5cc0      	ldrb	r0, [r0, r3]
 8003898:	2801      	cmp	r0, #1
 800389a:	d100      	bne.n	800389e <HAL_TIM_ConfigClockSource+0xe>
 800389c:	e075      	b.n	800398a <HAL_TIM_ConfigClockSource+0xfa>
 800389e:	2401      	movs	r4, #1
  htim->State = HAL_TIM_STATE_BUSY;
 80038a0:	2002      	movs	r0, #2
  __HAL_LOCK(htim);
 80038a2:	54d4      	strb	r4, [r2, r3]
  htim->State = HAL_TIM_STATE_BUSY;
 80038a4:	3301      	adds	r3, #1
 80038a6:	54d0      	strb	r0, [r2, r3]
  tmpsmcr = htim->Instance->SMCR;
 80038a8:	6810      	ldr	r0, [r2, #0]
  tmpsmcr &= ~(TIM_SMCR_ETF | TIM_SMCR_ETPS | TIM_SMCR_ECE | TIM_SMCR_ETP);
 80038aa:	4d52      	ldr	r5, [pc, #328]	; (80039f4 <HAL_TIM_ConfigClockSource+0x164>)
  tmpsmcr = htim->Instance->SMCR;
 80038ac:	6883      	ldr	r3, [r0, #8]
  tmpsmcr &= ~(TIM_SMCR_ETF | TIM_SMCR_ETPS | TIM_SMCR_ECE | TIM_SMCR_ETP);
 80038ae:	402b      	ands	r3, r5
  htim->Instance->SMCR = tmpsmcr;
 80038b0:	6083      	str	r3, [r0, #8]
  switch (sClockSourceConfig->ClockSource)
 80038b2:	680b      	ldr	r3, [r1, #0]
 80038b4:	2b60      	cmp	r3, #96	; 0x60
 80038b6:	d100      	bne.n	80038ba <HAL_TIM_ConfigClockSource+0x2a>
 80038b8:	e069      	b.n	800398e <HAL_TIM_ConfigClockSource+0xfe>
 80038ba:	d823      	bhi.n	8003904 <HAL_TIM_ConfigClockSource+0x74>
 80038bc:	2b40      	cmp	r3, #64	; 0x40
 80038be:	d100      	bne.n	80038c2 <HAL_TIM_ConfigClockSource+0x32>
 80038c0:	e07f      	b.n	80039c2 <HAL_TIM_ConfigClockSource+0x132>
 80038c2:	d952      	bls.n	800396a <HAL_TIM_ConfigClockSource+0xda>
 80038c4:	2b50      	cmp	r3, #80	; 0x50
 80038c6:	d13b      	bne.n	8003940 <HAL_TIM_ConfigClockSource+0xb0>
      TIM_TI1_ConfigInputStage(htim->Instance,
 80038c8:	684d      	ldr	r5, [r1, #4]
 80038ca:	68cb      	ldr	r3, [r1, #12]
{
  uint32_t tmpccmr1;
  uint32_t tmpccer;

  /* Disable the Channel 1: Reset the CC1E Bit */
  tmpccer = TIMx->CCER;
 80038cc:	6a01      	ldr	r1, [r0, #32]
  TIMx->CCER &= ~TIM_CCER_CC1E;
 80038ce:	6a06      	ldr	r6, [r0, #32]
  tmpccmr1 = TIMx->CCMR1;

  /* Set the filter */
  tmpccmr1 &= ~TIM_CCMR1_IC1F;
  tmpccmr1 |= (TIM_ICFilter << 4U);
 80038d0:	011b      	lsls	r3, r3, #4
  TIMx->CCER &= ~TIM_CCER_CC1E;
 80038d2:	43a6      	bics	r6, r4
 80038d4:	6206      	str	r6, [r0, #32]
  tmpccmr1 &= ~TIM_CCMR1_IC1F;
 80038d6:	26f0      	movs	r6, #240	; 0xf0
  tmpccmr1 = TIMx->CCMR1;
 80038d8:	6984      	ldr	r4, [r0, #24]
  tmpccmr1 &= ~TIM_CCMR1_IC1F;
 80038da:	43b4      	bics	r4, r6
  tmpccmr1 |= (TIM_ICFilter << 4U);
 80038dc:	4323      	orrs	r3, r4

  /* Select the Polarity and set the CC1E Bit */
  tmpccer &= ~(TIM_CCER_CC1P | TIM_CCER_CC1NP);
 80038de:	240a      	movs	r4, #10
 80038e0:	43a1      	bics	r1, r4
  tmpccer |= TIM_ICPolarity;
 80038e2:	4329      	orrs	r1, r5

  /* Write to TIMx CCMR1 and CCER registers */
  TIMx->CCMR1 = tmpccmr1;
 80038e4:	6183      	str	r3, [r0, #24]
  TIMx->CCER = tmpccer;
 80038e6:	6201      	str	r1, [r0, #32]
  uint32_t tmpsmcr;

  /* Get the TIMx SMCR register value */
  tmpsmcr = TIMx->SMCR;
  /* Reset the TS Bits */
  tmpsmcr &= ~TIM_SMCR_TS;
 80038e8:	2170      	movs	r1, #112	; 0x70
  tmpsmcr = TIMx->SMCR;
 80038ea:	6883      	ldr	r3, [r0, #8]
  tmpsmcr &= ~TIM_SMCR_TS;
 80038ec:	438b      	bics	r3, r1
  /* Set the Input Trigger source and the slave mode*/
  tmpsmcr |= (InputTriggerSource | TIM_SLAVEMODE_EXTERNAL1);
 80038ee:	3919      	subs	r1, #25
 80038f0:	430b      	orrs	r3, r1
  /* Write to TIMx SMCR */
  TIMx->SMCR = tmpsmcr;
 80038f2:	6083      	str	r3, [r0, #8]
  HAL_StatusTypeDef status = HAL_OK;
 80038f4:	2000      	movs	r0, #0
  htim->State = HAL_TIM_STATE_READY;
 80038f6:	233d      	movs	r3, #61	; 0x3d
 80038f8:	2101      	movs	r1, #1
 80038fa:	54d1      	strb	r1, [r2, r3]
  __HAL_UNLOCK(htim);
 80038fc:	2100      	movs	r1, #0
 80038fe:	3b01      	subs	r3, #1
 8003900:	54d1      	strb	r1, [r2, r3]
}
 8003902:	bd70      	pop	{r4, r5, r6, pc}
  switch (sClockSourceConfig->ClockSource)
 8003904:	2480      	movs	r4, #128	; 0x80
 8003906:	0164      	lsls	r4, r4, #5
 8003908:	42a3      	cmp	r3, r4
 800390a:	d03c      	beq.n	8003986 <HAL_TIM_ConfigClockSource+0xf6>
 800390c:	2480      	movs	r4, #128	; 0x80
 800390e:	01a4      	lsls	r4, r4, #6
 8003910:	42a3      	cmp	r3, r4
 8003912:	d117      	bne.n	8003944 <HAL_TIM_ConfigClockSource+0xb4>
void TIM_ETR_SetConfig(TIM_TypeDef *TIMx, uint32_t TIM_ExtTRGPrescaler,
                       uint32_t TIM_ExtTRGPolarity, uint32_t ExtTRGFilter)
{
  uint32_t tmpsmcr;

  tmpsmcr = TIMx->SMCR;
 8003914:	6884      	ldr	r4, [r0, #8]

  /* Reset the ETR Bits */
  tmpsmcr &= ~(TIM_SMCR_ETF | TIM_SMCR_ETPS | TIM_SMCR_ECE | TIM_SMCR_ETP);
 8003916:	4b38      	ldr	r3, [pc, #224]	; (80039f8 <HAL_TIM_ConfigClockSource+0x168>)

  /* Set the Prescaler, the Filter value and the Polarity */
  tmpsmcr |= (uint32_t)(TIM_ExtTRGPrescaler | (TIM_ExtTRGPolarity | (ExtTRGFilter << 8U)));
 8003918:	684d      	ldr	r5, [r1, #4]
  tmpsmcr &= ~(TIM_SMCR_ETF | TIM_SMCR_ETPS | TIM_SMCR_ECE | TIM_SMCR_ETP);
 800391a:	401c      	ands	r4, r3
  tmpsmcr |= (uint32_t)(TIM_ExtTRGPrescaler | (TIM_ExtTRGPolarity | (ExtTRGFilter << 8U)));
 800391c:	688b      	ldr	r3, [r1, #8]
 800391e:	68c9      	ldr	r1, [r1, #12]
 8003920:	432b      	orrs	r3, r5
 8003922:	0209      	lsls	r1, r1, #8
 8003924:	430b      	orrs	r3, r1
 8003926:	4323      	orrs	r3, r4

  /* Write to TIMx SMCR */
  TIMx->SMCR = tmpsmcr;
 8003928:	6083      	str	r3, [r0, #8]
      htim->Instance->SMCR |= TIM_SMCR_ECE;
 800392a:	2380      	movs	r3, #128	; 0x80
 800392c:	6881      	ldr	r1, [r0, #8]
 800392e:	01db      	lsls	r3, r3, #7
 8003930:	430b      	orrs	r3, r1
 8003932:	6083      	str	r3, [r0, #8]
  HAL_StatusTypeDef status = HAL_OK;
 8003934:	2000      	movs	r0, #0
      break;
 8003936:	e7de      	b.n	80038f6 <HAL_TIM_ConfigClockSource+0x66>
  switch (sClockSourceConfig->ClockSource)
 8003938:	2110      	movs	r1, #16
 800393a:	001c      	movs	r4, r3
 800393c:	438c      	bics	r4, r1
 800393e:	d019      	beq.n	8003974 <HAL_TIM_ConfigClockSource+0xe4>
 8003940:	2001      	movs	r0, #1
 8003942:	e7d8      	b.n	80038f6 <HAL_TIM_ConfigClockSource+0x66>
 8003944:	2b70      	cmp	r3, #112	; 0x70
 8003946:	d1fb      	bne.n	8003940 <HAL_TIM_ConfigClockSource+0xb0>
  tmpsmcr = TIMx->SMCR;
 8003948:	6884      	ldr	r4, [r0, #8]
  tmpsmcr &= ~(TIM_SMCR_ETF | TIM_SMCR_ETPS | TIM_SMCR_ECE | TIM_SMCR_ETP);
 800394a:	4b2b      	ldr	r3, [pc, #172]	; (80039f8 <HAL_TIM_ConfigClockSource+0x168>)
  tmpsmcr |= (uint32_t)(TIM_ExtTRGPrescaler | (TIM_ExtTRGPolarity | (ExtTRGFilter << 8U)));
 800394c:	684d      	ldr	r5, [r1, #4]
  tmpsmcr &= ~(TIM_SMCR_ETF | TIM_SMCR_ETPS | TIM_SMCR_ECE | TIM_SMCR_ETP);
 800394e:	401c      	ands	r4, r3
  tmpsmcr |= (uint32_t)(TIM_ExtTRGPrescaler | (TIM_ExtTRGPolarity | (ExtTRGFilter << 8U)));
 8003950:	688b      	ldr	r3, [r1, #8]
 8003952:	68c9      	ldr	r1, [r1, #12]
 8003954:	432b      	orrs	r3, r5
 8003956:	0209      	lsls	r1, r1, #8
 8003958:	430b      	orrs	r3, r1
      tmpsmcr |= (TIM_SLAVEMODE_EXTERNAL1 | TIM_CLOCKSOURCE_ETRMODE1);
 800395a:	2177      	movs	r1, #119	; 0x77
  tmpsmcr |= (uint32_t)(TIM_ExtTRGPrescaler | (TIM_ExtTRGPolarity | (ExtTRGFilter << 8U)));
 800395c:	4323      	orrs	r3, r4
  TIMx->SMCR = tmpsmcr;
 800395e:	6083      	str	r3, [r0, #8]
      tmpsmcr = htim->Instance->SMCR;
 8003960:	6883      	ldr	r3, [r0, #8]
      tmpsmcr |= (TIM_SLAVEMODE_EXTERNAL1 | TIM_CLOCKSOURCE_ETRMODE1);
 8003962:	430b      	orrs	r3, r1
      htim->Instance->SMCR = tmpsmcr;
 8003964:	6083      	str	r3, [r0, #8]
  HAL_StatusTypeDef status = HAL_OK;
 8003966:	2000      	movs	r0, #0
      break;
 8003968:	e7c5      	b.n	80038f6 <HAL_TIM_ConfigClockSource+0x66>
  switch (sClockSourceConfig->ClockSource)
 800396a:	2b20      	cmp	r3, #32
 800396c:	d002      	beq.n	8003974 <HAL_TIM_ConfigClockSource+0xe4>
 800396e:	d9e3      	bls.n	8003938 <HAL_TIM_ConfigClockSource+0xa8>
 8003970:	2b30      	cmp	r3, #48	; 0x30
 8003972:	d1e5      	bne.n	8003940 <HAL_TIM_ConfigClockSource+0xb0>
  tmpsmcr &= ~TIM_SMCR_TS;
 8003974:	2470      	movs	r4, #112	; 0x70
  tmpsmcr = TIMx->SMCR;
 8003976:	6881      	ldr	r1, [r0, #8]
  tmpsmcr &= ~TIM_SMCR_TS;
 8003978:	43a1      	bics	r1, r4
  tmpsmcr |= (InputTriggerSource | TIM_SLAVEMODE_EXTERNAL1);
 800397a:	430b      	orrs	r3, r1
 800397c:	2107      	movs	r1, #7
 800397e:	430b      	orrs	r3, r1
  TIMx->SMCR = tmpsmcr;
 8003980:	6083      	str	r3, [r0, #8]
  HAL_StatusTypeDef status = HAL_OK;
 8003982:	2000      	movs	r0, #0
}
 8003984:	e7b7      	b.n	80038f6 <HAL_TIM_ConfigClockSource+0x66>
  HAL_StatusTypeDef status = HAL_OK;
 8003986:	2000      	movs	r0, #0
 8003988:	e7b5      	b.n	80038f6 <HAL_TIM_ConfigClockSource+0x66>
  __HAL_LOCK(htim);
 800398a:	2002      	movs	r0, #2
 800398c:	e7b9      	b.n	8003902 <HAL_TIM_ConfigClockSource+0x72>
  TIMx->CCER &= ~TIM_CCER_CC2E;
 800398e:	2510      	movs	r5, #16
 8003990:	6a04      	ldr	r4, [r0, #32]
      TIM_TI2_ConfigInputStage(htim->Instance,
 8003992:	684b      	ldr	r3, [r1, #4]
  TIMx->CCER &= ~TIM_CCER_CC2E;
 8003994:	43ac      	bics	r4, r5
      TIM_TI2_ConfigInputStage(htim->Instance,
 8003996:	68c9      	ldr	r1, [r1, #12]
  TIMx->CCER &= ~TIM_CCER_CC2E;
 8003998:	6204      	str	r4, [r0, #32]
  tmpccmr1 = TIMx->CCMR1;
 800399a:	6985      	ldr	r5, [r0, #24]
  tmpccmr1 &= ~TIM_CCMR1_IC2F;
 800399c:	4e17      	ldr	r6, [pc, #92]	; (80039fc <HAL_TIM_ConfigClockSource+0x16c>)
  tmpccmr1 |= (TIM_ICFilter << 12U);
 800399e:	0309      	lsls	r1, r1, #12
  tmpccmr1 &= ~TIM_CCMR1_IC2F;
 80039a0:	4035      	ands	r5, r6
  tmpccmr1 |= (TIM_ICFilter << 12U);
 80039a2:	4329      	orrs	r1, r5
  tmpccer &= ~(TIM_CCER_CC2P | TIM_CCER_CC2NP);
 80039a4:	25a0      	movs	r5, #160	; 0xa0
  tmpccer = TIMx->CCER;
 80039a6:	6a04      	ldr	r4, [r0, #32]
  TIMx->CCMR1 = tmpccmr1 ;
 80039a8:	6181      	str	r1, [r0, #24]
  tmpsmcr &= ~TIM_SMCR_TS;
 80039aa:	2170      	movs	r1, #112	; 0x70
  tmpccer &= ~(TIM_CCER_CC2P | TIM_CCER_CC2NP);
 80039ac:	43ac      	bics	r4, r5
  tmpccer |= (TIM_ICPolarity << 4U);
 80039ae:	011b      	lsls	r3, r3, #4
 80039b0:	4323      	orrs	r3, r4
  TIMx->CCER = tmpccer;
 80039b2:	6203      	str	r3, [r0, #32]
  tmpsmcr = TIMx->SMCR;
 80039b4:	6883      	ldr	r3, [r0, #8]
  tmpsmcr &= ~TIM_SMCR_TS;
 80039b6:	438b      	bics	r3, r1
  tmpsmcr |= (InputTriggerSource | TIM_SLAVEMODE_EXTERNAL1);
 80039b8:	3909      	subs	r1, #9
 80039ba:	430b      	orrs	r3, r1
  TIMx->SMCR = tmpsmcr;
 80039bc:	6083      	str	r3, [r0, #8]
  HAL_StatusTypeDef status = HAL_OK;
 80039be:	2000      	movs	r0, #0
}
 80039c0:	e799      	b.n	80038f6 <HAL_TIM_ConfigClockSource+0x66>
      TIM_TI1_ConfigInputStage(htim->Instance,
 80039c2:	684d      	ldr	r5, [r1, #4]
 80039c4:	68cb      	ldr	r3, [r1, #12]
  tmpccer = TIMx->CCER;
 80039c6:	6a01      	ldr	r1, [r0, #32]
  TIMx->CCER &= ~TIM_CCER_CC1E;
 80039c8:	6a06      	ldr	r6, [r0, #32]
  tmpccmr1 |= (TIM_ICFilter << 4U);
 80039ca:	011b      	lsls	r3, r3, #4
  TIMx->CCER &= ~TIM_CCER_CC1E;
 80039cc:	43a6      	bics	r6, r4
 80039ce:	6206      	str	r6, [r0, #32]
  tmpccmr1 &= ~TIM_CCMR1_IC1F;
 80039d0:	26f0      	movs	r6, #240	; 0xf0
  tmpccmr1 = TIMx->CCMR1;
 80039d2:	6984      	ldr	r4, [r0, #24]
  tmpccmr1 &= ~TIM_CCMR1_IC1F;
 80039d4:	43b4      	bics	r4, r6
  tmpccmr1 |= (TIM_ICFilter << 4U);
 80039d6:	4323      	orrs	r3, r4
  tmpccer &= ~(TIM_CCER_CC1P | TIM_CCER_CC1NP);
 80039d8:	240a      	movs	r4, #10
 80039da:	43a1      	bics	r1, r4
  tmpccer |= TIM_ICPolarity;
 80039dc:	4329      	orrs	r1, r5
  TIMx->CCMR1 = tmpccmr1;
 80039de:	6183      	str	r3, [r0, #24]
  TIMx->CCER = tmpccer;
 80039e0:	6201      	str	r1, [r0, #32]
  tmpsmcr &= ~TIM_SMCR_TS;
 80039e2:	2170      	movs	r1, #112	; 0x70
  tmpsmcr = TIMx->SMCR;
 80039e4:	6883      	ldr	r3, [r0, #8]
  tmpsmcr &= ~TIM_SMCR_TS;
 80039e6:	438b      	bics	r3, r1
  tmpsmcr |= (InputTriggerSource | TIM_SLAVEMODE_EXTERNAL1);
 80039e8:	3929      	subs	r1, #41	; 0x29
 80039ea:	430b      	orrs	r3, r1
  TIMx->SMCR = tmpsmcr;
 80039ec:	6083      	str	r3, [r0, #8]
  HAL_StatusTypeDef status = HAL_OK;
 80039ee:	2000      	movs	r0, #0
}
 80039f0:	e781      	b.n	80038f6 <HAL_TIM_ConfigClockSource+0x66>
 80039f2:	46c0      	nop			; (mov r8, r8)
 80039f4:	ffff0088 	.word	0xffff0088
 80039f8:	ffff00ff 	.word	0xffff00ff
 80039fc:	ffff0fff 	.word	0xffff0fff

08003a00 <TIM_Base_SetConfig>:
  if (IS_TIM_COUNTER_MODE_SELECT_INSTANCE(TIMx))
 8003a00:	4a1e      	ldr	r2, [pc, #120]	; (8003a7c <TIM_Base_SetConfig+0x7c>)
  tmpcr1 = TIMx->CR1;
 8003a02:	6803      	ldr	r3, [r0, #0]
  if (IS_TIM_COUNTER_MODE_SELECT_INSTANCE(TIMx))
 8003a04:	4290      	cmp	r0, r2
 8003a06:	d033      	beq.n	8003a70 <TIM_Base_SetConfig+0x70>
 8003a08:	2280      	movs	r2, #128	; 0x80
 8003a0a:	05d2      	lsls	r2, r2, #23
 8003a0c:	4290      	cmp	r0, r2
 8003a0e:	d01b      	beq.n	8003a48 <TIM_Base_SetConfig+0x48>
 8003a10:	4a1b      	ldr	r2, [pc, #108]	; (8003a80 <TIM_Base_SetConfig+0x80>)
 8003a12:	4290      	cmp	r0, r2
 8003a14:	d018      	beq.n	8003a48 <TIM_Base_SetConfig+0x48>
  if (IS_TIM_CLOCK_DIVISION_INSTANCE(TIMx))
 8003a16:	4a1b      	ldr	r2, [pc, #108]	; (8003a84 <TIM_Base_SetConfig+0x84>)
 8003a18:	4290      	cmp	r0, r2
 8003a1a:	d019      	beq.n	8003a50 <TIM_Base_SetConfig+0x50>
 8003a1c:	4a1a      	ldr	r2, [pc, #104]	; (8003a88 <TIM_Base_SetConfig+0x88>)
 8003a1e:	4290      	cmp	r0, r2
 8003a20:	d002      	beq.n	8003a28 <TIM_Base_SetConfig+0x28>
 8003a22:	4a1a      	ldr	r2, [pc, #104]	; (8003a8c <TIM_Base_SetConfig+0x8c>)
 8003a24:	4290      	cmp	r0, r2
 8003a26:	d117      	bne.n	8003a58 <TIM_Base_SetConfig+0x58>
    tmpcr1 &= ~TIM_CR1_CKD;
 8003a28:	4a19      	ldr	r2, [pc, #100]	; (8003a90 <TIM_Base_SetConfig+0x90>)
 8003a2a:	4013      	ands	r3, r2
    tmpcr1 |= (uint32_t)Structure->ClockDivision;
 8003a2c:	68ca      	ldr	r2, [r1, #12]
 8003a2e:	4313      	orrs	r3, r2
  MODIFY_REG(tmpcr1, TIM_CR1_ARPE, Structure->AutoReloadPreload);
 8003a30:	2280      	movs	r2, #128	; 0x80
 8003a32:	4393      	bics	r3, r2
 8003a34:	694a      	ldr	r2, [r1, #20]
 8003a36:	4313      	orrs	r3, r2
  TIMx->CR1 = tmpcr1;
 8003a38:	6003      	str	r3, [r0, #0]
  TIMx->ARR = (uint32_t)Structure->Period ;
 8003a3a:	688b      	ldr	r3, [r1, #8]
 8003a3c:	62c3      	str	r3, [r0, #44]	; 0x2c
  TIMx->PSC = Structure->Prescaler;
 8003a3e:	680b      	ldr	r3, [r1, #0]
 8003a40:	6283      	str	r3, [r0, #40]	; 0x28
    TIMx->RCR = Structure->RepetitionCounter;
 8003a42:	690b      	ldr	r3, [r1, #16]
 8003a44:	6303      	str	r3, [r0, #48]	; 0x30
 8003a46:	e010      	b.n	8003a6a <TIM_Base_SetConfig+0x6a>
    tmpcr1 &= ~(TIM_CR1_DIR | TIM_CR1_CMS);
 8003a48:	2270      	movs	r2, #112	; 0x70
 8003a4a:	4393      	bics	r3, r2
    tmpcr1 |= Structure->CounterMode;
 8003a4c:	684a      	ldr	r2, [r1, #4]
 8003a4e:	4313      	orrs	r3, r2
    tmpcr1 &= ~TIM_CR1_CKD;
 8003a50:	4a0f      	ldr	r2, [pc, #60]	; (8003a90 <TIM_Base_SetConfig+0x90>)
 8003a52:	4013      	ands	r3, r2
    tmpcr1 |= (uint32_t)Structure->ClockDivision;
 8003a54:	68ca      	ldr	r2, [r1, #12]
 8003a56:	4313      	orrs	r3, r2
  MODIFY_REG(tmpcr1, TIM_CR1_ARPE, Structure->AutoReloadPreload);
 8003a58:	2280      	movs	r2, #128	; 0x80
 8003a5a:	4393      	bics	r3, r2
 8003a5c:	694a      	ldr	r2, [r1, #20]
 8003a5e:	4313      	orrs	r3, r2
  TIMx->CR1 = tmpcr1;
 8003a60:	6003      	str	r3, [r0, #0]
  TIMx->ARR = (uint32_t)Structure->Period ;
 8003a62:	688b      	ldr	r3, [r1, #8]
 8003a64:	62c3      	str	r3, [r0, #44]	; 0x2c
  TIMx->PSC = Structure->Prescaler;
 8003a66:	680b      	ldr	r3, [r1, #0]
 8003a68:	6283      	str	r3, [r0, #40]	; 0x28
  TIMx->EGR = TIM_EGR_UG;
 8003a6a:	2301      	movs	r3, #1
 8003a6c:	6143      	str	r3, [r0, #20]
}
 8003a6e:	4770      	bx	lr
    tmpcr1 &= ~(TIM_CR1_DIR | TIM_CR1_CMS);
 8003a70:	2270      	movs	r2, #112	; 0x70
 8003a72:	4393      	bics	r3, r2
    tmpcr1 |= Structure->CounterMode;
 8003a74:	684a      	ldr	r2, [r1, #4]
 8003a76:	4313      	orrs	r3, r2
    tmpcr1 &= ~TIM_CR1_CKD;
 8003a78:	e7d6      	b.n	8003a28 <TIM_Base_SetConfig+0x28>
 8003a7a:	46c0      	nop			; (mov r8, r8)
 8003a7c:	40012c00 	.word	0x40012c00
 8003a80:	40000400 	.word	0x40000400
 8003a84:	40002000 	.word	0x40002000
 8003a88:	40014400 	.word	0x40014400
 8003a8c:	40014800 	.word	0x40014800
 8003a90:	fffffcff 	.word	0xfffffcff

08003a94 <TIM_OC2_SetConfig>:
  TIMx->CCER &= ~TIM_CCER_CC2E;
 8003a94:	2210      	movs	r2, #16
 8003a96:	6a03      	ldr	r3, [r0, #32]
{
 8003a98:	b570      	push	{r4, r5, r6, lr}
  TIMx->CCER &= ~TIM_CCER_CC2E;
 8003a9a:	4393      	bics	r3, r2
 8003a9c:	6203      	str	r3, [r0, #32]
  tmpccer = TIMx->CCER;
 8003a9e:	6a04      	ldr	r4, [r0, #32]
  tmpccmrx &= ~TIM_CCMR1_CC2S;
 8003aa0:	4d15      	ldr	r5, [pc, #84]	; (8003af8 <TIM_OC2_SetConfig+0x64>)
  tmpcr2 =  TIMx->CR2;
 8003aa2:	6843      	ldr	r3, [r0, #4]
  tmpccmrx = TIMx->CCMR1;
 8003aa4:	6982      	ldr	r2, [r0, #24]
  tmpccmrx &= ~TIM_CCMR1_CC2S;
 8003aa6:	402a      	ands	r2, r5
  tmpccmrx |= (OC_Config->OCMode << 8U);
 8003aa8:	680d      	ldr	r5, [r1, #0]
 8003aaa:	022d      	lsls	r5, r5, #8
 8003aac:	4315      	orrs	r5, r2
  tmpccer &= ~TIM_CCER_CC2P;
 8003aae:	2220      	movs	r2, #32
 8003ab0:	4394      	bics	r4, r2
  tmpccer |= (OC_Config->OCPolarity << 4U);
 8003ab2:	688a      	ldr	r2, [r1, #8]
 8003ab4:	0112      	lsls	r2, r2, #4
 8003ab6:	4322      	orrs	r2, r4
  if (IS_TIM_CCXN_INSTANCE(TIMx, TIM_CHANNEL_2))
 8003ab8:	4c10      	ldr	r4, [pc, #64]	; (8003afc <TIM_OC2_SetConfig+0x68>)
 8003aba:	42a0      	cmp	r0, r4
 8003abc:	d012      	beq.n	8003ae4 <TIM_OC2_SetConfig+0x50>
  if (IS_TIM_BREAK_INSTANCE(TIMx))
 8003abe:	4c10      	ldr	r4, [pc, #64]	; (8003b00 <TIM_OC2_SetConfig+0x6c>)
 8003ac0:	42a0      	cmp	r0, r4
 8003ac2:	d002      	beq.n	8003aca <TIM_OC2_SetConfig+0x36>
 8003ac4:	4c0f      	ldr	r4, [pc, #60]	; (8003b04 <TIM_OC2_SetConfig+0x70>)
 8003ac6:	42a0      	cmp	r0, r4
 8003ac8:	d106      	bne.n	8003ad8 <TIM_OC2_SetConfig+0x44>
    tmpcr2 &= ~TIM_CR2_OIS2N;
 8003aca:	4c0f      	ldr	r4, [pc, #60]	; (8003b08 <TIM_OC2_SetConfig+0x74>)
    tmpcr2 |= (OC_Config->OCIdleState << 2U);
 8003acc:	694e      	ldr	r6, [r1, #20]
    tmpcr2 &= ~TIM_CR2_OIS2N;
 8003ace:	401c      	ands	r4, r3
    tmpcr2 |= (OC_Config->OCNIdleState << 2U);
 8003ad0:	698b      	ldr	r3, [r1, #24]
 8003ad2:	4333      	orrs	r3, r6
 8003ad4:	009b      	lsls	r3, r3, #2
 8003ad6:	4323      	orrs	r3, r4
  TIMx->CR2 = tmpcr2;
 8003ad8:	6043      	str	r3, [r0, #4]
  TIMx->CCR2 = OC_Config->Pulse;
 8003ada:	684b      	ldr	r3, [r1, #4]
  TIMx->CCMR1 = tmpccmrx;
 8003adc:	6185      	str	r5, [r0, #24]
  TIMx->CCR2 = OC_Config->Pulse;
 8003ade:	6383      	str	r3, [r0, #56]	; 0x38
  TIMx->CCER = tmpccer;
 8003ae0:	6202      	str	r2, [r0, #32]
}
 8003ae2:	bd70      	pop	{r4, r5, r6, pc}
    tmpccer &= ~TIM_CCER_CC2NP;
 8003ae4:	2480      	movs	r4, #128	; 0x80
 8003ae6:	43a2      	bics	r2, r4
 8003ae8:	0016      	movs	r6, r2
    tmpccer |= (OC_Config->OCNPolarity << 4U);
 8003aea:	68ca      	ldr	r2, [r1, #12]
    tmpccer &= ~TIM_CCER_CC2NE;
 8003aec:	3c40      	subs	r4, #64	; 0x40
    tmpccer |= (OC_Config->OCNPolarity << 4U);
 8003aee:	0112      	lsls	r2, r2, #4
 8003af0:	4332      	orrs	r2, r6
    tmpccer &= ~TIM_CCER_CC2NE;
 8003af2:	43a2      	bics	r2, r4
  if (IS_TIM_BREAK_INSTANCE(TIMx))
 8003af4:	e7e9      	b.n	8003aca <TIM_OC2_SetConfig+0x36>
 8003af6:	46c0      	nop			; (mov r8, r8)
 8003af8:	ffff8cff 	.word	0xffff8cff
 8003afc:	40012c00 	.word	0x40012c00
 8003b00:	40014400 	.word	0x40014400
 8003b04:	40014800 	.word	0x40014800
 8003b08:	fffff3ff 	.word	0xfffff3ff

08003b0c <TIM_TI1_SetConfig>:
{
 8003b0c:	b5f0      	push	{r4, r5, r6, r7, lr}
  TIMx->CCER &= ~TIM_CCER_CC1E;
 8003b0e:	2501      	movs	r5, #1
 8003b10:	6a04      	ldr	r4, [r0, #32]
  if (IS_TIM_CC2_INSTANCE(TIMx) != RESET)
 8003b12:	4e10      	ldr	r6, [pc, #64]	; (8003b54 <TIM_TI1_SetConfig+0x48>)
  TIMx->CCER &= ~TIM_CCER_CC1E;
 8003b14:	43ac      	bics	r4, r5
 8003b16:	6204      	str	r4, [r0, #32]
{
 8003b18:	0017      	movs	r7, r2
  tmpccmr1 = TIMx->CCMR1;
 8003b1a:	6982      	ldr	r2, [r0, #24]
  tmpccer = TIMx->CCER;
 8003b1c:	6a04      	ldr	r4, [r0, #32]
  if (IS_TIM_CC2_INSTANCE(TIMx) != RESET)
 8003b1e:	42b0      	cmp	r0, r6
 8003b20:	d008      	beq.n	8003b34 <TIM_TI1_SetConfig+0x28>
 8003b22:	2680      	movs	r6, #128	; 0x80
 8003b24:	05f6      	lsls	r6, r6, #23
 8003b26:	42b0      	cmp	r0, r6
 8003b28:	d004      	beq.n	8003b34 <TIM_TI1_SetConfig+0x28>
 8003b2a:	4e0b      	ldr	r6, [pc, #44]	; (8003b58 <TIM_TI1_SetConfig+0x4c>)
 8003b2c:	42b0      	cmp	r0, r6
 8003b2e:	d001      	beq.n	8003b34 <TIM_TI1_SetConfig+0x28>
    tmpccmr1 |= TIM_CCMR1_CC1S_0;
 8003b30:	432a      	orrs	r2, r5
 8003b32:	e002      	b.n	8003b3a <TIM_TI1_SetConfig+0x2e>
    tmpccmr1 &= ~TIM_CCMR1_CC1S;
 8003b34:	2503      	movs	r5, #3
 8003b36:	43aa      	bics	r2, r5
    tmpccmr1 |= TIM_ICSelection;
 8003b38:	433a      	orrs	r2, r7
  tmpccmr1 &= ~TIM_CCMR1_IC1F;
 8003b3a:	25f0      	movs	r5, #240	; 0xf0
 8003b3c:	43aa      	bics	r2, r5
  tmpccmr1 |= ((TIM_ICFilter << 4U) & TIM_CCMR1_IC1F);
 8003b3e:	011d      	lsls	r5, r3, #4
 8003b40:	23ff      	movs	r3, #255	; 0xff
 8003b42:	402b      	ands	r3, r5
 8003b44:	4313      	orrs	r3, r2
  tmpccer &= ~(TIM_CCER_CC1P | TIM_CCER_CC1NP);
 8003b46:	220a      	movs	r2, #10
 8003b48:	4394      	bics	r4, r2
  tmpccer |= (TIM_ICPolarity & (TIM_CCER_CC1P | TIM_CCER_CC1NP));
 8003b4a:	400a      	ands	r2, r1
 8003b4c:	4322      	orrs	r2, r4
  TIMx->CCMR1 = tmpccmr1;
 8003b4e:	6183      	str	r3, [r0, #24]
  TIMx->CCER = tmpccer;
 8003b50:	6202      	str	r2, [r0, #32]
}
 8003b52:	bdf0      	pop	{r4, r5, r6, r7, pc}
 8003b54:	40012c00 	.word	0x40012c00
 8003b58:	40000400 	.word	0x40000400

08003b5c <HAL_TIMEx_HallSensor_MspInit>:
  UNUSED(htim);

  /* NOTE : This function should not be modified, when the callback is needed,
            the HAL_TIMEx_HallSensor_MspInit could be implemented in the user file
   */
}
 8003b5c:	4770      	bx	lr
 8003b5e:	46c0      	nop			; (mov r8, r8)

08003b60 <HAL_TIMEx_HallSensor_Init>:
{
 8003b60:	b5f0      	push	{r4, r5, r6, r7, lr}
 8003b62:	0004      	movs	r4, r0
 8003b64:	000d      	movs	r5, r1
 8003b66:	b089      	sub	sp, #36	; 0x24
  if (htim == NULL)
 8003b68:	2800      	cmp	r0, #0
 8003b6a:	d056      	beq.n	8003c1a <HAL_TIMEx_HallSensor_Init+0xba>
  if (htim->State == HAL_TIM_STATE_RESET)
 8003b6c:	233d      	movs	r3, #61	; 0x3d
 8003b6e:	5cc3      	ldrb	r3, [r0, r3]
 8003b70:	b2da      	uxtb	r2, r3
 8003b72:	2b00      	cmp	r3, #0
 8003b74:	d04c      	beq.n	8003c10 <HAL_TIMEx_HallSensor_Init+0xb0>
  htim->State = HAL_TIM_STATE_BUSY;
 8003b76:	2302      	movs	r3, #2
 8003b78:	263d      	movs	r6, #61	; 0x3d
  TIM_Base_SetConfig(htim->Instance, &htim->Init);
 8003b7a:	0021      	movs	r1, r4
  htim->State = HAL_TIM_STATE_BUSY;
 8003b7c:	55a3      	strb	r3, [r4, r6]
  TIM_Base_SetConfig(htim->Instance, &htim->Init);
 8003b7e:	c901      	ldmia	r1!, {r0}
 8003b80:	f7ff ff3e 	bl	8003a00 <TIM_Base_SetConfig>
  TIM_TI1_SetConfig(htim->Instance, sConfig->IC1Polarity, TIM_ICSELECTION_TRC, sConfig->IC1Filter);
 8003b84:	2203      	movs	r2, #3
 8003b86:	68ab      	ldr	r3, [r5, #8]
 8003b88:	6829      	ldr	r1, [r5, #0]
 8003b8a:	6820      	ldr	r0, [r4, #0]
 8003b8c:	f7ff ffbe 	bl	8003b0c <TIM_TI1_SetConfig>
  htim->Instance->CCMR1 &= ~TIM_CCMR1_IC1PSC;
 8003b90:	220c      	movs	r2, #12
 8003b92:	6820      	ldr	r0, [r4, #0]
  htim->Instance->SMCR &= ~TIM_SMCR_TS;
 8003b94:	2770      	movs	r7, #112	; 0x70
  htim->Instance->CCMR1 &= ~TIM_CCMR1_IC1PSC;
 8003b96:	6983      	ldr	r3, [r0, #24]
  TIM_OC2_SetConfig(htim->Instance, &OC_Config);
 8003b98:	a901      	add	r1, sp, #4
  htim->Instance->CCMR1 &= ~TIM_CCMR1_IC1PSC;
 8003b9a:	4393      	bics	r3, r2
 8003b9c:	6183      	str	r3, [r0, #24]
  htim->Instance->CCMR1 |= sConfig->IC1Prescaler;
 8003b9e:	6983      	ldr	r3, [r0, #24]
 8003ba0:	686a      	ldr	r2, [r5, #4]
  OC_Config.OCMode = TIM_OCMODE_PWM2;
 8003ba2:	9701      	str	r7, [sp, #4]
  htim->Instance->CCMR1 |= sConfig->IC1Prescaler;
 8003ba4:	4313      	orrs	r3, r2
  htim->Instance->CR2 |= TIM_CR2_TI1S;
 8003ba6:	2280      	movs	r2, #128	; 0x80
  htim->Instance->CCMR1 |= sConfig->IC1Prescaler;
 8003ba8:	6183      	str	r3, [r0, #24]
  htim->Instance->CR2 |= TIM_CR2_TI1S;
 8003baa:	6843      	ldr	r3, [r0, #4]
 8003bac:	4313      	orrs	r3, r2
 8003bae:	6043      	str	r3, [r0, #4]
  htim->Instance->SMCR &= ~TIM_SMCR_TS;
 8003bb0:	6883      	ldr	r3, [r0, #8]
  htim->Instance->SMCR |= TIM_TS_TI1F_ED;
 8003bb2:	3a40      	subs	r2, #64	; 0x40
  htim->Instance->SMCR &= ~TIM_SMCR_TS;
 8003bb4:	43bb      	bics	r3, r7
 8003bb6:	6083      	str	r3, [r0, #8]
  htim->Instance->SMCR |= TIM_TS_TI1F_ED;
 8003bb8:	6883      	ldr	r3, [r0, #8]
 8003bba:	4313      	orrs	r3, r2
 8003bbc:	6083      	str	r3, [r0, #8]
  htim->Instance->SMCR &= ~TIM_SMCR_SMS;
 8003bbe:	6883      	ldr	r3, [r0, #8]
 8003bc0:	3a39      	subs	r2, #57	; 0x39
 8003bc2:	4393      	bics	r3, r2
 8003bc4:	6083      	str	r3, [r0, #8]
  htim->Instance->SMCR |= TIM_SLAVEMODE_RESET;
 8003bc6:	6883      	ldr	r3, [r0, #8]
 8003bc8:	3a03      	subs	r2, #3
 8003bca:	4313      	orrs	r3, r2
 8003bcc:	6083      	str	r3, [r0, #8]
  OC_Config.OCFastMode = TIM_OCFAST_DISABLE;
 8003bce:	2300      	movs	r3, #0
 8003bd0:	9305      	str	r3, [sp, #20]
  OC_Config.OCIdleState = TIM_OCIDLESTATE_RESET;
 8003bd2:	9306      	str	r3, [sp, #24]
  OC_Config.OCNIdleState = TIM_OCNIDLESTATE_RESET;
 8003bd4:	9307      	str	r3, [sp, #28]
  OC_Config.OCNPolarity = TIM_OCNPOLARITY_HIGH;
 8003bd6:	9304      	str	r3, [sp, #16]
  OC_Config.OCPolarity = TIM_OCPOLARITY_HIGH;
 8003bd8:	9303      	str	r3, [sp, #12]
  OC_Config.Pulse = sConfig->Commutation_Delay;
 8003bda:	68eb      	ldr	r3, [r5, #12]
 8003bdc:	9302      	str	r3, [sp, #8]
  TIM_OC2_SetConfig(htim->Instance, &OC_Config);
 8003bde:	f7ff ff59 	bl	8003a94 <TIM_OC2_SetConfig>
  htim->Instance->CR2 |= TIM_TRGO_OC2REF;
 8003be2:	2150      	movs	r1, #80	; 0x50
  htim->Instance->CR2 &= ~TIM_CR2_MMS;
 8003be4:	6823      	ldr	r3, [r4, #0]
  return HAL_OK;
 8003be6:	2000      	movs	r0, #0
  htim->Instance->CR2 &= ~TIM_CR2_MMS;
 8003be8:	685a      	ldr	r2, [r3, #4]
 8003bea:	43ba      	bics	r2, r7
 8003bec:	605a      	str	r2, [r3, #4]
  htim->Instance->CR2 |= TIM_TRGO_OC2REF;
 8003bee:	685a      	ldr	r2, [r3, #4]
 8003bf0:	430a      	orrs	r2, r1
 8003bf2:	605a      	str	r2, [r3, #4]
  htim->DMABurstState = HAL_DMA_BURST_STATE_READY;
 8003bf4:	2301      	movs	r3, #1
 8003bf6:	2246      	movs	r2, #70	; 0x46
 8003bf8:	54a3      	strb	r3, [r4, r2]
  TIM_CHANNEL_STATE_SET(htim, TIM_CHANNEL_1, HAL_TIM_CHANNEL_STATE_READY);
 8003bfa:	3a08      	subs	r2, #8
 8003bfc:	54a3      	strb	r3, [r4, r2]
  TIM_CHANNEL_STATE_SET(htim, TIM_CHANNEL_2, HAL_TIM_CHANNEL_STATE_READY);
 8003bfe:	3201      	adds	r2, #1
 8003c00:	54a3      	strb	r3, [r4, r2]
  TIM_CHANNEL_N_STATE_SET(htim, TIM_CHANNEL_1, HAL_TIM_CHANNEL_STATE_READY);
 8003c02:	3203      	adds	r2, #3
 8003c04:	54a3      	strb	r3, [r4, r2]
  TIM_CHANNEL_N_STATE_SET(htim, TIM_CHANNEL_2, HAL_TIM_CHANNEL_STATE_READY);
 8003c06:	3201      	adds	r2, #1
 8003c08:	54a3      	strb	r3, [r4, r2]
  htim->State = HAL_TIM_STATE_READY;
 8003c0a:	55a3      	strb	r3, [r4, r6]
}
 8003c0c:	b009      	add	sp, #36	; 0x24
 8003c0e:	bdf0      	pop	{r4, r5, r6, r7, pc}
    htim->Lock = HAL_UNLOCKED;
 8003c10:	333c      	adds	r3, #60	; 0x3c
 8003c12:	54c2      	strb	r2, [r0, r3]
    HAL_TIMEx_HallSensor_MspInit(htim);
 8003c14:	f7ff ffa2 	bl	8003b5c <HAL_TIMEx_HallSensor_MspInit>
 8003c18:	e7ad      	b.n	8003b76 <HAL_TIMEx_HallSensor_Init+0x16>
    return HAL_ERROR;
 8003c1a:	2001      	movs	r0, #1
 8003c1c:	e7f6      	b.n	8003c0c <HAL_TIMEx_HallSensor_Init+0xac>
 8003c1e:	46c0      	nop			; (mov r8, r8)

08003c20 <HAL_TIMEx_MasterConfigSynchronization>:
  assert_param(IS_TIM_MASTER_INSTANCE(htim->Instance));
  assert_param(IS_TIM_TRGO_SOURCE(sMasterConfig->MasterOutputTrigger));
  assert_param(IS_TIM_MSM_STATE(sMasterConfig->MasterSlaveMode));

  /* Check input state */
  __HAL_LOCK(htim);
 8003c20:	233c      	movs	r3, #60	; 0x3c
{
 8003c22:	b530      	push	{r4, r5, lr}
  __HAL_LOCK(htim);
 8003c24:	5cc3      	ldrb	r3, [r0, r3]
 8003c26:	2b01      	cmp	r3, #1
 8003c28:	d021      	beq.n	8003c6e <HAL_TIMEx_MasterConfigSynchronization+0x4e>

  /* Change the handler state */
  htim->State = HAL_TIM_STATE_BUSY;
 8003c2a:	233d      	movs	r3, #61	; 0x3d
 8003c2c:	2202      	movs	r2, #2

  /* Get the TIMx SMCR register value */
  tmpsmcr = htim->Instance->SMCR;

  /* Reset the MMS Bits */
  tmpcr2 &= ~TIM_CR2_MMS;
 8003c2e:	2570      	movs	r5, #112	; 0x70
  htim->State = HAL_TIM_STATE_BUSY;
 8003c30:	54c2      	strb	r2, [r0, r3]
  tmpcr2 = htim->Instance->CR2;
 8003c32:	6803      	ldr	r3, [r0, #0]
 8003c34:	685a      	ldr	r2, [r3, #4]
  tmpsmcr = htim->Instance->SMCR;
 8003c36:	689c      	ldr	r4, [r3, #8]
  tmpcr2 &= ~TIM_CR2_MMS;
 8003c38:	43aa      	bics	r2, r5
  /* Select the TRGO source */
  tmpcr2 |=  sMasterConfig->MasterOutputTrigger;
 8003c3a:	680d      	ldr	r5, [r1, #0]
 8003c3c:	432a      	orrs	r2, r5

  /* Update TIMx CR2 */
  htim->Instance->CR2 = tmpcr2;
 8003c3e:	605a      	str	r2, [r3, #4]

  if (IS_TIM_SLAVE_INSTANCE(htim->Instance))
 8003c40:	4a0c      	ldr	r2, [pc, #48]	; (8003c74 <HAL_TIMEx_MasterConfigSynchronization+0x54>)
 8003c42:	4293      	cmp	r3, r2
 8003c44:	d006      	beq.n	8003c54 <HAL_TIMEx_MasterConfigSynchronization+0x34>
 8003c46:	2280      	movs	r2, #128	; 0x80
 8003c48:	05d2      	lsls	r2, r2, #23
 8003c4a:	4293      	cmp	r3, r2
 8003c4c:	d002      	beq.n	8003c54 <HAL_TIMEx_MasterConfigSynchronization+0x34>
 8003c4e:	4a0a      	ldr	r2, [pc, #40]	; (8003c78 <HAL_TIMEx_MasterConfigSynchronization+0x58>)
 8003c50:	4293      	cmp	r3, r2
 8003c52:	d104      	bne.n	8003c5e <HAL_TIMEx_MasterConfigSynchronization+0x3e>
  {
    /* Reset the MSM Bit */
    tmpsmcr &= ~TIM_SMCR_MSM;
 8003c54:	2280      	movs	r2, #128	; 0x80
 8003c56:	4394      	bics	r4, r2
    /* Set master mode */
    tmpsmcr |= sMasterConfig->MasterSlaveMode;
 8003c58:	684a      	ldr	r2, [r1, #4]
 8003c5a:	4314      	orrs	r4, r2

    /* Update TIMx SMCR */
    htim->Instance->SMCR = tmpsmcr;
 8003c5c:	609c      	str	r4, [r3, #8]
  }

  /* Change the htim state */
  htim->State = HAL_TIM_STATE_READY;
 8003c5e:	233d      	movs	r3, #61	; 0x3d
 8003c60:	2201      	movs	r2, #1
 8003c62:	54c2      	strb	r2, [r0, r3]

  __HAL_UNLOCK(htim);
 8003c64:	2200      	movs	r2, #0
 8003c66:	3b01      	subs	r3, #1
 8003c68:	54c2      	strb	r2, [r0, r3]

  return HAL_OK;
 8003c6a:	2000      	movs	r0, #0
}
 8003c6c:	bd30      	pop	{r4, r5, pc}
  __HAL_LOCK(htim);
 8003c6e:	2002      	movs	r0, #2
 8003c70:	e7fc      	b.n	8003c6c <HAL_TIMEx_MasterConfigSynchronization+0x4c>
 8003c72:	46c0      	nop			; (mov r8, r8)
 8003c74:	40012c00 	.word	0x40012c00
 8003c78:	40000400 	.word	0x40000400

08003c7c <HAL_TIMEx_ConfigBreakDeadTime>:
  assert_param(IS_TIM_BREAK_STATE(sBreakDeadTimeConfig->BreakState));
  assert_param(IS_TIM_BREAK_POLARITY(sBreakDeadTimeConfig->BreakPolarity));
  assert_param(IS_TIM_AUTOMATIC_OUTPUT_STATE(sBreakDeadTimeConfig->AutomaticOutput));

  /* Check input state */
  __HAL_LOCK(htim);
 8003c7c:	223c      	movs	r2, #60	; 0x3c
{
 8003c7e:	b510      	push	{r4, lr}
  __HAL_LOCK(htim);
 8003c80:	5c83      	ldrb	r3, [r0, r2]
 8003c82:	2b01      	cmp	r3, #1
 8003c84:	d01e      	beq.n	8003cc4 <HAL_TIMEx_ConfigBreakDeadTime+0x48>
  /* Set the Lock level, the Break enable Bit and the Polarity, the OSSR State,
     the OSSI State, the dead time value and the Automatic Output Enable Bit */

  /* Set the BDTR bits */
  MODIFY_REG(tmpbdtr, TIM_BDTR_DTG, sBreakDeadTimeConfig->DeadTime);
  MODIFY_REG(tmpbdtr, TIM_BDTR_LOCK, sBreakDeadTimeConfig->LockLevel);
 8003c86:	68cb      	ldr	r3, [r1, #12]
 8003c88:	4c0f      	ldr	r4, [pc, #60]	; (8003cc8 <HAL_TIMEx_ConfigBreakDeadTime+0x4c>)
 8003c8a:	4023      	ands	r3, r4
 8003c8c:	688c      	ldr	r4, [r1, #8]
 8003c8e:	4323      	orrs	r3, r4
  MODIFY_REG(tmpbdtr, TIM_BDTR_OSSI, sBreakDeadTimeConfig->OffStateIDLEMode);
 8003c90:	4c0e      	ldr	r4, [pc, #56]	; (8003ccc <HAL_TIMEx_ConfigBreakDeadTime+0x50>)
 8003c92:	4023      	ands	r3, r4
 8003c94:	684c      	ldr	r4, [r1, #4]
 8003c96:	4323      	orrs	r3, r4
  MODIFY_REG(tmpbdtr, TIM_BDTR_OSSR, sBreakDeadTimeConfig->OffStateRunMode);
 8003c98:	4c0d      	ldr	r4, [pc, #52]	; (8003cd0 <HAL_TIMEx_ConfigBreakDeadTime+0x54>)
 8003c9a:	4023      	ands	r3, r4
 8003c9c:	680c      	ldr	r4, [r1, #0]
 8003c9e:	4323      	orrs	r3, r4
  MODIFY_REG(tmpbdtr, TIM_BDTR_BKE, sBreakDeadTimeConfig->BreakState);
 8003ca0:	4c0c      	ldr	r4, [pc, #48]	; (8003cd4 <HAL_TIMEx_ConfigBreakDeadTime+0x58>)
 8003ca2:	4023      	ands	r3, r4
 8003ca4:	690c      	ldr	r4, [r1, #16]
 8003ca6:	4323      	orrs	r3, r4
  MODIFY_REG(tmpbdtr, TIM_BDTR_BKP, sBreakDeadTimeConfig->BreakPolarity);
 8003ca8:	4c0b      	ldr	r4, [pc, #44]	; (8003cd8 <HAL_TIMEx_ConfigBreakDeadTime+0x5c>)
 8003caa:	4023      	ands	r3, r4
 8003cac:	694c      	ldr	r4, [r1, #20]
  MODIFY_REG(tmpbdtr, TIM_BDTR_AOE, sBreakDeadTimeConfig->AutomaticOutput);
 8003cae:	69c9      	ldr	r1, [r1, #28]
  MODIFY_REG(tmpbdtr, TIM_BDTR_BKP, sBreakDeadTimeConfig->BreakPolarity);
 8003cb0:	4323      	orrs	r3, r4
  MODIFY_REG(tmpbdtr, TIM_BDTR_AOE, sBreakDeadTimeConfig->AutomaticOutput);
 8003cb2:	4c0a      	ldr	r4, [pc, #40]	; (8003cdc <HAL_TIMEx_ConfigBreakDeadTime+0x60>)
 8003cb4:	4023      	ands	r3, r4
 8003cb6:	430b      	orrs	r3, r1


  /* Set TIMx_BDTR */
  htim->Instance->BDTR = tmpbdtr;
 8003cb8:	6801      	ldr	r1, [r0, #0]
 8003cba:	644b      	str	r3, [r1, #68]	; 0x44

  __HAL_UNLOCK(htim);
 8003cbc:	2300      	movs	r3, #0
 8003cbe:	5483      	strb	r3, [r0, r2]

  return HAL_OK;
 8003cc0:	2000      	movs	r0, #0
}
 8003cc2:	bd10      	pop	{r4, pc}
  __HAL_LOCK(htim);
 8003cc4:	2002      	movs	r0, #2
 8003cc6:	e7fc      	b.n	8003cc2 <HAL_TIMEx_ConfigBreakDeadTime+0x46>
 8003cc8:	fffffcff 	.word	0xfffffcff
 8003ccc:	fffffbff 	.word	0xfffffbff
 8003cd0:	fffff7ff 	.word	0xfffff7ff
 8003cd4:	ffffefff 	.word	0xffffefff
 8003cd8:	ffffdfff 	.word	0xffffdfff
 8003cdc:	ffffbfff 	.word	0xffffbfff

08003ce0 <UART_AdvFeatureConfig>:
{
  /* Check whether the set of advanced features to configure is properly set */
  assert_param(IS_UART_ADVFEATURE_INIT(huart->AdvancedInit.AdvFeatureInit));

  /* if required, configure TX pin active level inversion */
  if (HAL_IS_BIT_SET(huart->AdvancedInit.AdvFeatureInit, UART_ADVFEATURE_TXINVERT_INIT))
 8003ce0:	6a43      	ldr	r3, [r0, #36]	; 0x24
{
 8003ce2:	b530      	push	{r4, r5, lr}
  if (HAL_IS_BIT_SET(huart->AdvancedInit.AdvFeatureInit, UART_ADVFEATURE_TXINVERT_INIT))
 8003ce4:	07da      	lsls	r2, r3, #31
 8003ce6:	d506      	bpl.n	8003cf6 <UART_AdvFeatureConfig+0x16>
  {
    assert_param(IS_UART_ADVFEATURE_TXINV(huart->AdvancedInit.TxPinLevelInvert));
    MODIFY_REG(huart->Instance->CR2, USART_CR2_TXINV, huart->AdvancedInit.TxPinLevelInvert);
 8003ce8:	6801      	ldr	r1, [r0, #0]
 8003cea:	4c28      	ldr	r4, [pc, #160]	; (8003d8c <UART_AdvFeatureConfig+0xac>)
 8003cec:	684a      	ldr	r2, [r1, #4]
 8003cee:	4022      	ands	r2, r4
 8003cf0:	6a84      	ldr	r4, [r0, #40]	; 0x28
 8003cf2:	4322      	orrs	r2, r4
 8003cf4:	604a      	str	r2, [r1, #4]
  }

  /* if required, configure RX pin active level inversion */
  if (HAL_IS_BIT_SET(huart->AdvancedInit.AdvFeatureInit, UART_ADVFEATURE_RXINVERT_INIT))
 8003cf6:	079a      	lsls	r2, r3, #30
 8003cf8:	d506      	bpl.n	8003d08 <UART_AdvFeatureConfig+0x28>
  {
    assert_param(IS_UART_ADVFEATURE_RXINV(huart->AdvancedInit.RxPinLevelInvert));
    MODIFY_REG(huart->Instance->CR2, USART_CR2_RXINV, huart->AdvancedInit.RxPinLevelInvert);
 8003cfa:	6801      	ldr	r1, [r0, #0]
 8003cfc:	4c24      	ldr	r4, [pc, #144]	; (8003d90 <UART_AdvFeatureConfig+0xb0>)
 8003cfe:	684a      	ldr	r2, [r1, #4]
 8003d00:	4022      	ands	r2, r4
 8003d02:	6ac4      	ldr	r4, [r0, #44]	; 0x2c
 8003d04:	4322      	orrs	r2, r4
 8003d06:	604a      	str	r2, [r1, #4]
  }

  /* if required, configure data inversion */
  if (HAL_IS_BIT_SET(huart->AdvancedInit.AdvFeatureInit, UART_ADVFEATURE_DATAINVERT_INIT))
 8003d08:	075a      	lsls	r2, r3, #29
 8003d0a:	d506      	bpl.n	8003d1a <UART_AdvFeatureConfig+0x3a>
  {
    assert_param(IS_UART_ADVFEATURE_DATAINV(huart->AdvancedInit.DataInvert));
    MODIFY_REG(huart->Instance->CR2, USART_CR2_DATAINV, huart->AdvancedInit.DataInvert);
 8003d0c:	6801      	ldr	r1, [r0, #0]
 8003d0e:	4c21      	ldr	r4, [pc, #132]	; (8003d94 <UART_AdvFeatureConfig+0xb4>)
 8003d10:	684a      	ldr	r2, [r1, #4]
 8003d12:	4022      	ands	r2, r4
 8003d14:	6b04      	ldr	r4, [r0, #48]	; 0x30
 8003d16:	4322      	orrs	r2, r4
 8003d18:	604a      	str	r2, [r1, #4]
  }

  /* if required, configure RX/TX pins swap */
  if (HAL_IS_BIT_SET(huart->AdvancedInit.AdvFeatureInit, UART_ADVFEATURE_SWAP_INIT))
 8003d1a:	071a      	lsls	r2, r3, #28
 8003d1c:	d506      	bpl.n	8003d2c <UART_AdvFeatureConfig+0x4c>
  {
    assert_param(IS_UART_ADVFEATURE_SWAP(huart->AdvancedInit.Swap));
    MODIFY_REG(huart->Instance->CR2, USART_CR2_SWAP, huart->AdvancedInit.Swap);
 8003d1e:	6801      	ldr	r1, [r0, #0]
 8003d20:	4c1d      	ldr	r4, [pc, #116]	; (8003d98 <UART_AdvFeatureConfig+0xb8>)
 8003d22:	684a      	ldr	r2, [r1, #4]
 8003d24:	4022      	ands	r2, r4
 8003d26:	6b44      	ldr	r4, [r0, #52]	; 0x34
 8003d28:	4322      	orrs	r2, r4
 8003d2a:	604a      	str	r2, [r1, #4]
  }

  /* if required, configure RX overrun detection disabling */
  if (HAL_IS_BIT_SET(huart->AdvancedInit.AdvFeatureInit, UART_ADVFEATURE_RXOVERRUNDISABLE_INIT))
 8003d2c:	06da      	lsls	r2, r3, #27
 8003d2e:	d506      	bpl.n	8003d3e <UART_AdvFeatureConfig+0x5e>
  {
    assert_param(IS_UART_OVERRUN(huart->AdvancedInit.OverrunDisable));
    MODIFY_REG(huart->Instance->CR3, USART_CR3_OVRDIS, huart->AdvancedInit.OverrunDisable);
 8003d30:	6801      	ldr	r1, [r0, #0]
 8003d32:	4c1a      	ldr	r4, [pc, #104]	; (8003d9c <UART_AdvFeatureConfig+0xbc>)
 8003d34:	688a      	ldr	r2, [r1, #8]
 8003d36:	4022      	ands	r2, r4
 8003d38:	6b84      	ldr	r4, [r0, #56]	; 0x38
 8003d3a:	4322      	orrs	r2, r4
 8003d3c:	608a      	str	r2, [r1, #8]
  }

  /* if required, configure DMA disabling on reception error */
  if (HAL_IS_BIT_SET(huart->AdvancedInit.AdvFeatureInit, UART_ADVFEATURE_DMADISABLEONERROR_INIT))
 8003d3e:	069a      	lsls	r2, r3, #26
 8003d40:	d506      	bpl.n	8003d50 <UART_AdvFeatureConfig+0x70>
  {
    assert_param(IS_UART_ADVFEATURE_DMAONRXERROR(huart->AdvancedInit.DMADisableonRxError));
    MODIFY_REG(huart->Instance->CR3, USART_CR3_DDRE, huart->AdvancedInit.DMADisableonRxError);
 8003d42:	6801      	ldr	r1, [r0, #0]
 8003d44:	4c16      	ldr	r4, [pc, #88]	; (8003da0 <UART_AdvFeatureConfig+0xc0>)
 8003d46:	688a      	ldr	r2, [r1, #8]
 8003d48:	4022      	ands	r2, r4
 8003d4a:	6bc4      	ldr	r4, [r0, #60]	; 0x3c
 8003d4c:	4322      	orrs	r2, r4
 8003d4e:	608a      	str	r2, [r1, #8]
  }

  /* if required, configure auto Baud rate detection scheme */
  if (HAL_IS_BIT_SET(huart->AdvancedInit.AdvFeatureInit, UART_ADVFEATURE_AUTOBAUDRATE_INIT))
 8003d50:	065a      	lsls	r2, r3, #25
 8003d52:	d50a      	bpl.n	8003d6a <UART_AdvFeatureConfig+0x8a>
  {
    assert_param(IS_USART_AUTOBAUDRATE_DETECTION_INSTANCE(huart->Instance));
    assert_param(IS_UART_ADVFEATURE_AUTOBAUDRATE(huart->AdvancedInit.AutoBaudRateEnable));
    MODIFY_REG(huart->Instance->CR2, USART_CR2_ABREN, huart->AdvancedInit.AutoBaudRateEnable);
 8003d54:	6801      	ldr	r1, [r0, #0]
 8003d56:	4d13      	ldr	r5, [pc, #76]	; (8003da4 <UART_AdvFeatureConfig+0xc4>)
 8003d58:	684a      	ldr	r2, [r1, #4]
 8003d5a:	6c04      	ldr	r4, [r0, #64]	; 0x40
 8003d5c:	402a      	ands	r2, r5
 8003d5e:	4322      	orrs	r2, r4
 8003d60:	604a      	str	r2, [r1, #4]
    /* set auto Baudrate detection parameters if detection is enabled */
    if (huart->AdvancedInit.AutoBaudRateEnable == UART_ADVFEATURE_AUTOBAUDRATE_ENABLE)
 8003d62:	2280      	movs	r2, #128	; 0x80
 8003d64:	0352      	lsls	r2, r2, #13
 8003d66:	4294      	cmp	r4, r2
 8003d68:	d009      	beq.n	8003d7e <UART_AdvFeatureConfig+0x9e>
      MODIFY_REG(huart->Instance->CR2, USART_CR2_ABRMODE, huart->AdvancedInit.AutoBaudRateMode);
    }
  }

  /* if required, configure MSB first on communication line */
  if (HAL_IS_BIT_SET(huart->AdvancedInit.AdvFeatureInit, UART_ADVFEATURE_MSBFIRST_INIT))
 8003d6a:	061b      	lsls	r3, r3, #24
 8003d6c:	d506      	bpl.n	8003d7c <UART_AdvFeatureConfig+0x9c>
  {
    assert_param(IS_UART_ADVFEATURE_MSBFIRST(huart->AdvancedInit.MSBFirst));
    MODIFY_REG(huart->Instance->CR2, USART_CR2_MSBFIRST, huart->AdvancedInit.MSBFirst);
 8003d6e:	6802      	ldr	r2, [r0, #0]
 8003d70:	490d      	ldr	r1, [pc, #52]	; (8003da8 <UART_AdvFeatureConfig+0xc8>)
 8003d72:	6853      	ldr	r3, [r2, #4]
 8003d74:	400b      	ands	r3, r1
 8003d76:	6c81      	ldr	r1, [r0, #72]	; 0x48
 8003d78:	430b      	orrs	r3, r1
 8003d7a:	6053      	str	r3, [r2, #4]
  }
}
 8003d7c:	bd30      	pop	{r4, r5, pc}
      MODIFY_REG(huart->Instance->CR2, USART_CR2_ABRMODE, huart->AdvancedInit.AutoBaudRateMode);
 8003d7e:	684a      	ldr	r2, [r1, #4]
 8003d80:	4c0a      	ldr	r4, [pc, #40]	; (8003dac <UART_AdvFeatureConfig+0xcc>)
 8003d82:	4022      	ands	r2, r4
 8003d84:	6c44      	ldr	r4, [r0, #68]	; 0x44
 8003d86:	4322      	orrs	r2, r4
 8003d88:	604a      	str	r2, [r1, #4]
 8003d8a:	e7ee      	b.n	8003d6a <UART_AdvFeatureConfig+0x8a>
 8003d8c:	fffdffff 	.word	0xfffdffff
 8003d90:	fffeffff 	.word	0xfffeffff
 8003d94:	fffbffff 	.word	0xfffbffff
 8003d98:	ffff7fff 	.word	0xffff7fff
 8003d9c:	ffffefff 	.word	0xffffefff
 8003da0:	ffffdfff 	.word	0xffffdfff
 8003da4:	ffefffff 	.word	0xffefffff
 8003da8:	fff7ffff 	.word	0xfff7ffff
 8003dac:	ff9fffff 	.word	0xff9fffff

08003db0 <UART_WaitOnFlagUntilTimeout>:
  * @param Timeout   Timeout duration
  * @retval HAL status
  */
HAL_StatusTypeDef UART_WaitOnFlagUntilTimeout(UART_HandleTypeDef *huart, uint32_t Flag, FlagStatus Status,
                                              uint32_t Tickstart, uint32_t Timeout)
{
 8003db0:	b5f0      	push	{r4, r5, r6, r7, lr}
 8003db2:	4646      	mov	r6, r8
 8003db4:	4698      	mov	r8, r3
        __HAL_UNLOCK(huart);

        return HAL_TIMEOUT;
      }

      if (READ_BIT(huart->Instance->CR1, USART_CR1_RE) != 0U)
 8003db6:	2304      	movs	r3, #4
{
 8003db8:	464f      	mov	r7, r9
      if (READ_BIT(huart->Instance->CR1, USART_CR1_RE) != 0U)
 8003dba:	4699      	mov	r9, r3
      {
        if (__HAL_UART_GET_FLAG(huart, UART_FLAG_RTOF) == SET)
 8003dbc:	2380      	movs	r3, #128	; 0x80
{
 8003dbe:	46d6      	mov	lr, sl
        if (__HAL_UART_GET_FLAG(huart, UART_FLAG_RTOF) == SET)
 8003dc0:	011b      	lsls	r3, r3, #4
{
 8003dc2:	b5c0      	push	{r6, r7, lr}
 8003dc4:	0015      	movs	r5, r2
 8003dc6:	0007      	movs	r7, r0
        if (__HAL_UART_GET_FLAG(huart, UART_FLAG_RTOF) == SET)
 8003dc8:	469a      	mov	sl, r3
{
 8003dca:	000c      	movs	r4, r1
 8003dcc:	9e08      	ldr	r6, [sp, #32]
  while ((__HAL_UART_GET_FLAG(huart, Flag) ? SET : RESET) == Status)
 8003dce:	6801      	ldr	r1, [r0, #0]
 8003dd0:	1c73      	adds	r3, r6, #1
 8003dd2:	d10c      	bne.n	8003dee <UART_WaitOnFlagUntilTimeout+0x3e>
 8003dd4:	69cb      	ldr	r3, [r1, #28]
 8003dd6:	4023      	ands	r3, r4
 8003dd8:	1b1b      	subs	r3, r3, r4
 8003dda:	425a      	negs	r2, r3
 8003ddc:	4153      	adcs	r3, r2
 8003dde:	42ab      	cmp	r3, r5
 8003de0:	d0f8      	beq.n	8003dd4 <UART_WaitOnFlagUntilTimeout+0x24>
          return HAL_TIMEOUT;
        }
      }
    }
  }
  return HAL_OK;
 8003de2:	2000      	movs	r0, #0
}
 8003de4:	bce0      	pop	{r5, r6, r7}
 8003de6:	46ba      	mov	sl, r7
 8003de8:	46b1      	mov	r9, r6
 8003dea:	46a8      	mov	r8, r5
 8003dec:	bdf0      	pop	{r4, r5, r6, r7, pc}
  while ((__HAL_UART_GET_FLAG(huart, Flag) ? SET : RESET) == Status)
 8003dee:	69cb      	ldr	r3, [r1, #28]
 8003df0:	4023      	ands	r3, r4
 8003df2:	1b1b      	subs	r3, r3, r4
 8003df4:	425a      	negs	r2, r3
 8003df6:	4153      	adcs	r3, r2
 8003df8:	42ab      	cmp	r3, r5
 8003dfa:	d1f2      	bne.n	8003de2 <UART_WaitOnFlagUntilTimeout+0x32>
      if (((HAL_GetTick() - Tickstart) > Timeout) || (Timeout == 0U))
 8003dfc:	f7fe fc52 	bl	80026a4 <HAL_GetTick>
 8003e00:	4643      	mov	r3, r8
 8003e02:	1ac0      	subs	r0, r0, r3
 8003e04:	42b0      	cmp	r0, r6
 8003e06:	d82b      	bhi.n	8003e60 <UART_WaitOnFlagUntilTimeout+0xb0>
 8003e08:	2e00      	cmp	r6, #0
 8003e0a:	d029      	beq.n	8003e60 <UART_WaitOnFlagUntilTimeout+0xb0>
      if (READ_BIT(huart->Instance->CR1, USART_CR1_RE) != 0U)
 8003e0c:	464a      	mov	r2, r9
 8003e0e:	6839      	ldr	r1, [r7, #0]
 8003e10:	680b      	ldr	r3, [r1, #0]
 8003e12:	421a      	tst	r2, r3
 8003e14:	d0dc      	beq.n	8003dd0 <UART_WaitOnFlagUntilTimeout+0x20>
        if (__HAL_UART_GET_FLAG(huart, UART_FLAG_RTOF) == SET)
 8003e16:	4652      	mov	r2, sl
 8003e18:	69cb      	ldr	r3, [r1, #28]
 8003e1a:	4213      	tst	r3, r2
 8003e1c:	d0d8      	beq.n	8003dd0 <UART_WaitOnFlagUntilTimeout+0x20>
          __HAL_UART_CLEAR_FLAG(huart, UART_CLEAR_RTOF);
 8003e1e:	620a      	str	r2, [r1, #32]
 */
__STATIC_FORCEINLINE uint32_t __get_PRIMASK(void)
{
  uint32_t result;

  __ASM volatile ("MRS %0, primask" : "=r" (result) :: "memory");
 8003e20:	f3ef 8010 	mrs	r0, PRIMASK
  \details Assigns the given value to the Priority Mask Register.
  \param [in]    priMask  Priority Mask
 */
__STATIC_FORCEINLINE void __set_PRIMASK(uint32_t priMask)
{
  __ASM volatile ("MSR primask, %0" : : "r" (priMask) : "memory");
 8003e24:	2201      	movs	r2, #1
 8003e26:	f382 8810 	msr	PRIMASK, r2
          ATOMIC_CLEAR_BIT(huart->Instance->CR1, (USART_CR1_RXNEIE | USART_CR1_PEIE | USART_CR1_TXEIE));
 8003e2a:	6839      	ldr	r1, [r7, #0]
 8003e2c:	4c1b      	ldr	r4, [pc, #108]	; (8003e9c <UART_WaitOnFlagUntilTimeout+0xec>)
 8003e2e:	680b      	ldr	r3, [r1, #0]
 8003e30:	4023      	ands	r3, r4
 8003e32:	600b      	str	r3, [r1, #0]
 8003e34:	f380 8810 	msr	PRIMASK, r0
  __ASM volatile ("MRS %0, primask" : "=r" (result) :: "memory");
 8003e38:	f3ef 8010 	mrs	r0, PRIMASK
  __ASM volatile ("MSR primask, %0" : : "r" (priMask) : "memory");
 8003e3c:	f382 8810 	msr	PRIMASK, r2
          ATOMIC_CLEAR_BIT(huart->Instance->CR3, USART_CR3_EIE);
 8003e40:	6839      	ldr	r1, [r7, #0]
 8003e42:	688b      	ldr	r3, [r1, #8]
 8003e44:	4393      	bics	r3, r2
 8003e46:	608b      	str	r3, [r1, #8]
 8003e48:	f380 8810 	msr	PRIMASK, r0
          huart->gState = HAL_UART_STATE_READY;
 8003e4c:	2320      	movs	r3, #32
          huart->ErrorCode = HAL_UART_ERROR_RTO;
 8003e4e:	327f      	adds	r2, #127	; 0x7f
          huart->gState = HAL_UART_STATE_READY;
 8003e50:	67bb      	str	r3, [r7, #120]	; 0x78
          huart->RxState = HAL_UART_STATE_READY;
 8003e52:	67fb      	str	r3, [r7, #124]	; 0x7c
          huart->ErrorCode = HAL_UART_ERROR_RTO;
 8003e54:	50bb      	str	r3, [r7, r2]
          __HAL_UNLOCK(huart);
 8003e56:	2200      	movs	r2, #0
 8003e58:	3354      	adds	r3, #84	; 0x54
          return HAL_TIMEOUT;
 8003e5a:	2003      	movs	r0, #3
          __HAL_UNLOCK(huart);
 8003e5c:	54fa      	strb	r2, [r7, r3]
          return HAL_TIMEOUT;
 8003e5e:	e7c1      	b.n	8003de4 <UART_WaitOnFlagUntilTimeout+0x34>
  __ASM volatile ("MRS %0, primask" : "=r" (result) :: "memory");
 8003e60:	f3ef 8010 	mrs	r0, PRIMASK
  __ASM volatile ("MSR primask, %0" : : "r" (priMask) : "memory");
 8003e64:	2201      	movs	r2, #1
 8003e66:	f382 8810 	msr	PRIMASK, r2
        ATOMIC_CLEAR_BIT(huart->Instance->CR1, (USART_CR1_RXNEIE | USART_CR1_PEIE | USART_CR1_TXEIE));
 8003e6a:	6839      	ldr	r1, [r7, #0]
 8003e6c:	4c0b      	ldr	r4, [pc, #44]	; (8003e9c <UART_WaitOnFlagUntilTimeout+0xec>)
 8003e6e:	680b      	ldr	r3, [r1, #0]
 8003e70:	4023      	ands	r3, r4
 8003e72:	600b      	str	r3, [r1, #0]
 8003e74:	f380 8810 	msr	PRIMASK, r0
  __ASM volatile ("MRS %0, primask" : "=r" (result) :: "memory");
 8003e78:	f3ef 8010 	mrs	r0, PRIMASK
  __ASM volatile ("MSR primask, %0" : : "r" (priMask) : "memory");
 8003e7c:	f382 8810 	msr	PRIMASK, r2
        ATOMIC_CLEAR_BIT(huart->Instance->CR3, USART_CR3_EIE);
 8003e80:	6839      	ldr	r1, [r7, #0]
 8003e82:	688b      	ldr	r3, [r1, #8]
 8003e84:	4393      	bics	r3, r2
 8003e86:	608b      	str	r3, [r1, #8]
 8003e88:	f380 8810 	msr	PRIMASK, r0
        huart->gState = HAL_UART_STATE_READY;
 8003e8c:	2320      	movs	r3, #32
        __HAL_UNLOCK(huart);
 8003e8e:	2200      	movs	r2, #0
        huart->gState = HAL_UART_STATE_READY;
 8003e90:	67bb      	str	r3, [r7, #120]	; 0x78
        huart->RxState = HAL_UART_STATE_READY;
 8003e92:	67fb      	str	r3, [r7, #124]	; 0x7c
        __HAL_UNLOCK(huart);
 8003e94:	3354      	adds	r3, #84	; 0x54
        return HAL_TIMEOUT;
 8003e96:	2003      	movs	r0, #3
        __HAL_UNLOCK(huart);
 8003e98:	54fa      	strb	r2, [r7, r3]
        return HAL_TIMEOUT;
 8003e9a:	e7a3      	b.n	8003de4 <UART_WaitOnFlagUntilTimeout+0x34>
 8003e9c:	fffffe5f 	.word	0xfffffe5f

08003ea0 <HAL_UART_Init>:
{
 8003ea0:	b530      	push	{r4, r5, lr}
 8003ea2:	0004      	movs	r4, r0
 8003ea4:	b083      	sub	sp, #12
  if (huart == NULL)
 8003ea6:	2800      	cmp	r0, #0
 8003ea8:	d100      	bne.n	8003eac <HAL_UART_Init+0xc>
 8003eaa:	e0a8      	b.n	8003ffe <HAL_UART_Init+0x15e>
  if (huart->gState == HAL_UART_STATE_RESET)
 8003eac:	6f83      	ldr	r3, [r0, #120]	; 0x78
 8003eae:	2b00      	cmp	r3, #0
 8003eb0:	d100      	bne.n	8003eb4 <HAL_UART_Init+0x14>
 8003eb2:	e07c      	b.n	8003fae <HAL_UART_Init+0x10e>
  huart->gState = HAL_UART_STATE_BUSY;
 8003eb4:	2324      	movs	r3, #36	; 0x24
  __HAL_UART_DISABLE(huart);
 8003eb6:	2101      	movs	r1, #1
 8003eb8:	6822      	ldr	r2, [r4, #0]
  huart->gState = HAL_UART_STATE_BUSY;
 8003eba:	67a3      	str	r3, [r4, #120]	; 0x78
  __HAL_UART_DISABLE(huart);
 8003ebc:	6813      	ldr	r3, [r2, #0]
  tmpreg = (uint32_t)huart->Init.WordLength | huart->Init.Parity | huart->Init.Mode | huart->Init.OverSampling ;
 8003ebe:	6925      	ldr	r5, [r4, #16]
  __HAL_UART_DISABLE(huart);
 8003ec0:	438b      	bics	r3, r1
 8003ec2:	6013      	str	r3, [r2, #0]
  tmpreg = (uint32_t)huart->Init.WordLength | huart->Init.Parity | huart->Init.Mode | huart->Init.OverSampling ;
 8003ec4:	68a3      	ldr	r3, [r4, #8]
  MODIFY_REG(huart->Instance->CR1, USART_CR1_FIELDS, tmpreg);
 8003ec6:	6810      	ldr	r0, [r2, #0]
  tmpreg = (uint32_t)huart->Init.WordLength | huart->Init.Parity | huart->Init.Mode | huart->Init.OverSampling ;
 8003ec8:	432b      	orrs	r3, r5
 8003eca:	6965      	ldr	r5, [r4, #20]
 8003ecc:	69e1      	ldr	r1, [r4, #28]
 8003ece:	432b      	orrs	r3, r5
  MODIFY_REG(huart->Instance->CR1, USART_CR1_FIELDS, tmpreg);
 8003ed0:	4d62      	ldr	r5, [pc, #392]	; (800405c <HAL_UART_Init+0x1bc>)
  tmpreg = (uint32_t)huart->Init.WordLength | huart->Init.Parity | huart->Init.Mode | huart->Init.OverSampling ;
 8003ed2:	430b      	orrs	r3, r1
  MODIFY_REG(huart->Instance->CR1, USART_CR1_FIELDS, tmpreg);
 8003ed4:	4028      	ands	r0, r5
 8003ed6:	4303      	orrs	r3, r0
 8003ed8:	6013      	str	r3, [r2, #0]
  MODIFY_REG(huart->Instance->CR2, USART_CR2_STOP, huart->Init.StopBits);
 8003eda:	6853      	ldr	r3, [r2, #4]
 8003edc:	4860      	ldr	r0, [pc, #384]	; (8004060 <HAL_UART_Init+0x1c0>)
  tmpreg |= huart->Init.OneBitSampling;
 8003ede:	6a25      	ldr	r5, [r4, #32]
  MODIFY_REG(huart->Instance->CR2, USART_CR2_STOP, huart->Init.StopBits);
 8003ee0:	4003      	ands	r3, r0
 8003ee2:	68e0      	ldr	r0, [r4, #12]
 8003ee4:	4303      	orrs	r3, r0
 8003ee6:	6053      	str	r3, [r2, #4]
  tmpreg = (uint32_t)huart->Init.HwFlowCtl;
 8003ee8:	69a3      	ldr	r3, [r4, #24]
  MODIFY_REG(huart->Instance->CR3, USART_CR3_FIELDS, tmpreg);
 8003eea:	6890      	ldr	r0, [r2, #8]
  tmpreg |= huart->Init.OneBitSampling;
 8003eec:	432b      	orrs	r3, r5
  MODIFY_REG(huart->Instance->CR3, USART_CR3_FIELDS, tmpreg);
 8003eee:	4d5d      	ldr	r5, [pc, #372]	; (8004064 <HAL_UART_Init+0x1c4>)
 8003ef0:	4028      	ands	r0, r5
 8003ef2:	4303      	orrs	r3, r0
 8003ef4:	6093      	str	r3, [r2, #8]
  UART_GETCLOCKSOURCE(huart, clocksource);
 8003ef6:	4b5c      	ldr	r3, [pc, #368]	; (8004068 <HAL_UART_Init+0x1c8>)
 8003ef8:	6b1a      	ldr	r2, [r3, #48]	; 0x30
 8003efa:	2303      	movs	r3, #3
 8003efc:	4013      	ands	r3, r2
 8003efe:	3b01      	subs	r3, #1
 8003f00:	2b02      	cmp	r3, #2
 8003f02:	d931      	bls.n	8003f68 <HAL_UART_Init+0xc8>
  if (huart->Init.OverSampling == UART_OVERSAMPLING_8)
 8003f04:	2380      	movs	r3, #128	; 0x80
 8003f06:	021b      	lsls	r3, r3, #8
 8003f08:	4299      	cmp	r1, r3
 8003f0a:	d100      	bne.n	8003f0e <HAL_UART_Init+0x6e>
 8003f0c:	e0a2      	b.n	8004054 <HAL_UART_Init+0x1b4>
        pclk = HAL_RCC_GetPCLK1Freq();
 8003f0e:	f7ff fa01 	bl	8003314 <HAL_RCC_GetPCLK1Freq>
    if (pclk != 0U)
 8003f12:	2800      	cmp	r0, #0
 8003f14:	d136      	bne.n	8003f84 <HAL_UART_Init+0xe4>
  huart->RxISR = NULL;
 8003f16:	2300      	movs	r3, #0
 8003f18:	6663      	str	r3, [r4, #100]	; 0x64
  huart->TxISR = NULL;
 8003f1a:	66a3      	str	r3, [r4, #104]	; 0x68
  if (huart->AdvancedInit.AdvFeatureInit != UART_ADVFEATURE_NO_INIT)
 8003f1c:	6a63      	ldr	r3, [r4, #36]	; 0x24
 8003f1e:	2b00      	cmp	r3, #0
 8003f20:	d166      	bne.n	8003ff0 <HAL_UART_Init+0x150>
  CLEAR_BIT(huart->Instance->CR2, (USART_CR2_LINEN | USART_CR2_CLKEN));
 8003f22:	6823      	ldr	r3, [r4, #0]
 8003f24:	4951      	ldr	r1, [pc, #324]	; (800406c <HAL_UART_Init+0x1cc>)
 8003f26:	685a      	ldr	r2, [r3, #4]
 8003f28:	400a      	ands	r2, r1
  CLEAR_BIT(huart->Instance->CR3, (USART_CR3_SCEN | USART_CR3_HDSEL | USART_CR3_IREN));
 8003f2a:	212a      	movs	r1, #42	; 0x2a
  CLEAR_BIT(huart->Instance->CR2, (USART_CR2_LINEN | USART_CR2_CLKEN));
 8003f2c:	605a      	str	r2, [r3, #4]
  CLEAR_BIT(huart->Instance->CR3, (USART_CR3_SCEN | USART_CR3_HDSEL | USART_CR3_IREN));
 8003f2e:	689a      	ldr	r2, [r3, #8]
 8003f30:	438a      	bics	r2, r1
 8003f32:	609a      	str	r2, [r3, #8]
  __HAL_UART_ENABLE(huart);
 8003f34:	681a      	ldr	r2, [r3, #0]
 8003f36:	3929      	subs	r1, #41	; 0x29
 8003f38:	430a      	orrs	r2, r1
 8003f3a:	601a      	str	r2, [r3, #0]
  huart->ErrorCode = HAL_UART_ERROR_NONE;
 8003f3c:	2200      	movs	r2, #0
 8003f3e:	2380      	movs	r3, #128	; 0x80
 8003f40:	50e2      	str	r2, [r4, r3]
  tickstart = HAL_GetTick();
 8003f42:	f7fe fbaf 	bl	80026a4 <HAL_GetTick>
  if ((huart->Instance->CR1 & USART_CR1_TE) == USART_CR1_TE)
 8003f46:	6822      	ldr	r2, [r4, #0]
  tickstart = HAL_GetTick();
 8003f48:	0005      	movs	r5, r0
  if ((huart->Instance->CR1 & USART_CR1_TE) == USART_CR1_TE)
 8003f4a:	6811      	ldr	r1, [r2, #0]
 8003f4c:	0709      	lsls	r1, r1, #28
 8003f4e:	d433      	bmi.n	8003fb8 <HAL_UART_Init+0x118>
  if ((huart->Instance->CR1 & USART_CR1_RE) == USART_CR1_RE)
 8003f50:	6812      	ldr	r2, [r2, #0]
 8003f52:	0752      	lsls	r2, r2, #29
 8003f54:	d43f      	bmi.n	8003fd6 <HAL_UART_Init+0x136>
  huart->gState = HAL_UART_STATE_READY;
 8003f56:	2320      	movs	r3, #32
  __HAL_UNLOCK(huart);
 8003f58:	2274      	movs	r2, #116	; 0x74
  huart->gState = HAL_UART_STATE_READY;
 8003f5a:	67a3      	str	r3, [r4, #120]	; 0x78
  huart->RxState = HAL_UART_STATE_READY;
 8003f5c:	67e3      	str	r3, [r4, #124]	; 0x7c
  huart->ReceptionType = HAL_UART_RECEPTION_STANDARD;
 8003f5e:	2300      	movs	r3, #0
  return HAL_OK;
 8003f60:	2000      	movs	r0, #0
  huart->ReceptionType = HAL_UART_RECEPTION_STANDARD;
 8003f62:	6623      	str	r3, [r4, #96]	; 0x60
  __HAL_UNLOCK(huart);
 8003f64:	54a3      	strb	r3, [r4, r2]
  return HAL_OK;
 8003f66:	e01d      	b.n	8003fa4 <HAL_UART_Init+0x104>
  if (huart->Init.OverSampling == UART_OVERSAMPLING_8)
 8003f68:	2080      	movs	r0, #128	; 0x80
 8003f6a:	4a41      	ldr	r2, [pc, #260]	; (8004070 <HAL_UART_Init+0x1d0>)
 8003f6c:	0200      	lsls	r0, r0, #8
 8003f6e:	5cd3      	ldrb	r3, [r2, r3]
 8003f70:	4281      	cmp	r1, r0
 8003f72:	d046      	beq.n	8004002 <HAL_UART_Init+0x162>
    switch (clocksource)
 8003f74:	2b04      	cmp	r3, #4
 8003f76:	d064      	beq.n	8004042 <HAL_UART_Init+0x1a2>
 8003f78:	d816      	bhi.n	8003fa8 <HAL_UART_Init+0x108>
 8003f7a:	2b00      	cmp	r3, #0
 8003f7c:	d0c7      	beq.n	8003f0e <HAL_UART_Init+0x6e>
 8003f7e:	2b02      	cmp	r3, #2
 8003f80:	d10c      	bne.n	8003f9c <HAL_UART_Init+0xfc>
        pclk = (uint32_t) HSI_VALUE;
 8003f82:	483c      	ldr	r0, [pc, #240]	; (8004074 <HAL_UART_Init+0x1d4>)
      usartdiv = (uint16_t)(UART_DIV_SAMPLING16(pclk, huart->Init.BaudRate));
 8003f84:	6861      	ldr	r1, [r4, #4]
 8003f86:	084b      	lsrs	r3, r1, #1
 8003f88:	1818      	adds	r0, r3, r0
 8003f8a:	f7fc f8bd 	bl	8000108 <__udivsi3>
 8003f8e:	0400      	lsls	r0, r0, #16
 8003f90:	0c00      	lsrs	r0, r0, #16
      if ((usartdiv >= UART_BRR_MIN) && (usartdiv <= UART_BRR_MAX))
 8003f92:	0002      	movs	r2, r0
 8003f94:	4b38      	ldr	r3, [pc, #224]	; (8004078 <HAL_UART_Init+0x1d8>)
 8003f96:	3a10      	subs	r2, #16
 8003f98:	429a      	cmp	r2, r3
 8003f9a:	d92d      	bls.n	8003ff8 <HAL_UART_Init+0x158>
  huart->RxISR = NULL;
 8003f9c:	2300      	movs	r3, #0
    return HAL_ERROR;
 8003f9e:	2001      	movs	r0, #1
  huart->RxISR = NULL;
 8003fa0:	6663      	str	r3, [r4, #100]	; 0x64
  huart->TxISR = NULL;
 8003fa2:	66a3      	str	r3, [r4, #104]	; 0x68
}
 8003fa4:	b003      	add	sp, #12
 8003fa6:	bd30      	pop	{r4, r5, pc}
    switch (clocksource)
 8003fa8:	2b08      	cmp	r3, #8
 8003faa:	d0eb      	beq.n	8003f84 <HAL_UART_Init+0xe4>
 8003fac:	e7f6      	b.n	8003f9c <HAL_UART_Init+0xfc>
    huart->Lock = HAL_UNLOCKED;
 8003fae:	2274      	movs	r2, #116	; 0x74
 8003fb0:	5483      	strb	r3, [r0, r2]
    HAL_UART_MspInit(huart);
 8003fb2:	f7fd ff5d 	bl	8001e70 <HAL_UART_MspInit>
 8003fb6:	e77d      	b.n	8003eb4 <HAL_UART_Init+0x14>
    if (UART_WaitOnFlagUntilTimeout(huart, USART_ISR_TEACK, RESET, tickstart, HAL_UART_TIMEOUT_VALUE) != HAL_OK)
 8003fb8:	2180      	movs	r1, #128	; 0x80
 8003fba:	4b30      	ldr	r3, [pc, #192]	; (800407c <HAL_UART_Init+0x1dc>)
 8003fbc:	2200      	movs	r2, #0
 8003fbe:	9300      	str	r3, [sp, #0]
 8003fc0:	0389      	lsls	r1, r1, #14
 8003fc2:	0003      	movs	r3, r0
 8003fc4:	0020      	movs	r0, r4
 8003fc6:	f7ff fef3 	bl	8003db0 <UART_WaitOnFlagUntilTimeout>
 8003fca:	2800      	cmp	r0, #0
 8003fcc:	d10e      	bne.n	8003fec <HAL_UART_Init+0x14c>
  if ((huart->Instance->CR1 & USART_CR1_RE) == USART_CR1_RE)
 8003fce:	6822      	ldr	r2, [r4, #0]
 8003fd0:	6812      	ldr	r2, [r2, #0]
 8003fd2:	0752      	lsls	r2, r2, #29
 8003fd4:	d5bf      	bpl.n	8003f56 <HAL_UART_Init+0xb6>
    if (UART_WaitOnFlagUntilTimeout(huart, USART_ISR_REACK, RESET, tickstart, HAL_UART_TIMEOUT_VALUE) != HAL_OK)
 8003fd6:	2180      	movs	r1, #128	; 0x80
 8003fd8:	4b28      	ldr	r3, [pc, #160]	; (800407c <HAL_UART_Init+0x1dc>)
 8003fda:	2200      	movs	r2, #0
 8003fdc:	9300      	str	r3, [sp, #0]
 8003fde:	0020      	movs	r0, r4
 8003fe0:	002b      	movs	r3, r5
 8003fe2:	03c9      	lsls	r1, r1, #15
 8003fe4:	f7ff fee4 	bl	8003db0 <UART_WaitOnFlagUntilTimeout>
 8003fe8:	2800      	cmp	r0, #0
 8003fea:	d0b4      	beq.n	8003f56 <HAL_UART_Init+0xb6>
      return HAL_TIMEOUT;
 8003fec:	2003      	movs	r0, #3
 8003fee:	e7d9      	b.n	8003fa4 <HAL_UART_Init+0x104>
    UART_AdvFeatureConfig(huart);
 8003ff0:	0020      	movs	r0, r4
 8003ff2:	f7ff fe75 	bl	8003ce0 <UART_AdvFeatureConfig>
 8003ff6:	e794      	b.n	8003f22 <HAL_UART_Init+0x82>
        huart->Instance->BRR = usartdiv;
 8003ff8:	6823      	ldr	r3, [r4, #0]
 8003ffa:	60d8      	str	r0, [r3, #12]
  return ret;
 8003ffc:	e78b      	b.n	8003f16 <HAL_UART_Init+0x76>
    return HAL_ERROR;
 8003ffe:	2001      	movs	r0, #1
 8004000:	e7d0      	b.n	8003fa4 <HAL_UART_Init+0x104>
    switch (clocksource)
 8004002:	2b04      	cmp	r3, #4
 8004004:	d020      	beq.n	8004048 <HAL_UART_Init+0x1a8>
 8004006:	d817      	bhi.n	8004038 <HAL_UART_Init+0x198>
 8004008:	2b00      	cmp	r3, #0
 800400a:	d023      	beq.n	8004054 <HAL_UART_Init+0x1b4>
 800400c:	2b02      	cmp	r3, #2
 800400e:	d1c5      	bne.n	8003f9c <HAL_UART_Init+0xfc>
 8004010:	4b1b      	ldr	r3, [pc, #108]	; (8004080 <HAL_UART_Init+0x1e0>)
      usartdiv = (uint16_t)(UART_DIV_SAMPLING8(pclk, huart->Init.BaudRate));
 8004012:	6861      	ldr	r1, [r4, #4]
 8004014:	0848      	lsrs	r0, r1, #1
 8004016:	18c0      	adds	r0, r0, r3
 8004018:	f7fc f876 	bl	8000108 <__udivsi3>
 800401c:	0403      	lsls	r3, r0, #16
 800401e:	0c1a      	lsrs	r2, r3, #16
      if ((usartdiv >= UART_BRR_MIN) && (usartdiv <= UART_BRR_MAX))
 8004020:	4915      	ldr	r1, [pc, #84]	; (8004078 <HAL_UART_Init+0x1d8>)
 8004022:	3a10      	subs	r2, #16
 8004024:	428a      	cmp	r2, r1
 8004026:	d8b9      	bhi.n	8003f9c <HAL_UART_Init+0xfc>
        brrtemp = (uint16_t)(usartdiv & 0xFFF0U);
 8004028:	4a16      	ldr	r2, [pc, #88]	; (8004084 <HAL_UART_Init+0x1e4>)
        brrtemp |= (uint16_t)((usartdiv & (uint16_t)0x000FU) >> 1U);
 800402a:	031b      	lsls	r3, r3, #12
        brrtemp = (uint16_t)(usartdiv & 0xFFF0U);
 800402c:	4010      	ands	r0, r2
        brrtemp |= (uint16_t)((usartdiv & (uint16_t)0x000FU) >> 1U);
 800402e:	0f5b      	lsrs	r3, r3, #29
        huart->Instance->BRR = brrtemp;
 8004030:	6822      	ldr	r2, [r4, #0]
 8004032:	4318      	orrs	r0, r3
 8004034:	60d0      	str	r0, [r2, #12]
  return ret;
 8004036:	e76e      	b.n	8003f16 <HAL_UART_Init+0x76>
    switch (clocksource)
 8004038:	2b08      	cmp	r3, #8
 800403a:	d1af      	bne.n	8003f9c <HAL_UART_Init+0xfc>
 800403c:	2380      	movs	r3, #128	; 0x80
 800403e:	025b      	lsls	r3, r3, #9
 8004040:	e7e7      	b.n	8004012 <HAL_UART_Init+0x172>
        pclk = HAL_RCC_GetSysClockFreq();
 8004042:	f7ff f929 	bl	8003298 <HAL_RCC_GetSysClockFreq>
        break;
 8004046:	e764      	b.n	8003f12 <HAL_UART_Init+0x72>
        pclk = HAL_RCC_GetSysClockFreq();
 8004048:	f7ff f926 	bl	8003298 <HAL_RCC_GetSysClockFreq>
      usartdiv = (uint16_t)(UART_DIV_SAMPLING8(pclk, huart->Init.BaudRate));
 800404c:	0043      	lsls	r3, r0, #1
    if (pclk != 0U)
 800404e:	2800      	cmp	r0, #0
 8004050:	d1df      	bne.n	8004012 <HAL_UART_Init+0x172>
 8004052:	e760      	b.n	8003f16 <HAL_UART_Init+0x76>
        pclk = HAL_RCC_GetPCLK1Freq();
 8004054:	f7ff f95e 	bl	8003314 <HAL_RCC_GetPCLK1Freq>
        break;
 8004058:	e7f8      	b.n	800404c <HAL_UART_Init+0x1ac>
 800405a:	46c0      	nop			; (mov r8, r8)
 800405c:	ffff69f3 	.word	0xffff69f3
 8004060:	ffffcfff 	.word	0xffffcfff
 8004064:	fffff4ff 	.word	0xfffff4ff
 8004068:	40021000 	.word	0x40021000
 800406c:	ffffb7ff 	.word	0xffffb7ff
 8004070:	08006810 	.word	0x08006810
 8004074:	007a1200 	.word	0x007a1200
 8004078:	0000ffef 	.word	0x0000ffef
 800407c:	01ffffff 	.word	0x01ffffff
 8004080:	00f42400 	.word	0x00f42400
 8004084:	0000fff0 	.word	0x0000fff0

08004088 <VBS_GetAvBusVoltage_V>:
  * @brief  It return latest averaged Vbus measurement expressed in Volts
  * @param  pHandle related Handle of BusVoltageSensor_Handle_t
  * @retval uint16_t Latest averaged Vbus measurement in Volts
  */
__weak uint16_t VBS_GetAvBusVoltage_V( BusVoltageSensor_Handle_t * pHandle )
{
 8004088:	0003      	movs	r3, r0
  uint32_t temp;

  temp = ( uint32_t )( pHandle->AvBusVoltage_d );
 800408a:	88c0      	ldrh	r0, [r0, #6]
  temp *= pHandle->ConversionFactor;
 800408c:	885b      	ldrh	r3, [r3, #2]
 800408e:	4358      	muls	r0, r3
  temp /= 65536u;

  return ( ( uint16_t )temp );
 8004090:	0c00      	lsrs	r0, r0, #16
}
 8004092:	4770      	bx	lr

08004094 <Circle_Limitation>:
  * @param  pHandle pointer on the related component instance
  * @param  Vqd Voltage in qd reference frame
  * @retval qd_t Limited Vqd vector
  */
__weak qd_t Circle_Limitation( CircleLimitation_Handle_t * pHandle, qd_t Vqd )
{
 8004094:	b510      	push	{r4, lr}
 8004096:	b084      	sub	sp, #16
 8004098:	b20b      	sxth	r3, r1
 800409a:	9101      	str	r1, [sp, #4]
 800409c:	1409      	asrs	r1, r1, #16
  uint16_t table_element;
  uint32_t uw_temp;
  int32_t  sw_temp;
  qd_t local_vqd = Vqd;

  sw_temp = ( int32_t )( Vqd.q ) * Vqd.q +
 800409e:	001a      	movs	r2, r3
            ( int32_t )( Vqd.d ) * Vqd.d;
 80040a0:	000c      	movs	r4, r1
  sw_temp = ( int32_t )( Vqd.q ) * Vqd.q +
 80040a2:	435a      	muls	r2, r3
            ( int32_t )( Vqd.d ) * Vqd.d;
 80040a4:	434c      	muls	r4, r1
  sw_temp = ( int32_t )( Vqd.q ) * Vqd.q +
 80040a6:	1912      	adds	r2, r2, r4

  uw_temp = ( uint32_t ) sw_temp;

  /* uw_temp min value 0, max value 32767*32767 */
  if ( uw_temp > ( uint32_t )( pHandle->MaxModule ) * pHandle->MaxModule )
 80040a8:	8804      	ldrh	r4, [r0, #0]
 80040aa:	4364      	muls	r4, r4
 80040ac:	42a2      	cmp	r2, r4
 80040ae:	d917      	bls.n	80040e0 <Circle_Limitation+0x4c>
  {

    uw_temp /= ( uint32_t )( 16777216 );

    /* wtemp min value pHandle->Start_index, max value 127 */
    uw_temp -= pHandle->Start_index;
 80040b0:	24b2      	movs	r4, #178	; 0xb2
 80040b2:	5d04      	ldrb	r4, [r0, r4]
    uw_temp /= ( uint32_t )( 16777216 );
 80040b4:	0e12      	lsrs	r2, r2, #24
    uw_temp -= pHandle->Start_index;
 80040b6:	1b12      	subs	r2, r2, r4

    /* uw_temp min value 0, max value 127 - pHandle->Start_index */
    table_element = pHandle->Circle_limit_table[( uint8_t )uw_temp];
 80040b8:	24ff      	movs	r4, #255	; 0xff
 80040ba:	4022      	ands	r2, r4
 80040bc:	0052      	lsls	r2, r2, #1
 80040be:	1880      	adds	r0, r0, r2

    sw_temp = Vqd.q * ( int32_t )table_element;
 80040c0:	8884      	ldrh	r4, [r0, #4]
 80040c2:	4363      	muls	r3, r4
 80040c4:	0018      	movs	r0, r3
    local_vqd.q = ( int16_t )( sw_temp / 32768 );

    sw_temp = Vqd.d * ( int32_t )( table_element );
 80040c6:	434c      	muls	r4, r1
    local_vqd.q = ( int16_t )( sw_temp / 32768 );
 80040c8:	17da      	asrs	r2, r3, #31
    local_vqd.d = ( int16_t )( sw_temp / 32768 );
 80040ca:	17e1      	asrs	r1, r4, #31
    local_vqd.q = ( int16_t )( sw_temp / 32768 );
 80040cc:	0452      	lsls	r2, r2, #17
    local_vqd.d = ( int16_t )( sw_temp / 32768 );
 80040ce:	0449      	lsls	r1, r1, #17
    local_vqd.q = ( int16_t )( sw_temp / 32768 );
 80040d0:	0c53      	lsrs	r3, r2, #17
    local_vqd.d = ( int16_t )( sw_temp / 32768 );
 80040d2:	0c49      	lsrs	r1, r1, #17
    local_vqd.q = ( int16_t )( sw_temp / 32768 );
 80040d4:	181b      	adds	r3, r3, r0
    local_vqd.d = ( int16_t )( sw_temp / 32768 );
 80040d6:	1909      	adds	r1, r1, r4
    local_vqd.q = ( int16_t )( sw_temp / 32768 );
 80040d8:	13db      	asrs	r3, r3, #15
    local_vqd.d = ( int16_t )( sw_temp / 32768 );
 80040da:	13c9      	asrs	r1, r1, #15
    local_vqd.q = ( int16_t )( sw_temp / 32768 );
 80040dc:	b21b      	sxth	r3, r3
    local_vqd.d = ( int16_t )( sw_temp / 32768 );
 80040de:	b209      	sxth	r1, r1
  }

  return ( local_vqd );
 80040e0:	0418      	lsls	r0, r3, #16
 80040e2:	0409      	lsls	r1, r1, #16
 80040e4:	0c00      	lsrs	r0, r0, #16
 80040e6:	4308      	orrs	r0, r1
}
 80040e8:	b004      	add	sp, #16
 80040ea:	bd10      	pop	{r4, pc}

080040ec <FD_Init>:
  * @param  pHandle pointer on the handle of the component to initialize.
  */
__weak void FD_Init( FastDiv_Handle_t * pHandle )
{
  uint8_t i;
  pHandle->fd_div_element = 0;
 80040ec:	2300      	movs	r3, #0
 80040ee:	7003      	strb	r3, [r0, #0]

  for ( i = 0u; i < FD_MAX_FDIV; i++ )
  {
    pHandle->fd_m[i].M = 0;
 80040f0:	6043      	str	r3, [r0, #4]
    pHandle->fd_m[i].s = 0;
 80040f2:	6083      	str	r3, [r0, #8]
    pHandle->fd_m[i].d = 0;
 80040f4:	60c3      	str	r3, [r0, #12]
    pHandle->fd_m[i].M = 0;
 80040f6:	6103      	str	r3, [r0, #16]
    pHandle->fd_m[i].s = 0;
 80040f8:	6143      	str	r3, [r0, #20]
    pHandle->fd_m[i].d = 0;
 80040fa:	6183      	str	r3, [r0, #24]
    pHandle->fd_m[i].M = 0;
 80040fc:	61c3      	str	r3, [r0, #28]
    pHandle->fd_m[i].s = 0;
 80040fe:	6203      	str	r3, [r0, #32]
    pHandle->fd_m[i].d = 0;
 8004100:	6243      	str	r3, [r0, #36]	; 0x24
    pHandle->fd_m[i].M = 0;
 8004102:	6283      	str	r3, [r0, #40]	; 0x28
    pHandle->fd_m[i].s = 0;
 8004104:	62c3      	str	r3, [r0, #44]	; 0x2c
    pHandle->fd_m[i].d = 0;
 8004106:	6303      	str	r3, [r0, #48]	; 0x30
    pHandle->fd_m[i].M = 0;
 8004108:	6343      	str	r3, [r0, #52]	; 0x34
    pHandle->fd_m[i].s = 0;
 800410a:	6383      	str	r3, [r0, #56]	; 0x38
    pHandle->fd_m[i].d = 0;
 800410c:	63c3      	str	r3, [r0, #60]	; 0x3c
  }
}
 800410e:	4770      	bx	lr

08004110 <FCP_Init>:
 * @{
 */

__weak void FCP_Init( FCP_Handle_t * pHandle )
{
  pHandle->RxTimeoutCountdown = 0;
 8004110:	2300      	movs	r3, #0

  pHandle->TxFrame.Code = 0x0;
  pHandle->TxFrame.Size = 0;
  pHandle->TxFrame.FrameCRC = 0;
 8004112:	2196      	movs	r1, #150	; 0x96
  pHandle->RxTimeoutCountdown = 0;
 8004114:	2200      	movs	r2, #0
 8004116:	8243      	strh	r3, [r0, #18]
  pHandle->TxFrame.Code = 0x0;
 8004118:	8283      	strh	r3, [r0, #20]
  pHandle->TxFrame.FrameCRC = 0;
 800411a:	5243      	strh	r3, [r0, r1]
  pHandle->TxFrameState = FCP_TRANSFER_IDLE;
  pHandle->TxFrameLevel = 0;
 800411c:	3102      	adds	r1, #2
 800411e:	5243      	strh	r3, [r0, r1]

  pHandle->RxFrame.Code = 0x0;
  pHandle->RxFrame.Size = 0;
 8004120:	3102      	adds	r1, #2
 8004122:	5442      	strb	r2, [r0, r1]
  pHandle->RxFrame.FrameCRC = 0;
 8004124:	211c      	movs	r1, #28
 8004126:	31ff      	adds	r1, #255	; 0xff
 8004128:	5442      	strb	r2, [r0, r1]
  pHandle->RxFrameState = FCP_TRANSFER_IDLE;
 800412a:	228e      	movs	r2, #142	; 0x8e
 800412c:	0052      	lsls	r2, r2, #1
 800412e:	5283      	strh	r3, [r0, r2]
  pHandle->RxFrameLevel = 0;
}
 8004130:	4770      	bx	lr
 8004132:	46c0      	nop			; (mov r8, r8)

08004134 <FCP_SetClient>:
                    struct MCP_Handle_s * pClient,
                    FCP_SentFrameCallback_t pSentFrameCb,
                    FCP_ReceivedFrameCallback_t pReceviedFrameCb,
                    FCP_RxTimeoutCallback_t pRxTimeoutCb )
{
  if ( MC_NULL != pHandle )
 8004134:	2800      	cmp	r0, #0
 8004136:	d004      	beq.n	8004142 <FCP_SetClient+0xe>
  {
    pHandle->ClientEntity = pClient;
    pHandle->ClientFrameSentCallback = pSentFrameCb;
    pHandle->ClientFrameReceivedCallback = pReceviedFrameCb;
 8004138:	6083      	str	r3, [r0, #8]
    pHandle->ClientRxTimeoutCallback = pRxTimeoutCb;
 800413a:	9b00      	ldr	r3, [sp, #0]
    pHandle->ClientEntity = pClient;
 800413c:	6001      	str	r1, [r0, #0]
    pHandle->ClientFrameSentCallback = pSentFrameCb;
 800413e:	6042      	str	r2, [r0, #4]
    pHandle->ClientRxTimeoutCallback = pRxTimeoutCb;
 8004140:	60c3      	str	r3, [r0, #12]
  }
}
 8004142:	4770      	bx	lr

08004144 <FCP_CalcCRC>:
    pHandle->RxTimeout = Timeout;
  }
}

__weak uint8_t FCP_CalcCRC( FCP_Frame_t * pFrame )
{
 8004144:	b510      	push	{r4, lr}
  uint8_t nCRC = 0;
  uint16_t nSum = 0;
  uint8_t idx;

  if( MC_NULL != pFrame )
 8004146:	2800      	cmp	r0, #0
 8004148:	d011      	beq.n	800416e <FCP_CalcCRC+0x2a>
  {
    nSum += pFrame->Code;
    nSum += pFrame->Size;
 800414a:	7844      	ldrb	r4, [r0, #1]
    nSum += pFrame->Code;
 800414c:	7803      	ldrb	r3, [r0, #0]
    nSum += pFrame->Size;
 800414e:	191b      	adds	r3, r3, r4

    for ( idx = 0; idx < pFrame->Size; idx++ )
 8004150:	2c00      	cmp	r4, #0
 8004152:	d008      	beq.n	8004166 <FCP_CalcCRC+0x22>
 8004154:	2200      	movs	r2, #0
 8004156:	3002      	adds	r0, #2
    {
      nSum += pFrame->Buffer[idx];
 8004158:	5c81      	ldrb	r1, [r0, r2]
    for ( idx = 0; idx < pFrame->Size; idx++ )
 800415a:	3201      	adds	r2, #1
      nSum += pFrame->Buffer[idx];
 800415c:	185b      	adds	r3, r3, r1
    for ( idx = 0; idx < pFrame->Size; idx++ )
 800415e:	b2d1      	uxtb	r1, r2
      nSum += pFrame->Buffer[idx];
 8004160:	b29b      	uxth	r3, r3
    for ( idx = 0; idx < pFrame->Size; idx++ )
 8004162:	428c      	cmp	r4, r1
 8004164:	d8f8      	bhi.n	8004158 <FCP_CalcCRC+0x14>
    }

    nCRC = (uint8_t)(nSum & 0xFF) ; // Low Byte of nSum
    nCRC += (uint8_t) (nSum >> 8) ; // High Byte of nSum
 8004166:	0a1a      	lsrs	r2, r3, #8
 8004168:	189b      	adds	r3, r3, r2
 800416a:	b2d8      	uxtb	r0, r3
  }

  return nCRC ;
}
 800416c:	bd10      	pop	{r4, pc}
  uint8_t nCRC = 0;
 800416e:	2000      	movs	r0, #0
 8004170:	e7fc      	b.n	800416c <FCP_CalcCRC+0x28>
 8004172:	46c0      	nop			; (mov r8, r8)

08004174 <HALL_Init>:
            sensors.
  * @param  pHandle: handler of the current instance of the hall_speed_pos_fdbk component
  * @retval none
  */
__weak void HALL_Init( HALL_Handle_t * pHandle )
{
 8004174:	b5f0      	push	{r4, r5, r6, r7, lr}
 8004176:	4646      	mov	r6, r8
 8004178:	464f      	mov	r7, r9
 800417a:	46d6      	mov	lr, sl
 800417c:	b5c0      	push	{r6, r7, lr}

  /* Adjustment factor: maximum measurable speed is x time greater than the
  maximum reliable speed */
  hMaxReliableElSpeedUnit *= 2u;

  pHandle->OvfFreq = ( uint16_t )( pHandle->TIMClockFreq / 65536u );
 800417e:	6a87      	ldr	r7, [r0, #40]	; 0x28
                                     pHandle->_Super.bElToMecRatio;
 8004180:	7842      	ldrb	r2, [r0, #1]
  uint16_t hMinReliableElSpeedUnit = pHandle->_Super.hMinReliableMecSpeedUnit *
 8004182:	8ac3      	ldrh	r3, [r0, #22]
  hMaxReliableElSpeedUnit *= 2u;
 8004184:	8a86      	ldrh	r6, [r0, #20]
  uint16_t hMinReliableElSpeedUnit = pHandle->_Super.hMinReliableMecSpeedUnit *
 8004186:	4353      	muls	r3, r2
  hMaxReliableElSpeedUnit *= 2u;
 8004188:	4356      	muls	r6, r2
  pHandle->OvfFreq = ( uint16_t )( pHandle->TIMClockFreq / 65536u );
 800418a:	0c3a      	lsrs	r2, r7, #16
 800418c:	4690      	mov	r8, r2
 800418e:	22c2      	movs	r2, #194	; 0xc2
 8004190:	4641      	mov	r1, r8
  hMaxReliableElSpeedUnit *= 2u;
 8004192:	0076      	lsls	r6, r6, #1
  uint16_t hMinReliableElSpeedUnit = pHandle->_Super.hMinReliableMecSpeedUnit *
 8004194:	b29b      	uxth	r3, r3
  TIM_TypeDef * TIMx = pHandle->TIMx;
 8004196:	6ac5      	ldr	r5, [r0, #44]	; 0x2c
{
 8004198:	0004      	movs	r4, r0
  hMaxReliableElSpeedUnit *= 2u;
 800419a:	b2b6      	uxth	r6, r6
  pHandle->OvfFreq = ( uint16_t )( pHandle->TIMClockFreq / 65536u );
 800419c:	5281      	strh	r1, [r0, r2]

  /* SW Init */
  if ( hMinReliableElSpeedUnit == 0u )
 800419e:	2b03      	cmp	r3, #3
 80041a0:	d800      	bhi.n	80041a4 <HALL_Init+0x30>
 80041a2:	e06e      	b.n	8004282 <HALL_Init+0x10e>
  else
  {
    /* Set accordingly the min reliable speed */
    /* 1000 comes from mS 
    * 6 comes from the fact that sensors are toggling each 60 deg = 360/6 deg */
    pHandle->HallTimeout = 1000*SPEED_UNIT / ( 6u * hMinReliableElSpeedUnit );
 80041a4:	089b      	lsrs	r3, r3, #2
 80041a6:	0059      	lsls	r1, r3, #1
 80041a8:	18c9      	adds	r1, r1, r3
 80041aa:	4837      	ldr	r0, [pc, #220]	; (8004288 <HALL_Init+0x114>)
 80041ac:	0049      	lsls	r1, r1, #1
 80041ae:	f7fb ffab 	bl	8000108 <__udivsi3>
 80041b2:	b282      	uxth	r2, r0
 80041b4:	23c0      	movs	r3, #192	; 0xc0
  }

  /* Compute the prescaler to the closet value of the TimeOut (in mS )*/
  pHandle->HALLMaxRatio = ( pHandle->HallTimeout * pHandle->OvfFreq ) / 1000 ;
 80041b6:	21fa      	movs	r1, #250	; 0xfa
 80041b8:	52e2      	strh	r2, [r4, r3]
 80041ba:	4643      	mov	r3, r8
 80041bc:	0089      	lsls	r1, r1, #2
 80041be:	4358      	muls	r0, r3
 80041c0:	f7fc f82c 	bl	800021c <__divsi3>
 80041c4:	23ae      	movs	r3, #174	; 0xae
 80041c6:	52e0      	strh	r0, [r4, r3]

  /* Align MaxPeriod to a multiple of Overflow.*/
  pHandle->MaxPeriod = ( pHandle->HALLMaxRatio ) * 65536uL;
 80041c8:	0400      	lsls	r0, r0, #16
 80041ca:	0c03      	lsrs	r3, r0, #16
 80041cc:	4699      	mov	r9, r3
 80041ce:	23b8      	movs	r3, #184	; 0xb8
 80041d0:	50e0      	str	r0, [r4, r3]
 80041d2:	4698      	mov	r8, r3

  pHandle->SatSpeed = hMaxReliableElSpeedUnit;
 80041d4:	3b08      	subs	r3, #8
 80041d6:	52e6      	strh	r6, [r4, r3]

  pHandle->PseudoFreqConv = ( ( pHandle->TIMClockFreq / 6u )
 80041d8:	2106      	movs	r1, #6
 80041da:	0038      	movs	r0, r7
 80041dc:	f7fb ff94 	bl	8000108 <__udivsi3>
                              / ( pHandle->_Super.hMeasurementFrequency ) ) * ( pHandle->_Super.DPPConvFactor);
 80041e0:	8b67      	ldrh	r7, [r4, #26]
  pHandle->PseudoFreqConv = ( ( pHandle->TIMClockFreq / 6u )
 80041e2:	4682      	mov	sl, r0
                              / ( pHandle->_Super.hMeasurementFrequency ) ) * ( pHandle->_Super.DPPConvFactor);
 80041e4:	0039      	movs	r1, r7
 80041e6:	f7fb ff8f 	bl	8000108 <__udivsi3>
  pHandle->PseudoFreqConv = ( ( pHandle->TIMClockFreq / 6u )
 80041ea:	22b4      	movs	r2, #180	; 0xb4
                              / ( pHandle->_Super.hMeasurementFrequency ) ) * ( pHandle->_Super.DPPConvFactor);
 80041ec:	69e3      	ldr	r3, [r4, #28]

  pHandle->MinPeriod = ( ( SPEED_UNIT * ( pHandle->TIMClockFreq /6uL) ) 
                       / hMaxReliableElSpeedUnit);
 80041ee:	0031      	movs	r1, r6
                              / ( pHandle->_Super.hMeasurementFrequency ) ) * ( pHandle->_Super.DPPConvFactor);
 80041f0:	4343      	muls	r3, r0
  pHandle->PseudoFreqConv = ( ( pHandle->TIMClockFreq / 6u )
 80041f2:	50a3      	str	r3, [r4, r2]
  pHandle->MinPeriod = ( ( SPEED_UNIT * ( pHandle->TIMClockFreq /6uL) ) 
 80041f4:	4653      	mov	r3, sl
 80041f6:	0098      	lsls	r0, r3, #2
 80041f8:	4450      	add	r0, sl
 80041fa:	0040      	lsls	r0, r0, #1
                       / hMaxReliableElSpeedUnit);
 80041fc:	f7fb ff84 	bl	8000108 <__udivsi3>
  pHandle->MinPeriod = ( ( SPEED_UNIT * ( pHandle->TIMClockFreq /6uL) ) 
 8004200:	23bc      	movs	r3, #188	; 0xbc
 8004202:	50e0      	str	r0, [r4, r3]

  pHandle->PWMNbrPSamplingFreq = ( (pHandle->_Super.hMeasurementFrequency * pHandle->PWMFreqScaling) /
 8004204:	330a      	adds	r3, #10
 8004206:	5ce0      	ldrb	r0, [r4, r3]
                                   pHandle->SpeedSamplingFreqHz ) - 1u;
 8004208:	8ca1      	ldrh	r1, [r4, #36]	; 0x24
  pHandle->PWMNbrPSamplingFreq = ( (pHandle->_Super.hMeasurementFrequency * pHandle->PWMFreqScaling) /
 800420a:	4378      	muls	r0, r7
 800420c:	f7fc f806 	bl	800021c <__divsi3>
 8004210:	23c4      	movs	r3, #196	; 0xc4

  /* Reset speed reliability */
  pHandle->SensorIsReliable = true;
 8004212:	2249      	movs	r2, #73	; 0x49
                                   pHandle->SpeedSamplingFreqHz ) - 1u;
 8004214:	3801      	subs	r0, #1
  pHandle->PWMNbrPSamplingFreq = ( (pHandle->_Super.hMeasurementFrequency * pHandle->PWMFreqScaling) /
 8004216:	52e0      	strh	r0, [r4, r3]
  MODIFY_REG(*pReg, ((TIM_CCMR1_IC1F) << SHIFT_TAB_ICxx[iChannel]), (ICFilter >> 16U) << SHIFT_TAB_ICxx[iChannel]);
 8004218:	20f0      	movs	r0, #240	; 0xf0
  pHandle->SensorIsReliable = true;
 800421a:	3bc3      	subs	r3, #195	; 0xc3
 800421c:	54a3      	strb	r3, [r4, r2]

  /* Set IC filter for Channel 1 (ICF1) */
  LL_TIM_IC_SetFilter(TIMx, LL_TIM_CHANNEL_CH1, ( uint32_t )(pHandle->ICx_Filter) << 20);
 800421e:	3a01      	subs	r2, #1
 8004220:	69a9      	ldr	r1, [r5, #24]
 8004222:	5ca2      	ldrb	r2, [r4, r2]
 8004224:	4381      	bics	r1, r0
 8004226:	0112      	lsls	r2, r2, #4
 8004228:	430a      	orrs	r2, r1
 800422a:	61aa      	str	r2, [r5, #24]
  WRITE_REG(TIMx->PSC, Prescaler);
 800422c:	464a      	mov	r2, r9
  LL_TIM_SetPrescaler ( TIMx, pHandle->HALLMaxRatio );
  LL_TIM_GenerateEvent_UPDATE ( TIMx );


  /* Clear the TIMx's pending flags */
  WRITE_REG (TIMx->SR, 0);
 800422e:	2100      	movs	r1, #0
 8004230:	62aa      	str	r2, [r5, #40]	; 0x28
  * @param  TIMx Timer instance
  * @retval None
  */
__STATIC_INLINE void LL_TIM_GenerateEvent_UPDATE(TIM_TypeDef *TIMx)
{
  SET_BIT(TIMx->EGR, TIM_EGR_UG);
 8004232:	696a      	ldr	r2, [r5, #20]
  MODIFY_REG(TIMx->CR1, TIM_CR1_URS, UpdateSource);
 8004234:	38ec      	subs	r0, #236	; 0xec
  SET_BIT(TIMx->EGR, TIM_EGR_UG);
 8004236:	431a      	orrs	r2, r3
 8004238:	616a      	str	r2, [r5, #20]
 800423a:	6129      	str	r1, [r5, #16]
  MODIFY_REG(TIMx->CR1, TIM_CR1_URS, UpdateSource);
 800423c:	682a      	ldr	r2, [r5, #0]
 800423e:	4302      	orrs	r2, r0
 8004240:	602a      	str	r2, [r5, #0]
  SET_BIT(TIMx->DIER, TIM_DIER_CC1IE);
 8004242:	68ea      	ldr	r2, [r5, #12]
 8004244:	3802      	subs	r0, #2
 8004246:	4302      	orrs	r2, r0
 8004248:	60ea      	str	r2, [r5, #12]
  SET_BIT(TIMx->DIER, TIM_DIER_UIE);
 800424a:	68ea      	ldr	r2, [r5, #12]
 800424c:	431a      	orrs	r2, r3
 800424e:	60ea      	str	r2, [r5, #12]
  WRITE_REG(TIMx->CNT, Counter);
 8004250:	6269      	str	r1, [r5, #36]	; 0x24
  SET_BIT(TIMx->CCER, Channels);
 8004252:	6a2a      	ldr	r2, [r5, #32]
 8004254:	431a      	orrs	r2, r3
 8004256:	622a      	str	r2, [r5, #32]
  SET_BIT(TIMx->CR1, TIM_CR1_CEN);
 8004258:	682a      	ldr	r2, [r5, #0]
 800425a:	4313      	orrs	r3, r2
 800425c:	602b      	str	r3, [r5, #0]
  LL_TIM_CC_EnableChannel  ( TIMx, LL_TIM_CHANNEL_CH1 );
  LL_TIM_EnableCounter ( TIMx );


  /* Erase speed buffer */
  bSpeedBufferSize = pHandle->SpeedBufferSize;
 800425e:	2326      	movs	r3, #38	; 0x26
 8004260:	5ce2      	ldrb	r2, [r4, r3]

  for ( bIndex = 0u; bIndex < bSpeedBufferSize; bIndex++ )
 8004262:	2a00      	cmp	r2, #0
 8004264:	d008      	beq.n	8004278 <HALL_Init+0x104>
  {
    pHandle->SensorPeriod[bIndex]  = pHandle->MaxPeriod;
 8004266:	4643      	mov	r3, r8
 8004268:	58e1      	ldr	r1, [r4, r3]
  for ( bIndex = 0u; bIndex < bSpeedBufferSize; bIndex++ )
 800426a:	2300      	movs	r3, #0
 800426c:	3450      	adds	r4, #80	; 0x50
 800426e:	3301      	adds	r3, #1
 8004270:	b2db      	uxtb	r3, r3
    pHandle->SensorPeriod[bIndex]  = pHandle->MaxPeriod;
 8004272:	c402      	stmia	r4!, {r1}
  for ( bIndex = 0u; bIndex < bSpeedBufferSize; bIndex++ )
 8004274:	429a      	cmp	r2, r3
 8004276:	d1fa      	bne.n	800426e <HALL_Init+0xfa>
  }
}
 8004278:	bce0      	pop	{r5, r6, r7}
 800427a:	46ba      	mov	sl, r7
 800427c:	46b1      	mov	r9, r6
 800427e:	46a8      	mov	r8, r5
 8004280:	bdf0      	pop	{r4, r5, r6, r7, pc}
 8004282:	2096      	movs	r0, #150	; 0x96
    pHandle->HallTimeout = 150u;
 8004284:	2296      	movs	r2, #150	; 0x96
 8004286:	e795      	b.n	80041b4 <HALL_Init+0x40>
 8004288:	00002710 	.word	0x00002710

0800428c <HALL_Clear>:
*         the speed measurement process.
* @param  pHandle: handler of the current instance of the hall_speed_pos_fdbk component*
* @retval none
*/
__weak void HALL_Clear( HALL_Handle_t * pHandle )
{
 800428c:	b570      	push	{r4, r5, r6, lr}
  CLEAR_BIT(TIMx->DIER, TIM_DIER_CC1IE);
 800428e:	2502      	movs	r5, #2
  TIM_TypeDef * TIMx = pHandle->TIMx;
 8004290:	6ac3      	ldr	r3, [r0, #44]	; 0x2c

  /* Mask interrupts to insure a clean intialization */
  LL_TIM_DisableIT_CC1 ( TIMx );

  pHandle->RatioDec = false;
 8004292:	214a      	movs	r1, #74	; 0x4a
 8004294:	68da      	ldr	r2, [r3, #12]
  pHandle->RatioInc = false;

  /* Reset speed reliability */
  pHandle->SensorIsReliable = true;
 8004296:	2401      	movs	r4, #1
 8004298:	43aa      	bics	r2, r5
 800429a:	60da      	str	r2, [r3, #12]
  pHandle->RatioDec = false;
 800429c:	2200      	movs	r2, #0
 800429e:	5442      	strb	r2, [r0, r1]
  pHandle->RatioInc = false;
 80042a0:	3101      	adds	r1, #1
 80042a2:	5442      	strb	r2, [r0, r1]
  pHandle->SensorIsReliable = true;
 80042a4:	3902      	subs	r1, #2
 80042a6:	5444      	strb	r4, [r0, r1]

  /* Acceleration measurement not implemented.*/
  pHandle->_Super.hMecAccelUnitP = 0;

  pHandle->FirstCapt = 0u;
 80042a8:	264c      	movs	r6, #76	; 0x4c
  pHandle->_Super.hMecAccelUnitP = 0;
 80042aa:	2100      	movs	r1, #0
 80042ac:	8242      	strh	r2, [r0, #18]
  pHandle->FirstCapt = 0u;
 80042ae:	5581      	strb	r1, [r0, r6]
  pHandle->BufferFilled = 0u;
 80042b0:	3601      	adds	r6, #1
 80042b2:	5581      	strb	r1, [r0, r6]
  pHandle->OVFCounter = 0u;
 80042b4:	3601      	adds	r6, #1
 80042b6:	5581      	strb	r1, [r0, r6]

  pHandle->CompSpeed = 0;
 80042b8:	365e      	adds	r6, #94	; 0x5e
 80042ba:	5382      	strh	r2, [r0, r6]

  pHandle->Direction = POSITIVE;
 80042bc:	3e0a      	subs	r6, #10
 80042be:	5584      	strb	r4, [r0, r6]

  /* Initialize speed buffer index */
  pHandle->SpeedFIFOIdx = 0u;
 80042c0:	3e0a      	subs	r6, #10
 80042c2:	5581      	strb	r1, [r0, r6]


  /* Clear speed error counter */
  pHandle->_Super.bSpeedErrorNumber = 0;
 80042c4:	7001      	strb	r1, [r0, #0]
  
  /* Re-initialize partly the timer */
  LL_TIM_SetPrescaler ( TIMx, pHandle->HALLMaxRatio );
 80042c6:	21ae      	movs	r1, #174	; 0xae
 80042c8:	5a41      	ldrh	r1, [r0, r1]
  WRITE_REG(TIMx->PSC, Prescaler);
 80042ca:	6299      	str	r1, [r3, #40]	; 0x28
  WRITE_REG(TIMx->CNT, Counter);
 80042cc:	625a      	str	r2, [r3, #36]	; 0x24
  SET_BIT(TIMx->CR1, TIM_CR1_CEN);
 80042ce:	681a      	ldr	r2, [r3, #0]
 80042d0:	4322      	orrs	r2, r4
 80042d2:	601a      	str	r2, [r3, #0]
  SET_BIT(TIMx->DIER, TIM_DIER_CC1IE);
 80042d4:	68da      	ldr	r2, [r3, #12]
 80042d6:	432a      	orrs	r2, r5
 80042d8:	60da      	str	r2, [r3, #12]
* @retval none
*/
static void HALL_Init_Electrical_Angle( HALL_Handle_t * pHandle )
{

  if ( pHandle->SensorPlacement == DEGREES_120 )
 80042da:	2320      	movs	r3, #32
 80042dc:	5cc3      	ldrb	r3, [r0, r3]
 80042de:	2b00      	cmp	r3, #0
 80042e0:	d120      	bne.n	8004324 <HALL_Clear+0x98>
  {
    pHandle->HallState  = LL_GPIO_IsInputPinSet( pHandle->H3Port, pHandle->H3Pin ) << 2
 80042e2:	6c03      	ldr	r3, [r0, #64]	; 0x40
 80042e4:	6c46      	ldr	r6, [r0, #68]	; 0x44
  *         @arg @ref LL_GPIO_PIN_ALL
  * @retval State of bit (1 or 0).
  */
__STATIC_INLINE uint32_t LL_GPIO_IsInputPinSet(GPIO_TypeDef *GPIOx, uint32_t PinMask)
{
  return (READ_BIT(GPIOx->IDR, PinMask) == (PinMask));
 80042e6:	691a      	ldr	r2, [r3, #16]
                          | LL_GPIO_IsInputPinSet( pHandle->H2Port, pHandle->H2Pin ) << 1
 80042e8:	6b83      	ldr	r3, [r0, #56]	; 0x38
 80042ea:	6bc5      	ldr	r5, [r0, #60]	; 0x3c
 80042ec:	6919      	ldr	r1, [r3, #16]
 80042ee:	4032      	ands	r2, r6
 80042f0:	4029      	ands	r1, r5
 80042f2:	1b92      	subs	r2, r2, r6
 80042f4:	1b49      	subs	r1, r1, r5
 80042f6:	4256      	negs	r6, r2
 80042f8:	4172      	adcs	r2, r6
 80042fa:	424d      	negs	r5, r1
 80042fc:	4169      	adcs	r1, r5
                          | LL_GPIO_IsInputPinSet( pHandle->H1Port, pHandle->H1Pin );
 80042fe:	6b03      	ldr	r3, [r0, #48]	; 0x30
 8004300:	6b44      	ldr	r4, [r0, #52]	; 0x34
 8004302:	691b      	ldr	r3, [r3, #16]
                          | LL_GPIO_IsInputPinSet( pHandle->H2Port, pHandle->H2Pin ) << 1
 8004304:	0049      	lsls	r1, r1, #1
 8004306:	4023      	ands	r3, r4
    pHandle->HallState  = LL_GPIO_IsInputPinSet( pHandle->H3Port, pHandle->H3Pin ) << 2
 8004308:	0092      	lsls	r2, r2, #2
 800430a:	1b1b      	subs	r3, r3, r4
                          | LL_GPIO_IsInputPinSet( pHandle->H2Port, pHandle->H2Pin ) << 1
 800430c:	430a      	orrs	r2, r1
 800430e:	4259      	negs	r1, r3
 8004310:	414b      	adcs	r3, r1
                          | LL_GPIO_IsInputPinSet( pHandle->H1Port, pHandle->H1Pin );
 8004312:	4313      	orrs	r3, r2
 8004314:	22a6      	movs	r2, #166	; 0xa6
 8004316:	5483      	strb	r3, [r0, r2]
    pHandle->HallState  = ( LL_GPIO_IsInputPinSet( pHandle->H2Port, pHandle->H2Pin ) ^ 1 ) << 2
                          | LL_GPIO_IsInputPinSet( pHandle->H3Port, pHandle->H3Pin ) << 1
                          | LL_GPIO_IsInputPinSet( pHandle->H1Port, pHandle->H1Pin );
  }

  switch ( pHandle->HallState )
 8004318:	2b06      	cmp	r3, #6
 800431a:	d84c      	bhi.n	80043b6 <HALL_Clear+0x12a>
 800431c:	4a29      	ldr	r2, [pc, #164]	; (80043c4 <HALL_Clear+0x138>)
 800431e:	009b      	lsls	r3, r3, #2
 8004320:	58d3      	ldr	r3, [r2, r3]
 8004322:	469f      	mov	pc, r3
    pHandle->HallState  = ( LL_GPIO_IsInputPinSet( pHandle->H2Port, pHandle->H2Pin ) ^ 1 ) << 2
 8004324:	6b83      	ldr	r3, [r0, #56]	; 0x38
                          | LL_GPIO_IsInputPinSet( pHandle->H3Port, pHandle->H3Pin ) << 1
 8004326:	6c46      	ldr	r6, [r0, #68]	; 0x44
 8004328:	691a      	ldr	r2, [r3, #16]
 800432a:	6c03      	ldr	r3, [r0, #64]	; 0x40
                          | LL_GPIO_IsInputPinSet( pHandle->H1Port, pHandle->H1Pin );
 800432c:	6b45      	ldr	r5, [r0, #52]	; 0x34
 800432e:	6919      	ldr	r1, [r3, #16]
 8004330:	6b03      	ldr	r3, [r0, #48]	; 0x30
 8004332:	4031      	ands	r1, r6
 8004334:	691b      	ldr	r3, [r3, #16]
 8004336:	1b89      	subs	r1, r1, r6
 8004338:	402b      	ands	r3, r5
 800433a:	424e      	negs	r6, r1
 800433c:	4171      	adcs	r1, r6
 800433e:	1b5b      	subs	r3, r3, r5
 8004340:	425d      	negs	r5, r3
 8004342:	416b      	adcs	r3, r5
    pHandle->HallState  = ( LL_GPIO_IsInputPinSet( pHandle->H2Port, pHandle->H2Pin ) ^ 1 ) << 2
 8004344:	6bc4      	ldr	r4, [r0, #60]	; 0x3c
                          | LL_GPIO_IsInputPinSet( pHandle->H3Port, pHandle->H3Pin ) << 1
 8004346:	0049      	lsls	r1, r1, #1
 8004348:	4022      	ands	r2, r4
 800434a:	1b12      	subs	r2, r2, r4
                          | LL_GPIO_IsInputPinSet( pHandle->H1Port, pHandle->H1Pin );
 800434c:	430b      	orrs	r3, r1
 800434e:	4251      	negs	r1, r2
 8004350:	414a      	adcs	r2, r1
    pHandle->HallState  = ( LL_GPIO_IsInputPinSet( pHandle->H2Port, pHandle->H2Pin ) ^ 1 ) << 2
 8004352:	2104      	movs	r1, #4
 8004354:	0092      	lsls	r2, r2, #2
 8004356:	404a      	eors	r2, r1
                          | LL_GPIO_IsInputPinSet( pHandle->H1Port, pHandle->H1Pin );
 8004358:	4313      	orrs	r3, r2
 800435a:	b2db      	uxtb	r3, r3
 800435c:	e7da      	b.n	8004314 <HALL_Clear+0x88>
    case STATE_2:
      pHandle->_Super.hElAngle = ( int16_t )( pHandle->PhaseShift - S16_120_PHASE_SHIFT -
                                              S16_60_PHASE_SHIFT / 2 );
      break;
    case STATE_6:
      pHandle->_Super.hElAngle = ( int16_t )( pHandle->PhaseShift - S16_60_PHASE_SHIFT -
 800435e:	4a1a      	ldr	r2, [pc, #104]	; (80043c8 <HALL_Clear+0x13c>)
 8004360:	8c43      	ldrh	r3, [r0, #34]	; 0x22
 8004362:	4694      	mov	ip, r2
 8004364:	4463      	add	r3, ip
 8004366:	b21b      	sxth	r3, r3
 8004368:	8083      	strh	r3, [r0, #4]
      pHandle->SensorIsReliable = false;
      break;
  }

  /* Initialize the measured angle */
  pHandle->MeasuredElAngle = pHandle->_Super.hElAngle;
 800436a:	22aa      	movs	r2, #170	; 0xaa
 800436c:	5283      	strh	r3, [r0, r2]
}
 800436e:	bd70      	pop	{r4, r5, r6, pc}
      pHandle->_Super.hElAngle = ( int16_t )( pHandle->PhaseShift + S16_60_PHASE_SHIFT +
 8004370:	4a16      	ldr	r2, [pc, #88]	; (80043cc <HALL_Clear+0x140>)
 8004372:	8c43      	ldrh	r3, [r0, #34]	; 0x22
 8004374:	4694      	mov	ip, r2
 8004376:	4463      	add	r3, ip
 8004378:	b21b      	sxth	r3, r3
 800437a:	8083      	strh	r3, [r0, #4]
      break;
 800437c:	e7f5      	b.n	800436a <HALL_Clear+0xde>
      pHandle->_Super.hElAngle = ( int16_t )( pHandle->PhaseShift - S16_120_PHASE_SHIFT -
 800437e:	4a14      	ldr	r2, [pc, #80]	; (80043d0 <HALL_Clear+0x144>)
 8004380:	8c43      	ldrh	r3, [r0, #34]	; 0x22
 8004382:	4694      	mov	ip, r2
 8004384:	4463      	add	r3, ip
 8004386:	b21b      	sxth	r3, r3
 8004388:	8083      	strh	r3, [r0, #4]
      break;
 800438a:	e7ee      	b.n	800436a <HALL_Clear+0xde>
      pHandle->_Super.hElAngle = ( int16_t )( pHandle->PhaseShift + S16_120_PHASE_SHIFT +
 800438c:	4a11      	ldr	r2, [pc, #68]	; (80043d4 <HALL_Clear+0x148>)
 800438e:	8c43      	ldrh	r3, [r0, #34]	; 0x22
 8004390:	4694      	mov	ip, r2
 8004392:	4463      	add	r3, ip
 8004394:	b21b      	sxth	r3, r3
 8004396:	8083      	strh	r3, [r0, #4]
      break;
 8004398:	e7e7      	b.n	800436a <HALL_Clear+0xde>
      pHandle->_Super.hElAngle = ( int16_t )( pHandle->PhaseShift - S16_60_PHASE_SHIFT / 2 );
 800439a:	4a0f      	ldr	r2, [pc, #60]	; (80043d8 <HALL_Clear+0x14c>)
 800439c:	8c43      	ldrh	r3, [r0, #34]	; 0x22
 800439e:	4694      	mov	ip, r2
 80043a0:	4463      	add	r3, ip
 80043a2:	b21b      	sxth	r3, r3
 80043a4:	8083      	strh	r3, [r0, #4]
      break;
 80043a6:	e7e0      	b.n	800436a <HALL_Clear+0xde>
      pHandle->_Super.hElAngle = ( int16_t )( pHandle->PhaseShift + S16_60_PHASE_SHIFT / 2 );
 80043a8:	4a0c      	ldr	r2, [pc, #48]	; (80043dc <HALL_Clear+0x150>)
 80043aa:	8c43      	ldrh	r3, [r0, #34]	; 0x22
 80043ac:	4694      	mov	ip, r2
 80043ae:	4463      	add	r3, ip
 80043b0:	b21b      	sxth	r3, r3
 80043b2:	8083      	strh	r3, [r0, #4]
      break;
 80043b4:	e7d9      	b.n	800436a <HALL_Clear+0xde>
      pHandle->SensorIsReliable = false;
 80043b6:	2349      	movs	r3, #73	; 0x49
 80043b8:	2200      	movs	r2, #0
 80043ba:	54c2      	strb	r2, [r0, r3]
  pHandle->MeasuredElAngle = pHandle->_Super.hElAngle;
 80043bc:	2204      	movs	r2, #4
 80043be:	5e83      	ldrsh	r3, [r0, r2]
      break;
 80043c0:	e7d3      	b.n	800436a <HALL_Clear+0xde>
 80043c2:	46c0      	nop			; (mov r8, r8)
 80043c4:	08006814 	.word	0x08006814
 80043c8:	ffffc001 	.word	0xffffc001
 80043cc:	00003fff 	.word	0x00003fff
 80043d0:	ffff9556 	.word	0xffff9556
 80043d4:	00006aaa 	.word	0x00006aaa
 80043d8:	ffffeaab 	.word	0xffffeaab
 80043dc:	00001555 	.word	0x00001555

080043e0 <HALL_CalcElAngle>:
{
 80043e0:	b510      	push	{r4, lr}
  if ( pHandle->_Super.hElSpeedDpp != HALL_MAX_PSEUDO_SPEED )
 80043e2:	230e      	movs	r3, #14
 80043e4:	5ec1      	ldrsh	r1, [r0, r3]
 80043e6:	4b0c      	ldr	r3, [pc, #48]	; (8004418 <HALL_CalcElAngle+0x38>)
{
 80043e8:	0002      	movs	r2, r0
  if ( pHandle->_Super.hElSpeedDpp != HALL_MAX_PSEUDO_SPEED )
 80043ea:	4299      	cmp	r1, r3
 80043ec:	d00e      	beq.n	800440c <HALL_CalcElAngle+0x2c>
    pHandle->MeasuredElAngle += pHandle->_Super.hElSpeedDpp;
 80043ee:	24aa      	movs	r4, #170	; 0xaa
 80043f0:	5b00      	ldrh	r0, [r0, r4]
 80043f2:	b28b      	uxth	r3, r1
 80043f4:	1818      	adds	r0, r3, r0
 80043f6:	5310      	strh	r0, [r2, r4]
    pHandle->_Super.hElAngle += pHandle->_Super.hElSpeedDpp + pHandle->CompSpeed;
 80043f8:	8890      	ldrh	r0, [r2, #4]
 80043fa:	181b      	adds	r3, r3, r0
 80043fc:	20ac      	movs	r0, #172	; 0xac
 80043fe:	5a10      	ldrh	r0, [r2, r0]
 8004400:	1818      	adds	r0, r3, r0
    pHandle->PrevRotorFreq = pHandle->_Super.hElSpeedDpp;
 8004402:	23a0      	movs	r3, #160	; 0xa0
    pHandle->_Super.hElAngle += pHandle->_Super.hElSpeedDpp + pHandle->CompSpeed;
 8004404:	b200      	sxth	r0, r0
    pHandle->PrevRotorFreq = pHandle->_Super.hElSpeedDpp;
 8004406:	52d1      	strh	r1, [r2, r3]
 8004408:	8090      	strh	r0, [r2, #4]
}
 800440a:	bd10      	pop	{r4, pc}
    pHandle->_Super.hElAngle += pHandle->PrevRotorFreq;
 800440c:	21a0      	movs	r1, #160	; 0xa0
 800440e:	8883      	ldrh	r3, [r0, #4]
 8004410:	5a41      	ldrh	r1, [r0, r1]
 8004412:	185b      	adds	r3, r3, r1
 8004414:	b218      	sxth	r0, r3
 8004416:	e7f7      	b.n	8004408 <HALL_CalcElAngle+0x28>
 8004418:	00007fff 	.word	0x00007fff

0800441c <HALL_CalcAvrgMecSpeedUnit>:
  if ( pHandle->SensorIsReliable )
 800441c:	2349      	movs	r3, #73	; 0x49
{
 800441e:	b570      	push	{r4, r5, r6, lr}
  TIM_TypeDef * TIMx = pHandle->TIMx;
 8004420:	6ac2      	ldr	r2, [r0, #44]	; 0x2c
{
 8004422:	0004      	movs	r4, r0
  if ( pHandle->SensorIsReliable )
 8004424:	5cc0      	ldrb	r0, [r0, r3]
{
 8004426:	000d      	movs	r5, r1
  if ( pHandle->SensorIsReliable )
 8004428:	2800      	cmp	r0, #0
 800442a:	d00f      	beq.n	800444c <HALL_CalcAvrgMecSpeedUnit+0x30>
  return (uint32_t)(READ_REG(TIMx->PSC));
 800442c:	6a93      	ldr	r3, [r2, #40]	; 0x28
    if ( LL_TIM_GetPrescaler ( TIMx ) >= pHandle->HALLMaxRatio )
 800442e:	22ae      	movs	r2, #174	; 0xae
 8004430:	5aa2      	ldrh	r2, [r4, r2]
 8004432:	429a      	cmp	r2, r3
 8004434:	d811      	bhi.n	800445a <HALL_CalcAvrgMecSpeedUnit+0x3e>
      pHandle->_Super.hElSpeedDpp = 0;
 8004436:	2300      	movs	r3, #0
 8004438:	2600      	movs	r6, #0
 800443a:	81e3      	strh	r3, [r4, #14]
    bReliability = SPD_IsMecSpeedReliable( &pHandle->_Super, hMecSpeedUnit );
 800443c:	0029      	movs	r1, r5
 800443e:	0020      	movs	r0, r4
      *hMecSpeedUnit = 0;
 8004440:	802e      	strh	r6, [r5, #0]
    bReliability = SPD_IsMecSpeedReliable( &pHandle->_Super, hMecSpeedUnit );
 8004442:	f001 f915 	bl	8005670 <SPD_IsMecSpeedReliable>
  pHandle->_Super.hAvrMecSpeedUnit = *hMecSpeedUnit;
 8004446:	2200      	movs	r2, #0
 8004448:	5eab      	ldrsh	r3, [r5, r2]
 800444a:	e004      	b.n	8004456 <HALL_CalcAvrgMecSpeedUnit+0x3a>
    pHandle->_Super.bSpeedErrorNumber = pHandle->_Super.bMaximumSpeedErrorsNumber;
 800444c:	78e3      	ldrb	r3, [r4, #3]
    pHandle->_Super.hElSpeedDpp = 0;
 800444e:	81e0      	strh	r0, [r4, #14]
    pHandle->_Super.bSpeedErrorNumber = pHandle->_Super.bMaximumSpeedErrorsNumber;
 8004450:	7023      	strb	r3, [r4, #0]
    *hMecSpeedUnit = 0;
 8004452:	2300      	movs	r3, #0
 8004454:	8008      	strh	r0, [r1, #0]
  pHandle->_Super.hAvrMecSpeedUnit = *hMecSpeedUnit;
 8004456:	81a3      	strh	r3, [r4, #12]
}
 8004458:	bd70      	pop	{r4, r5, r6, pc}
      pHandle->_Super.hElSpeedDpp =  pHandle->AvrElSpeedDpp;
 800445a:	23a4      	movs	r3, #164	; 0xa4
 800445c:	5ee6      	ldrsh	r6, [r4, r3]
 800445e:	81e6      	strh	r6, [r4, #14]
      if (  pHandle->AvrElSpeedDpp == 0 )
 8004460:	2e00      	cmp	r6, #0
 8004462:	d0eb      	beq.n	800443c <HALL_CalcAvrgMecSpeedUnit+0x20>
        if (  pHandle->AvrElSpeedDpp != HALL_MAX_PSEUDO_SPEED )
 8004464:	4b12      	ldr	r3, [pc, #72]	; (80044b0 <HALL_CalcAvrgMecSpeedUnit+0x94>)
 8004466:	429e      	cmp	r6, r3
 8004468:	d01f      	beq.n	80044aa <HALL_CalcAvrgMecSpeedUnit+0x8e>
          if (pHandle->HallMtpa == true)
 800446a:	23c7      	movs	r3, #199	; 0xc7
 800446c:	5ce3      	ldrb	r3, [r4, r3]
            pHandle->CompSpeed = 0;
 800446e:	2000      	movs	r0, #0
          if (pHandle->HallMtpa == true)
 8004470:	2b00      	cmp	r3, #0
 8004472:	d00d      	beq.n	8004490 <HALL_CalcAvrgMecSpeedUnit+0x74>
 8004474:	23ac      	movs	r3, #172	; 0xac
 8004476:	52e0      	strh	r0, [r4, r3]
                                        ( int32_t )pHandle->_Super.hMeasurementFrequency * (int32_t) SPEED_UNIT ) /
 8004478:	8b63      	ldrh	r3, [r4, #26]
                                        (( int32_t ) pHandle->_Super.DPPConvFactor * ( int32_t )pHandle->_Super.bElToMecRatio ) );
 800447a:	69e1      	ldr	r1, [r4, #28]
          *hMecSpeedUnit = ( int16_t )( (  pHandle->AvrElSpeedDpp * 
 800447c:	4373      	muls	r3, r6
                                        ( int32_t )pHandle->_Super.hMeasurementFrequency * (int32_t) SPEED_UNIT ) /
 800447e:	0098      	lsls	r0, r3, #2
 8004480:	18c0      	adds	r0, r0, r3
                                        (( int32_t ) pHandle->_Super.DPPConvFactor * ( int32_t )pHandle->_Super.bElToMecRatio ) );
 8004482:	7863      	ldrb	r3, [r4, #1]
                                        ( int32_t )pHandle->_Super.hMeasurementFrequency * (int32_t) SPEED_UNIT ) /
 8004484:	0040      	lsls	r0, r0, #1
                                        (( int32_t ) pHandle->_Super.DPPConvFactor * ( int32_t )pHandle->_Super.bElToMecRatio ) );
 8004486:	4359      	muls	r1, r3
                                        ( int32_t )pHandle->_Super.hMeasurementFrequency * (int32_t) SPEED_UNIT ) /
 8004488:	f7fb fec8 	bl	800021c <__divsi3>
          *hMecSpeedUnit = ( int16_t )( (  pHandle->AvrElSpeedDpp * 
 800448c:	b206      	sxth	r6, r0
 800448e:	e7d5      	b.n	800443c <HALL_CalcAvrgMecSpeedUnit+0x20>
            pHandle->DeltaAngle = pHandle->MeasuredElAngle - pHandle->_Super.hElAngle;
 8004490:	33aa      	adds	r3, #170	; 0xaa
 8004492:	5ae0      	ldrh	r0, [r4, r3]
 8004494:	88a3      	ldrh	r3, [r4, #4]
 8004496:	1ac0      	subs	r0, r0, r3
 8004498:	23a8      	movs	r3, #168	; 0xa8
 800449a:	b200      	sxth	r0, r0
 800449c:	52e0      	strh	r0, [r4, r3]
              ( int32_t )( pHandle->PWMNbrPSamplingFreq ) );
 800449e:	331c      	adds	r3, #28
 80044a0:	5ae1      	ldrh	r1, [r4, r3]
            ( ( int32_t )( pHandle->DeltaAngle ) /
 80044a2:	f7fb febb 	bl	800021c <__divsi3>
            pHandle->CompSpeed = ( int16_t )
 80044a6:	b200      	sxth	r0, r0
 80044a8:	e7e4      	b.n	8004474 <HALL_CalcAvrgMecSpeedUnit+0x58>
          *hMecSpeedUnit = ( int16_t )pHandle->SatSpeed;
 80044aa:	23b0      	movs	r3, #176	; 0xb0
 80044ac:	5ee6      	ldrsh	r6, [r4, r3]
 80044ae:	e7c5      	b.n	800443c <HALL_CalcAvrgMecSpeedUnit+0x20>
 80044b0:	00007fff 	.word	0x00007fff

080044b4 <HALL_TIMx_CC_IRQHandler>:
{
 80044b4:	b5f0      	push	{r4, r5, r6, r7, lr}
 80044b6:	46c6      	mov	lr, r8
  if ( pHandle->SensorIsReliable )
 80044b8:	2349      	movs	r3, #73	; 0x49
{
 80044ba:	b500      	push	{lr}
  if ( pHandle->SensorIsReliable )
 80044bc:	5cc3      	ldrb	r3, [r0, r3]
{
 80044be:	0004      	movs	r4, r0
  if ( pHandle->SensorIsReliable )
 80044c0:	2b00      	cmp	r3, #0
 80044c2:	d043      	beq.n	800454c <HALL_TIMx_CC_IRQHandler+0x98>
    bPrevHallState = pHandle->HallState;
 80044c4:	23a6      	movs	r3, #166	; 0xa6
 80044c6:	5cc2      	ldrb	r2, [r0, r3]
    PrevDirection = pHandle->Direction;
 80044c8:	3b04      	subs	r3, #4
 80044ca:	56c3      	ldrsb	r3, [r0, r3]
 80044cc:	4698      	mov	r8, r3
    if ( pHandle->SensorPlacement == DEGREES_120 )
 80044ce:	2320      	movs	r3, #32
 80044d0:	5cc3      	ldrb	r3, [r0, r3]
 80044d2:	2b00      	cmp	r3, #0
 80044d4:	d03e      	beq.n	8004554 <HALL_TIMx_CC_IRQHandler+0xa0>
      pHandle->HallState  = (uint8_t) ((( LL_GPIO_IsInputPinSet( pHandle->H2Port, pHandle->H2Pin ) ^ 1 ) << 2)
 80044d6:	6b83      	ldr	r3, [r0, #56]	; 0x38
 80044d8:	6bc6      	ldr	r6, [r0, #60]	; 0x3c
 80044da:	6918      	ldr	r0, [r3, #16]
                            | (LL_GPIO_IsInputPinSet( pHandle->H3Port, pHandle->H3Pin ) << 1)
 80044dc:	6c23      	ldr	r3, [r4, #64]	; 0x40
 80044de:	6c61      	ldr	r1, [r4, #68]	; 0x44
 80044e0:	691d      	ldr	r5, [r3, #16]
                            | LL_GPIO_IsInputPinSet( pHandle->H1Port, pHandle->H1Pin ) );
 80044e2:	6b23      	ldr	r3, [r4, #48]	; 0x30
 80044e4:	400d      	ands	r5, r1
 80044e6:	1a6d      	subs	r5, r5, r1
 80044e8:	0029      	movs	r1, r5
 80044ea:	6b67      	ldr	r7, [r4, #52]	; 0x34
 80044ec:	691b      	ldr	r3, [r3, #16]
 80044ee:	424d      	negs	r5, r1
 80044f0:	414d      	adcs	r5, r1
 80044f2:	403b      	ands	r3, r7
 80044f4:	1bdb      	subs	r3, r3, r7
 80044f6:	425f      	negs	r7, r3
 80044f8:	417b      	adcs	r3, r7
 80044fa:	4030      	ands	r0, r6
                            | (LL_GPIO_IsInputPinSet( pHandle->H3Port, pHandle->H3Pin ) << 1)
 80044fc:	006d      	lsls	r5, r5, #1
 80044fe:	1b80      	subs	r0, r0, r6
      pHandle->HallState  = (uint8_t) ((( LL_GPIO_IsInputPinSet( pHandle->H2Port, pHandle->H2Pin ) ^ 1 ) << 2)
 8004500:	432b      	orrs	r3, r5
 8004502:	4245      	negs	r5, r0
 8004504:	4168      	adcs	r0, r5
 8004506:	2504      	movs	r5, #4
 8004508:	0080      	lsls	r0, r0, #2
 800450a:	4068      	eors	r0, r5
 800450c:	4303      	orrs	r3, r0
 800450e:	b2db      	uxtb	r3, r3
 8004510:	20a6      	movs	r0, #166	; 0xa6
  TIM_TypeDef * TIMx = pHandle->TIMx;
 8004512:	6ae5      	ldr	r5, [r4, #44]	; 0x2c
 8004514:	5423      	strb	r3, [r4, r0]
    switch ( pHandle->HallState )
 8004516:	2b06      	cmp	r3, #6
 8004518:	d803      	bhi.n	8004522 <HALL_TIMx_CC_IRQHandler+0x6e>
 800451a:	48ae      	ldr	r0, [pc, #696]	; (80047d4 <HALL_TIMx_CC_IRQHandler+0x320>)
 800451c:	009b      	lsls	r3, r3, #2
 800451e:	58c3      	ldr	r3, [r0, r3]
 8004520:	469f      	mov	pc, r3
        pHandle->SensorIsReliable = false;
 8004522:	2349      	movs	r3, #73	; 0x49
 8004524:	2200      	movs	r2, #0
 8004526:	54e2      	strb	r2, [r4, r3]
    PrevDirection = pHandle->Direction;
 8004528:	4646      	mov	r6, r8
    if (pHandle->HallMtpa == true)
 800452a:	23c7      	movs	r3, #199	; 0xc7
 800452c:	5ce3      	ldrb	r3, [r4, r3]
 800452e:	2b00      	cmp	r3, #0
 8004530:	d002      	beq.n	8004538 <HALL_TIMx_CC_IRQHandler+0x84>
      pHandle->_Super.hElAngle = pHandle->MeasuredElAngle;
 8004532:	23aa      	movs	r3, #170	; 0xaa
 8004534:	5ae3      	ldrh	r3, [r4, r3]
 8004536:	80a3      	strh	r3, [r4, #4]
    if ( pHandle->FirstCapt == 0u )
 8004538:	234c      	movs	r3, #76	; 0x4c
 800453a:	5ce2      	ldrb	r2, [r4, r3]
 800453c:	2a00      	cmp	r2, #0
 800453e:	d000      	beq.n	8004542 <HALL_TIMx_CC_IRQHandler+0x8e>
 8004540:	e079      	b.n	8004636 <HALL_TIMx_CC_IRQHandler+0x182>
      pHandle->FirstCapt++;
 8004542:	5ce2      	ldrb	r2, [r4, r3]
 8004544:	3201      	adds	r2, #1
 8004546:	b2d2      	uxtb	r2, r2
 8004548:	54e2      	strb	r2, [r4, r3]
  return (uint32_t)(READ_REG(TIMx->CCR1));
 800454a:	6b6b      	ldr	r3, [r5, #52]	; 0x34
}
 800454c:	2000      	movs	r0, #0
 800454e:	bc80      	pop	{r7}
 8004550:	46b8      	mov	r8, r7
 8004552:	bdf0      	pop	{r4, r5, r6, r7, pc}
      pHandle->HallState  =(uint8_t) ((LL_GPIO_IsInputPinSet( pHandle->H3Port, pHandle->H3Pin ) << 2)
 8004554:	6c03      	ldr	r3, [r0, #64]	; 0x40
 8004556:	6c40      	ldr	r0, [r0, #68]	; 0x44
                            | (LL_GPIO_IsInputPinSet( pHandle->H2Port, pHandle->H2Pin ) << 1)
 8004558:	6be7      	ldr	r7, [r4, #60]	; 0x3c
      pHandle->HallState  =(uint8_t) ((LL_GPIO_IsInputPinSet( pHandle->H3Port, pHandle->H3Pin ) << 2)
 800455a:	4684      	mov	ip, r0
 800455c:	4661      	mov	r1, ip
 800455e:	6918      	ldr	r0, [r3, #16]
                            | (LL_GPIO_IsInputPinSet( pHandle->H2Port, pHandle->H2Pin ) << 1)
 8004560:	6ba3      	ldr	r3, [r4, #56]	; 0x38
 8004562:	4008      	ands	r0, r1
 8004564:	1a40      	subs	r0, r0, r1
 8004566:	0001      	movs	r1, r0
 8004568:	691d      	ldr	r5, [r3, #16]
 800456a:	4248      	negs	r0, r1
 800456c:	4148      	adcs	r0, r1
 800456e:	403d      	ands	r5, r7
 8004570:	1bed      	subs	r5, r5, r7
 8004572:	426f      	negs	r7, r5
 8004574:	417d      	adcs	r5, r7
                            | LL_GPIO_IsInputPinSet( pHandle->H1Port, pHandle->H1Pin ) );
 8004576:	6b23      	ldr	r3, [r4, #48]	; 0x30
 8004578:	6b66      	ldr	r6, [r4, #52]	; 0x34
 800457a:	691b      	ldr	r3, [r3, #16]
                            | (LL_GPIO_IsInputPinSet( pHandle->H2Port, pHandle->H2Pin ) << 1)
 800457c:	006d      	lsls	r5, r5, #1
 800457e:	4033      	ands	r3, r6
      pHandle->HallState  =(uint8_t) ((LL_GPIO_IsInputPinSet( pHandle->H3Port, pHandle->H3Pin ) << 2)
 8004580:	0080      	lsls	r0, r0, #2
 8004582:	1b9b      	subs	r3, r3, r6
                            | (LL_GPIO_IsInputPinSet( pHandle->H2Port, pHandle->H2Pin ) << 1)
 8004584:	4328      	orrs	r0, r5
 8004586:	425d      	negs	r5, r3
 8004588:	416b      	adcs	r3, r5
      pHandle->HallState  =(uint8_t) ((LL_GPIO_IsInputPinSet( pHandle->H3Port, pHandle->H3Pin ) << 2)
 800458a:	4303      	orrs	r3, r0
 800458c:	e7c0      	b.n	8004510 <HALL_TIMx_CC_IRQHandler+0x5c>
        if ( bPrevHallState == STATE_2 )
 800458e:	2a02      	cmp	r2, #2
 8004590:	d100      	bne.n	8004594 <HALL_TIMx_CC_IRQHandler+0xe0>
 8004592:	e0ed      	b.n	8004770 <HALL_TIMx_CC_IRQHandler+0x2bc>
        else if ( bPrevHallState == STATE_4 )
 8004594:	2a04      	cmp	r2, #4
 8004596:	d1c7      	bne.n	8004528 <HALL_TIMx_CC_IRQHandler+0x74>
          pHandle->Direction = NEGATIVE;
 8004598:	23a2      	movs	r3, #162	; 0xa2
 800459a:	32fb      	adds	r2, #251	; 0xfb
 800459c:	54e2      	strb	r2, [r4, r3]
          pHandle->MeasuredElAngle = ( int16_t )( pHandle->PhaseShift - S16_60_PHASE_SHIFT );
 800459e:	8c63      	ldrh	r3, [r4, #34]	; 0x22
 80045a0:	4a8d      	ldr	r2, [pc, #564]	; (80047d8 <HALL_TIMx_CC_IRQHandler+0x324>)
 80045a2:	e038      	b.n	8004616 <HALL_TIMx_CC_IRQHandler+0x162>
        if ( bPrevHallState == STATE_4 )
 80045a4:	2a04      	cmp	r2, #4
 80045a6:	d100      	bne.n	80045aa <HALL_TIMx_CC_IRQHandler+0xf6>
 80045a8:	e0db      	b.n	8004762 <HALL_TIMx_CC_IRQHandler+0x2ae>
        else if ( bPrevHallState == STATE_1 )
 80045aa:	2a01      	cmp	r2, #1
 80045ac:	d1bc      	bne.n	8004528 <HALL_TIMx_CC_IRQHandler+0x74>
          pHandle->Direction = NEGATIVE;
 80045ae:	23a2      	movs	r3, #162	; 0xa2
 80045b0:	32fe      	adds	r2, #254	; 0xfe
 80045b2:	54e2      	strb	r2, [r4, r3]
          pHandle->MeasuredElAngle = ( int16_t )( pHandle->PhaseShift + S16_60_PHASE_SHIFT );
 80045b4:	8c63      	ldrh	r3, [r4, #34]	; 0x22
 80045b6:	4a89      	ldr	r2, [pc, #548]	; (80047dc <HALL_TIMx_CC_IRQHandler+0x328>)
 80045b8:	e02d      	b.n	8004616 <HALL_TIMx_CC_IRQHandler+0x162>
        if ( bPrevHallState == STATE_6 )
 80045ba:	2a06      	cmp	r2, #6
 80045bc:	d100      	bne.n	80045c0 <HALL_TIMx_CC_IRQHandler+0x10c>
 80045be:	e0ea      	b.n	8004796 <HALL_TIMx_CC_IRQHandler+0x2e2>
        else if ( bPrevHallState == STATE_5 )
 80045c0:	2a05      	cmp	r2, #5
 80045c2:	d1b1      	bne.n	8004528 <HALL_TIMx_CC_IRQHandler+0x74>
          pHandle->Direction = NEGATIVE;
 80045c4:	23a2      	movs	r3, #162	; 0xa2
 80045c6:	2601      	movs	r6, #1
 80045c8:	32fa      	adds	r2, #250	; 0xfa
 80045ca:	54e2      	strb	r2, [r4, r3]
          pHandle->MeasuredElAngle = ( int16_t )( pHandle->PhaseShift );
 80045cc:	2222      	movs	r2, #34	; 0x22
 80045ce:	5ea3      	ldrsh	r3, [r4, r2]
 80045d0:	4276      	negs	r6, r6
 80045d2:	e025      	b.n	8004620 <HALL_TIMx_CC_IRQHandler+0x16c>
        if ( bPrevHallState == STATE_1 )
 80045d4:	2a01      	cmp	r2, #1
 80045d6:	d100      	bne.n	80045da <HALL_TIMx_CC_IRQHandler+0x126>
 80045d8:	e0d4      	b.n	8004784 <HALL_TIMx_CC_IRQHandler+0x2d0>
        else if ( bPrevHallState == STATE_2 )
 80045da:	2a02      	cmp	r2, #2
 80045dc:	d1a4      	bne.n	8004528 <HALL_TIMx_CC_IRQHandler+0x74>
          pHandle->Direction = NEGATIVE;
 80045de:	23a2      	movs	r3, #162	; 0xa2
 80045e0:	32fd      	adds	r2, #253	; 0xfd
 80045e2:	54e2      	strb	r2, [r4, r3]
          pHandle->MeasuredElAngle = ( int16_t )( pHandle->PhaseShift + S16_120_PHASE_SHIFT +
 80045e4:	8c63      	ldrh	r3, [r4, #34]	; 0x22
 80045e6:	4a7e      	ldr	r2, [pc, #504]	; (80047e0 <HALL_TIMx_CC_IRQHandler+0x32c>)
 80045e8:	e015      	b.n	8004616 <HALL_TIMx_CC_IRQHandler+0x162>
        if ( bPrevHallState == STATE_3 )
 80045ea:	2a03      	cmp	r2, #3
 80045ec:	d100      	bne.n	80045f0 <HALL_TIMx_CC_IRQHandler+0x13c>
 80045ee:	e0e6      	b.n	80047be <HALL_TIMx_CC_IRQHandler+0x30a>
        else if ( bPrevHallState == STATE_6 )
 80045f0:	2a06      	cmp	r2, #6
 80045f2:	d199      	bne.n	8004528 <HALL_TIMx_CC_IRQHandler+0x74>
          pHandle->Direction = NEGATIVE;
 80045f4:	23a2      	movs	r3, #162	; 0xa2
 80045f6:	32f9      	adds	r2, #249	; 0xf9
 80045f8:	54e2      	strb	r2, [r4, r3]
          pHandle->MeasuredElAngle = ( int16_t )( pHandle->PhaseShift - S16_120_PHASE_SHIFT );
 80045fa:	8c63      	ldrh	r3, [r4, #34]	; 0x22
 80045fc:	4a79      	ldr	r2, [pc, #484]	; (80047e4 <HALL_TIMx_CC_IRQHandler+0x330>)
 80045fe:	e00a      	b.n	8004616 <HALL_TIMx_CC_IRQHandler+0x162>
        if ( bPrevHallState == STATE_5 )
 8004600:	2a05      	cmp	r2, #5
 8004602:	d100      	bne.n	8004606 <HALL_TIMx_CC_IRQHandler+0x152>
 8004604:	e0d1      	b.n	80047aa <HALL_TIMx_CC_IRQHandler+0x2f6>
        else if ( bPrevHallState == STATE_3 )
 8004606:	2a03      	cmp	r2, #3
 8004608:	d000      	beq.n	800460c <HALL_TIMx_CC_IRQHandler+0x158>
 800460a:	e78d      	b.n	8004528 <HALL_TIMx_CC_IRQHandler+0x74>
          pHandle->Direction = NEGATIVE;
 800460c:	23a2      	movs	r3, #162	; 0xa2
 800460e:	32fc      	adds	r2, #252	; 0xfc
 8004610:	54e2      	strb	r2, [r4, r3]
          pHandle->MeasuredElAngle = ( int16_t )( pHandle->PhaseShift + S16_120_PHASE_SHIFT );
 8004612:	8c63      	ldrh	r3, [r4, #34]	; 0x22
 8004614:	4a74      	ldr	r2, [pc, #464]	; (80047e8 <HALL_TIMx_CC_IRQHandler+0x334>)
          pHandle->MeasuredElAngle = ( int16_t )( pHandle->PhaseShift - S16_120_PHASE_SHIFT );
 8004616:	4694      	mov	ip, r2
 8004618:	2601      	movs	r6, #1
 800461a:	4463      	add	r3, ip
 800461c:	b21b      	sxth	r3, r3
 800461e:	4276      	negs	r6, r6
          pHandle->MeasuredElAngle = ( int16_t )( pHandle->PhaseShift + S16_120_PHASE_SHIFT +
 8004620:	22aa      	movs	r2, #170	; 0xaa
 8004622:	52a3      	strh	r3, [r4, r2]
    if (pHandle->Direction != PrevDirection)
 8004624:	45b0      	cmp	r8, r6
 8004626:	d100      	bne.n	800462a <HALL_TIMx_CC_IRQHandler+0x176>
 8004628:	e77f      	b.n	800452a <HALL_TIMx_CC_IRQHandler+0x76>
      pHandle->BufferFilled = 0 ;
 800462a:	2300      	movs	r3, #0
 800462c:	3a5d      	subs	r2, #93	; 0x5d
 800462e:	54a3      	strb	r3, [r4, r2]
      pHandle->SpeedFIFOIdx = 0;
 8004630:	324b      	adds	r2, #75	; 0x4b
 8004632:	54a3      	strb	r3, [r4, r2]
 8004634:	e779      	b.n	800452a <HALL_TIMx_CC_IRQHandler+0x76>
      if ( pHandle->BufferFilled < pHandle->SpeedBufferSize )
 8004636:	234d      	movs	r3, #77	; 0x4d
 8004638:	2126      	movs	r1, #38	; 0x26
 800463a:	5ce2      	ldrb	r2, [r4, r3]
 800463c:	5c60      	ldrb	r0, [r4, r1]
 800463e:	4282      	cmp	r2, r0
 8004640:	d203      	bcs.n	800464a <HALL_TIMx_CC_IRQHandler+0x196>
        pHandle->BufferFilled++;
 8004642:	5ce2      	ldrb	r2, [r4, r3]
 8004644:	3201      	adds	r2, #1
 8004646:	b2d2      	uxtb	r2, r2
 8004648:	54e2      	strb	r2, [r4, r3]
 800464a:	6b6b      	ldr	r3, [r5, #52]	; 0x34
      wCaptBuf += ( uint32_t )pHandle->OVFCounter * 0x10000uL;
 800464c:	274e      	movs	r7, #78	; 0x4e
 800464e:	469c      	mov	ip, r3
 8004650:	4662      	mov	r2, ip
  return (uint32_t)(READ_REG(TIMx->PSC));
 8004652:	6aab      	ldr	r3, [r5, #40]	; 0x28
 8004654:	0411      	lsls	r1, r2, #16
      hPrscBuf =  LL_TIM_GetPrescaler ( TIMx );
 8004656:	b29b      	uxth	r3, r3
 8004658:	4698      	mov	r8, r3
      wCaptBuf += ( uint32_t )pHandle->OVFCounter * 0x10000uL;
 800465a:	5de3      	ldrb	r3, [r4, r7]
 800465c:	0c09      	lsrs	r1, r1, #16
 800465e:	041b      	lsls	r3, r3, #16
 8004660:	18c9      	adds	r1, r1, r3
      if ( pHandle->OVFCounter != 0u )
 8004662:	5de3      	ldrb	r3, [r4, r7]
 8004664:	b2df      	uxtb	r7, r3
 8004666:	2b00      	cmp	r3, #0
 8004668:	d03c      	beq.n	80046e4 <HALL_TIMx_CC_IRQHandler+0x230>
        hAux = hPrscBuf + 1u;
 800466a:	4643      	mov	r3, r8
 800466c:	3301      	adds	r3, #1
        wCaptBuf *= hAux;
 800466e:	b29b      	uxth	r3, r3
 8004670:	4359      	muls	r1, r3
        if ( pHandle->RatioInc )
 8004672:	234b      	movs	r3, #75	; 0x4b
 8004674:	5ce2      	ldrb	r2, [r4, r3]
 8004676:	2a00      	cmp	r2, #0
 8004678:	d03e      	beq.n	80046f8 <HALL_TIMx_CC_IRQHandler+0x244>
          pHandle->RatioInc = false;  /* Previous capture caused overflow */
 800467a:	2200      	movs	r2, #0
 800467c:	54e2      	strb	r2, [r4, r3]
        if ( wCaptBuf < pHandle->MinPeriod )
 800467e:	23bc      	movs	r3, #188	; 0xbc
 8004680:	58e3      	ldr	r3, [r4, r3]
 8004682:	428b      	cmp	r3, r1
 8004684:	d82a      	bhi.n	80046dc <HALL_TIMx_CC_IRQHandler+0x228>
          pHandle->ElPeriodSum -= pHandle->SensorPeriod[pHandle->SpeedFIFOIdx]; /* value we gonna removed from the accumulator */
 8004686:	229c      	movs	r2, #156	; 0x9c
 8004688:	2398      	movs	r3, #152	; 0x98
 800468a:	4694      	mov	ip, r2
 800468c:	5ce3      	ldrb	r3, [r4, r3]
 800468e:	58a2      	ldr	r2, [r4, r2]
 8004690:	009d      	lsls	r5, r3, #2
 8004692:	1965      	adds	r5, r4, r5
 8004694:	6d2f      	ldr	r7, [r5, #80]	; 0x50
 8004696:	1bd2      	subs	r2, r2, r7
 8004698:	4667      	mov	r7, ip
 800469a:	51e2      	str	r2, [r4, r7]
          if ( wCaptBuf >= pHandle->MaxPeriod )
 800469c:	371c      	adds	r7, #28
 800469e:	59e7      	ldr	r7, [r4, r7]
 80046a0:	428f      	cmp	r7, r1
 80046a2:	d84a      	bhi.n	800473a <HALL_TIMx_CC_IRQHandler+0x286>
            pHandle->SensorPeriod[pHandle->SpeedFIFOIdx] = pHandle->MaxPeriod*pHandle->Direction; 
 80046a4:	4377      	muls	r7, r6
 80046a6:	46b8      	mov	r8, r7
 80046a8:	4642      	mov	r2, r8
          pHandle->SpeedFIFOIdx++;
 80046aa:	3301      	adds	r3, #1
 80046ac:	b2db      	uxtb	r3, r3
 80046ae:	652a      	str	r2, [r5, #80]	; 0x50
            pHandle->SpeedFIFOIdx = 0u;
 80046b0:	1ac2      	subs	r2, r0, r3
 80046b2:	1e55      	subs	r5, r2, #1
 80046b4:	41aa      	sbcs	r2, r5
 80046b6:	4252      	negs	r2, r2
 80046b8:	4013      	ands	r3, r2
 80046ba:	2298      	movs	r2, #152	; 0x98
 80046bc:	54a3      	strb	r3, [r4, r2]
          if ( pHandle->SensorIsReliable) 
 80046be:	2349      	movs	r3, #73	; 0x49
 80046c0:	5ce3      	ldrb	r3, [r4, r3]
 80046c2:	2b00      	cmp	r3, #0
 80046c4:	d036      	beq.n	8004734 <HALL_TIMx_CC_IRQHandler+0x280>
            if ( pHandle->BufferFilled < pHandle->SpeedBufferSize )
 80046c6:	234d      	movs	r3, #77	; 0x4d
 80046c8:	5ce3      	ldrb	r3, [r4, r3]
 80046ca:	4298      	cmp	r0, r3
 80046cc:	d93c      	bls.n	8004748 <HALL_TIMx_CC_IRQHandler+0x294>
              pHandle->AvrElSpeedDpp = ( int16_t ) (( pHandle->PseudoFreqConv / wCaptBuf )*pHandle->Direction);
 80046ce:	23b4      	movs	r3, #180	; 0xb4
 80046d0:	58e0      	ldr	r0, [r4, r3]
 80046d2:	f7fb fd19 	bl	8000108 <__udivsi3>
 80046d6:	23a4      	movs	r3, #164	; 0xa4
 80046d8:	4370      	muls	r0, r6
 80046da:	52e0      	strh	r0, [r4, r3]
      pHandle->OVFCounter = 0u;
 80046dc:	234e      	movs	r3, #78	; 0x4e
 80046de:	2200      	movs	r2, #0
 80046e0:	54e2      	strb	r2, [r4, r3]
  return MC_NULL;
 80046e2:	e733      	b.n	800454c <HALL_TIMx_CC_IRQHandler+0x98>
        if ( pHandle->RatioDec ) /* and don't decrease it again */
 80046e4:	224a      	movs	r2, #74	; 0x4a
 80046e6:	5ca3      	ldrb	r3, [r4, r2]
 80046e8:	2b00      	cmp	r3, #0
 80046ea:	d010      	beq.n	800470e <HALL_TIMx_CC_IRQHandler+0x25a>
          hAux = hPrscBuf + 2u;
 80046ec:	4643      	mov	r3, r8
 80046ee:	3302      	adds	r3, #2
          wCaptBuf *= hAux;
 80046f0:	b29b      	uxth	r3, r3
 80046f2:	4359      	muls	r1, r3
          pHandle->RatioDec = false;
 80046f4:	54a7      	strb	r7, [r4, r2]
 80046f6:	e7c2      	b.n	800467e <HALL_TIMx_CC_IRQHandler+0x1ca>
          if ( LL_TIM_GetPrescaler ( TIMx ) < pHandle->HALLMaxRatio ) /* Avoid OVF w/ very low freq */
 80046f8:	27ae      	movs	r7, #174	; 0xae
 80046fa:	6aaa      	ldr	r2, [r5, #40]	; 0x28
 80046fc:	5be7      	ldrh	r7, [r4, r7]
 80046fe:	4297      	cmp	r7, r2
 8004700:	d9bd      	bls.n	800467e <HALL_TIMx_CC_IRQHandler+0x1ca>
 8004702:	6aaa      	ldr	r2, [r5, #40]	; 0x28
            LL_TIM_SetPrescaler ( TIMx, LL_TIM_GetPrescaler ( TIMx ) + 1 ); /* To avoid OVF during speed decrease */
 8004704:	3201      	adds	r2, #1
  WRITE_REG(TIMx->PSC, Prescaler);
 8004706:	62aa      	str	r2, [r5, #40]	; 0x28
            pHandle->RatioInc = true;   /* new prsc value updated at next capture only */
 8004708:	2201      	movs	r2, #1
 800470a:	54e2      	strb	r2, [r4, r3]
 800470c:	e7b7      	b.n	800467e <HALL_TIMx_CC_IRQHandler+0x1ca>
          uint16_t hAux = hPrscBuf + 1u;
 800470e:	4643      	mov	r3, r8
 8004710:	3301      	adds	r3, #1
          wCaptBuf *= hAux;
 8004712:	b29b      	uxth	r3, r3
 8004714:	4359      	muls	r1, r3
          if ( hHighSpeedCapture < LOW_RES_THRESHOLD ) /* If capture range correct */
 8004716:	4663      	mov	r3, ip
 8004718:	27aa      	movs	r7, #170	; 0xaa
 800471a:	b29b      	uxth	r3, r3
 800471c:	01ff      	lsls	r7, r7, #7
 800471e:	42bb      	cmp	r3, r7
 8004720:	d2ad      	bcs.n	800467e <HALL_TIMx_CC_IRQHandler+0x1ca>
  return (uint32_t)(READ_REG(TIMx->PSC));
 8004722:	6aab      	ldr	r3, [r5, #40]	; 0x28
            if ( LL_TIM_GetPrescaler ( TIMx ) > 0u ) /* or prescaler cannot be further reduced */
 8004724:	2b00      	cmp	r3, #0
 8004726:	d0aa      	beq.n	800467e <HALL_TIMx_CC_IRQHandler+0x1ca>
 8004728:	6aab      	ldr	r3, [r5, #40]	; 0x28
              LL_TIM_SetPrescaler ( TIMx, LL_TIM_GetPrescaler ( TIMx ) - 1 ); /* Increase accuracy by decreasing prsc */
 800472a:	3b01      	subs	r3, #1
  WRITE_REG(TIMx->PSC, Prescaler);
 800472c:	62ab      	str	r3, [r5, #40]	; 0x28
              pHandle->RatioDec = true;
 800472e:	2301      	movs	r3, #1
 8004730:	54a3      	strb	r3, [r4, r2]
 8004732:	e7a4      	b.n	800467e <HALL_TIMx_CC_IRQHandler+0x1ca>
            pHandle->AvrElSpeedDpp = 0;
 8004734:	22a4      	movs	r2, #164	; 0xa4
 8004736:	52a3      	strh	r3, [r4, r2]
 8004738:	e7d0      	b.n	80046dc <HALL_TIMx_CC_IRQHandler+0x228>
            pHandle->SensorPeriod[pHandle->SpeedFIFOIdx] *= pHandle->Direction;
 800473a:	0037      	movs	r7, r6
 800473c:	434f      	muls	r7, r1
 800473e:	46b8      	mov	r8, r7
            pHandle->ElPeriodSum += pHandle->SensorPeriod[pHandle->SpeedFIFOIdx];
 8004740:	4667      	mov	r7, ip
 8004742:	4442      	add	r2, r8
 8004744:	51e2      	str	r2, [r4, r7]
 8004746:	e7af      	b.n	80046a8 <HALL_TIMx_CC_IRQHandler+0x1f4>
              pHandle->AvrElSpeedDpp = ( int16_t )((int32_t) pHandle->PseudoFreqConv / ( pHandle->ElPeriodSum / pHandle->SpeedBufferSize )); /* Average value */
 8004748:	239c      	movs	r3, #156	; 0x9c
 800474a:	0001      	movs	r1, r0
 800474c:	58e0      	ldr	r0, [r4, r3]
 800474e:	f7fb fd65 	bl	800021c <__divsi3>
 8004752:	23b4      	movs	r3, #180	; 0xb4
 8004754:	0001      	movs	r1, r0
 8004756:	58e0      	ldr	r0, [r4, r3]
 8004758:	f7fb fd60 	bl	800021c <__divsi3>
 800475c:	23a4      	movs	r3, #164	; 0xa4
 800475e:	52e0      	strh	r0, [r4, r3]
 8004760:	e7bc      	b.n	80046dc <HALL_TIMx_CC_IRQHandler+0x228>
          pHandle->Direction = POSITIVE;
 8004762:	23a2      	movs	r3, #162	; 0xa2
 8004764:	3a03      	subs	r2, #3
 8004766:	54e2      	strb	r2, [r4, r3]
          pHandle->MeasuredElAngle = pHandle->PhaseShift;
 8004768:	2601      	movs	r6, #1
 800476a:	2222      	movs	r2, #34	; 0x22
 800476c:	5ea3      	ldrsh	r3, [r4, r2]
 800476e:	e757      	b.n	8004620 <HALL_TIMx_CC_IRQHandler+0x16c>
          pHandle->Direction = POSITIVE;
 8004770:	23a2      	movs	r3, #162	; 0xa2
 8004772:	3a01      	subs	r2, #1
 8004774:	54e2      	strb	r2, [r4, r3]
          pHandle->MeasuredElAngle = ( int16_t )( pHandle->PhaseShift - S16_120_PHASE_SHIFT );
 8004776:	4a1b      	ldr	r2, [pc, #108]	; (80047e4 <HALL_TIMx_CC_IRQHandler+0x330>)
 8004778:	8c63      	ldrh	r3, [r4, #34]	; 0x22
 800477a:	4694      	mov	ip, r2
 800477c:	4463      	add	r3, ip
 800477e:	2601      	movs	r6, #1
 8004780:	b21b      	sxth	r3, r3
 8004782:	e74d      	b.n	8004620 <HALL_TIMx_CC_IRQHandler+0x16c>
          pHandle->Direction = POSITIVE;
 8004784:	23a2      	movs	r3, #162	; 0xa2
 8004786:	54e2      	strb	r2, [r4, r3]
          pHandle->MeasuredElAngle = ( int16_t )( pHandle->PhaseShift + S16_120_PHASE_SHIFT );
 8004788:	4a17      	ldr	r2, [pc, #92]	; (80047e8 <HALL_TIMx_CC_IRQHandler+0x334>)
 800478a:	8c63      	ldrh	r3, [r4, #34]	; 0x22
 800478c:	4694      	mov	ip, r2
 800478e:	4463      	add	r3, ip
 8004790:	2601      	movs	r6, #1
 8004792:	b21b      	sxth	r3, r3
 8004794:	e744      	b.n	8004620 <HALL_TIMx_CC_IRQHandler+0x16c>
          pHandle->Direction = POSITIVE;
 8004796:	23a2      	movs	r3, #162	; 0xa2
 8004798:	3a05      	subs	r2, #5
 800479a:	54e2      	strb	r2, [r4, r3]
          pHandle->MeasuredElAngle = ( int16_t )( pHandle->PhaseShift - S16_60_PHASE_SHIFT );
 800479c:	4a0e      	ldr	r2, [pc, #56]	; (80047d8 <HALL_TIMx_CC_IRQHandler+0x324>)
 800479e:	8c63      	ldrh	r3, [r4, #34]	; 0x22
 80047a0:	4694      	mov	ip, r2
 80047a2:	4463      	add	r3, ip
 80047a4:	2601      	movs	r6, #1
 80047a6:	b21b      	sxth	r3, r3
 80047a8:	e73a      	b.n	8004620 <HALL_TIMx_CC_IRQHandler+0x16c>
          pHandle->Direction = POSITIVE;
 80047aa:	23a2      	movs	r3, #162	; 0xa2
 80047ac:	3a04      	subs	r2, #4
 80047ae:	54e2      	strb	r2, [r4, r3]
          pHandle->MeasuredElAngle = pHandle->PhaseShift + S16_60_PHASE_SHIFT;
 80047b0:	4a0a      	ldr	r2, [pc, #40]	; (80047dc <HALL_TIMx_CC_IRQHandler+0x328>)
 80047b2:	8c63      	ldrh	r3, [r4, #34]	; 0x22
 80047b4:	4694      	mov	ip, r2
 80047b6:	4463      	add	r3, ip
 80047b8:	2601      	movs	r6, #1
 80047ba:	b21b      	sxth	r3, r3
 80047bc:	e730      	b.n	8004620 <HALL_TIMx_CC_IRQHandler+0x16c>
          pHandle->Direction = POSITIVE;
 80047be:	23a2      	movs	r3, #162	; 0xa2
 80047c0:	3a02      	subs	r2, #2
 80047c2:	54e2      	strb	r2, [r4, r3]
                                                  + S16_60_PHASE_SHIFT );
 80047c4:	4a06      	ldr	r2, [pc, #24]	; (80047e0 <HALL_TIMx_CC_IRQHandler+0x32c>)
 80047c6:	8c63      	ldrh	r3, [r4, #34]	; 0x22
 80047c8:	4694      	mov	ip, r2
 80047ca:	4463      	add	r3, ip
 80047cc:	2601      	movs	r6, #1
          pHandle->MeasuredElAngle = ( int16_t )( pHandle->PhaseShift + S16_120_PHASE_SHIFT
 80047ce:	b21b      	sxth	r3, r3
 80047d0:	e726      	b.n	8004620 <HALL_TIMx_CC_IRQHandler+0x16c>
 80047d2:	46c0      	nop			; (mov r8, r8)
 80047d4:	08006830 	.word	0x08006830
 80047d8:	ffffd556 	.word	0xffffd556
 80047dc:	00002aaa 	.word	0x00002aaa
 80047e0:	00007fff 	.word	0x00007fff
 80047e4:	ffffaaab 	.word	0xffffaaab
 80047e8:	00005555 	.word	0x00005555

080047ec <HALL_TIMx_UP_IRQHandler>:
  if ( pHandle->SensorIsReliable )
 80047ec:	2349      	movs	r3, #73	; 0x49
{
 80047ee:	b570      	push	{r4, r5, r6, lr}
  if ( pHandle->SensorIsReliable )
 80047f0:	5cc3      	ldrb	r3, [r0, r3]
{
 80047f2:	0004      	movs	r4, r0
  TIM_TypeDef * TIMx = pHandle->TIMx;
 80047f4:	6ac1      	ldr	r1, [r0, #44]	; 0x2c
  if ( pHandle->SensorIsReliable )
 80047f6:	2b00      	cmp	r3, #0
 80047f8:	d017      	beq.n	800482a <HALL_TIMx_UP_IRQHandler+0x3e>
    pHandle->OVFCounter++;
 80047fa:	224e      	movs	r2, #78	; 0x4e
 80047fc:	5c83      	ldrb	r3, [r0, r2]
 80047fe:	3301      	adds	r3, #1
 8004800:	b2db      	uxtb	r3, r3
 8004802:	5483      	strb	r3, [r0, r2]
  return (uint32_t)(READ_REG(TIMx->PSC));
 8004804:	6a8b      	ldr	r3, [r1, #40]	; 0x28
    hMaxTimerOverflow = ( uint16_t )( ( ( uint32_t )pHandle->HallTimeout * pHandle->OvfFreq )
 8004806:	21c2      	movs	r1, #194	; 0xc2
                                      / ( ( LL_TIM_GetPrescaler ( TIMx ) + 1 ) * 1000u ) );
 8004808:	3301      	adds	r3, #1
    if ( pHandle->OVFCounter >= hMaxTimerOverflow )
 800480a:	5c85      	ldrb	r5, [r0, r2]
    hMaxTimerOverflow = ( uint16_t )( ( ( uint32_t )pHandle->HallTimeout * pHandle->OvfFreq )
 800480c:	3272      	adds	r2, #114	; 0x72
 800480e:	5a82      	ldrh	r2, [r0, r2]
 8004810:	5a40      	ldrh	r0, [r0, r1]
                                      / ( ( LL_TIM_GetPrescaler ( TIMx ) + 1 ) * 1000u ) );
 8004812:	0159      	lsls	r1, r3, #5
 8004814:	1ac9      	subs	r1, r1, r3
 8004816:	0089      	lsls	r1, r1, #2
 8004818:	18c9      	adds	r1, r1, r3
    hMaxTimerOverflow = ( uint16_t )( ( ( uint32_t )pHandle->HallTimeout * pHandle->OvfFreq )
 800481a:	4350      	muls	r0, r2
                                      / ( ( LL_TIM_GetPrescaler ( TIMx ) + 1 ) * 1000u ) );
 800481c:	00c9      	lsls	r1, r1, #3
 800481e:	f7fb fc73 	bl	8000108 <__udivsi3>
    if ( pHandle->OVFCounter >= hMaxTimerOverflow )
 8004822:	b2ed      	uxtb	r5, r5
 8004824:	b280      	uxth	r0, r0
 8004826:	4285      	cmp	r5, r0
 8004828:	d201      	bcs.n	800482e <HALL_TIMx_UP_IRQHandler+0x42>
}
 800482a:	2000      	movs	r0, #0
 800482c:	bd70      	pop	{r4, r5, r6, pc}
      pHandle->_Super.hElSpeedDpp = 0;
 800482e:	2300      	movs	r3, #0
 8004830:	81e3      	strh	r3, [r4, #14]
  if ( pHandle->SensorPlacement == DEGREES_120 )
 8004832:	3320      	adds	r3, #32
 8004834:	5ce3      	ldrb	r3, [r4, r3]
 8004836:	2b00      	cmp	r3, #0
 8004838:	d120      	bne.n	800487c <HALL_TIMx_UP_IRQHandler+0x90>
    pHandle->HallState  = LL_GPIO_IsInputPinSet( pHandle->H3Port, pHandle->H3Pin ) << 2
 800483a:	6c23      	ldr	r3, [r4, #64]	; 0x40
 800483c:	6c66      	ldr	r6, [r4, #68]	; 0x44
 800483e:	691a      	ldr	r2, [r3, #16]
                          | LL_GPIO_IsInputPinSet( pHandle->H2Port, pHandle->H2Pin ) << 1
 8004840:	6ba3      	ldr	r3, [r4, #56]	; 0x38
 8004842:	6be5      	ldr	r5, [r4, #60]	; 0x3c
 8004844:	6919      	ldr	r1, [r3, #16]
 8004846:	4032      	ands	r2, r6
 8004848:	4029      	ands	r1, r5
 800484a:	1b92      	subs	r2, r2, r6
 800484c:	1b49      	subs	r1, r1, r5
 800484e:	4256      	negs	r6, r2
 8004850:	4172      	adcs	r2, r6
 8004852:	424d      	negs	r5, r1
 8004854:	4169      	adcs	r1, r5
                          | LL_GPIO_IsInputPinSet( pHandle->H1Port, pHandle->H1Pin );
 8004856:	6b23      	ldr	r3, [r4, #48]	; 0x30
 8004858:	6b60      	ldr	r0, [r4, #52]	; 0x34
 800485a:	691b      	ldr	r3, [r3, #16]
                          | LL_GPIO_IsInputPinSet( pHandle->H2Port, pHandle->H2Pin ) << 1
 800485c:	0049      	lsls	r1, r1, #1
 800485e:	4003      	ands	r3, r0
    pHandle->HallState  = LL_GPIO_IsInputPinSet( pHandle->H3Port, pHandle->H3Pin ) << 2
 8004860:	0092      	lsls	r2, r2, #2
 8004862:	1a1b      	subs	r3, r3, r0
                          | LL_GPIO_IsInputPinSet( pHandle->H2Port, pHandle->H2Pin ) << 1
 8004864:	430a      	orrs	r2, r1
 8004866:	4259      	negs	r1, r3
 8004868:	414b      	adcs	r3, r1
                          | LL_GPIO_IsInputPinSet( pHandle->H1Port, pHandle->H1Pin );
 800486a:	4313      	orrs	r3, r2
 800486c:	22a6      	movs	r2, #166	; 0xa6
 800486e:	54a3      	strb	r3, [r4, r2]
  switch ( pHandle->HallState )
 8004870:	2b06      	cmp	r3, #6
 8004872:	d86a      	bhi.n	800494a <HALL_TIMx_UP_IRQHandler+0x15e>
 8004874:	4a39      	ldr	r2, [pc, #228]	; (800495c <HALL_TIMx_UP_IRQHandler+0x170>)
 8004876:	009b      	lsls	r3, r3, #2
 8004878:	58d3      	ldr	r3, [r2, r3]
 800487a:	469f      	mov	pc, r3
    pHandle->HallState  = ( LL_GPIO_IsInputPinSet( pHandle->H2Port, pHandle->H2Pin ) ^ 1 ) << 2
 800487c:	6ba3      	ldr	r3, [r4, #56]	; 0x38
                          | LL_GPIO_IsInputPinSet( pHandle->H3Port, pHandle->H3Pin ) << 1
 800487e:	6c66      	ldr	r6, [r4, #68]	; 0x44
 8004880:	691a      	ldr	r2, [r3, #16]
 8004882:	6c23      	ldr	r3, [r4, #64]	; 0x40
                          | LL_GPIO_IsInputPinSet( pHandle->H1Port, pHandle->H1Pin );
 8004884:	6b65      	ldr	r5, [r4, #52]	; 0x34
 8004886:	6919      	ldr	r1, [r3, #16]
 8004888:	6b23      	ldr	r3, [r4, #48]	; 0x30
 800488a:	4031      	ands	r1, r6
 800488c:	691b      	ldr	r3, [r3, #16]
 800488e:	1b89      	subs	r1, r1, r6
 8004890:	402b      	ands	r3, r5
 8004892:	424e      	negs	r6, r1
 8004894:	4171      	adcs	r1, r6
 8004896:	1b5b      	subs	r3, r3, r5
 8004898:	425d      	negs	r5, r3
 800489a:	416b      	adcs	r3, r5
    pHandle->HallState  = ( LL_GPIO_IsInputPinSet( pHandle->H2Port, pHandle->H2Pin ) ^ 1 ) << 2
 800489c:	6be0      	ldr	r0, [r4, #60]	; 0x3c
                          | LL_GPIO_IsInputPinSet( pHandle->H3Port, pHandle->H3Pin ) << 1
 800489e:	0049      	lsls	r1, r1, #1
 80048a0:	4002      	ands	r2, r0
 80048a2:	1a12      	subs	r2, r2, r0
                          | LL_GPIO_IsInputPinSet( pHandle->H1Port, pHandle->H1Pin );
 80048a4:	430b      	orrs	r3, r1
 80048a6:	4251      	negs	r1, r2
 80048a8:	414a      	adcs	r2, r1
    pHandle->HallState  = ( LL_GPIO_IsInputPinSet( pHandle->H2Port, pHandle->H2Pin ) ^ 1 ) << 2
 80048aa:	2104      	movs	r1, #4
 80048ac:	0092      	lsls	r2, r2, #2
 80048ae:	404a      	eors	r2, r1
                          | LL_GPIO_IsInputPinSet( pHandle->H1Port, pHandle->H1Pin );
 80048b0:	4313      	orrs	r3, r2
 80048b2:	b2db      	uxtb	r3, r3
 80048b4:	e7da      	b.n	800486c <HALL_TIMx_UP_IRQHandler+0x80>
      pHandle->_Super.hElAngle = ( int16_t )( pHandle->PhaseShift - S16_60_PHASE_SHIFT -
 80048b6:	4a2a      	ldr	r2, [pc, #168]	; (8004960 <HALL_TIMx_UP_IRQHandler+0x174>)
 80048b8:	8c63      	ldrh	r3, [r4, #34]	; 0x22
 80048ba:	4694      	mov	ip, r2
 80048bc:	4463      	add	r3, ip
 80048be:	b21b      	sxth	r3, r3
 80048c0:	80a3      	strh	r3, [r4, #4]
  pHandle->MeasuredElAngle = pHandle->_Super.hElAngle;
 80048c2:	22aa      	movs	r2, #170	; 0xaa
 80048c4:	52a3      	strh	r3, [r4, r2]
      pHandle->OVFCounter = 0u;
 80048c6:	2300      	movs	r3, #0
 80048c8:	3a5c      	subs	r2, #92	; 0x5c
 80048ca:	54a3      	strb	r3, [r4, r2]
      pHandle->FirstCapt = 0u;
 80048cc:	3a02      	subs	r2, #2
 80048ce:	54a3      	strb	r3, [r4, r2]
      for ( bIndex = 0u; bIndex < pHandle->SpeedBufferSize; bIndex++ )
 80048d0:	3326      	adds	r3, #38	; 0x26
 80048d2:	5ce0      	ldrb	r0, [r4, r3]
 80048d4:	2800      	cmp	r0, #0
 80048d6:	d03e      	beq.n	8004956 <HALL_TIMx_UP_IRQHandler+0x16a>
        pHandle->SensorPeriod[bIndex]  = pHandle->MaxPeriod;
 80048d8:	3392      	adds	r3, #146	; 0x92
 80048da:	0022      	movs	r2, r4
 80048dc:	58e1      	ldr	r1, [r4, r3]
      for ( bIndex = 0u; bIndex < pHandle->SpeedBufferSize; bIndex++ )
 80048de:	2300      	movs	r3, #0
 80048e0:	3250      	adds	r2, #80	; 0x50
 80048e2:	3301      	adds	r3, #1
 80048e4:	b2db      	uxtb	r3, r3
        pHandle->SensorPeriod[bIndex]  = pHandle->MaxPeriod;
 80048e6:	c202      	stmia	r2!, {r1}
      for ( bIndex = 0u; bIndex < pHandle->SpeedBufferSize; bIndex++ )
 80048e8:	4283      	cmp	r3, r0
 80048ea:	d1fa      	bne.n	80048e2 <HALL_TIMx_UP_IRQHandler+0xf6>
      pHandle->ElPeriodSum =pHandle->MaxPeriod * pHandle->SpeedBufferSize;
 80048ec:	4359      	muls	r1, r3
      pHandle->BufferFilled = 0 ;
 80048ee:	2300      	movs	r3, #0
 80048f0:	224d      	movs	r2, #77	; 0x4d
 80048f2:	54a3      	strb	r3, [r4, r2]
      pHandle->AvrElSpeedDpp = 0;
 80048f4:	3257      	adds	r2, #87	; 0x57
 80048f6:	52a3      	strh	r3, [r4, r2]
      pHandle->SpeedFIFOIdx = 0;
 80048f8:	2200      	movs	r2, #0
 80048fa:	3398      	adds	r3, #152	; 0x98
 80048fc:	54e2      	strb	r2, [r4, r3]
      pHandle->ElPeriodSum =pHandle->MaxPeriod * pHandle->SpeedBufferSize;
 80048fe:	3304      	adds	r3, #4
 8004900:	50e1      	str	r1, [r4, r3]
 8004902:	e792      	b.n	800482a <HALL_TIMx_UP_IRQHandler+0x3e>
      pHandle->_Super.hElAngle = ( int16_t )( pHandle->PhaseShift + S16_60_PHASE_SHIFT / 2 );
 8004904:	4a17      	ldr	r2, [pc, #92]	; (8004964 <HALL_TIMx_UP_IRQHandler+0x178>)
 8004906:	8c63      	ldrh	r3, [r4, #34]	; 0x22
 8004908:	4694      	mov	ip, r2
 800490a:	4463      	add	r3, ip
 800490c:	b21b      	sxth	r3, r3
 800490e:	80a3      	strh	r3, [r4, #4]
      break;
 8004910:	e7d7      	b.n	80048c2 <HALL_TIMx_UP_IRQHandler+0xd6>
      pHandle->_Super.hElAngle = ( int16_t )( pHandle->PhaseShift - S16_60_PHASE_SHIFT / 2 );
 8004912:	4a15      	ldr	r2, [pc, #84]	; (8004968 <HALL_TIMx_UP_IRQHandler+0x17c>)
 8004914:	8c63      	ldrh	r3, [r4, #34]	; 0x22
 8004916:	4694      	mov	ip, r2
 8004918:	4463      	add	r3, ip
 800491a:	b21b      	sxth	r3, r3
 800491c:	80a3      	strh	r3, [r4, #4]
      break;
 800491e:	e7d0      	b.n	80048c2 <HALL_TIMx_UP_IRQHandler+0xd6>
      pHandle->_Super.hElAngle = ( int16_t )( pHandle->PhaseShift + S16_120_PHASE_SHIFT +
 8004920:	4a12      	ldr	r2, [pc, #72]	; (800496c <HALL_TIMx_UP_IRQHandler+0x180>)
 8004922:	8c63      	ldrh	r3, [r4, #34]	; 0x22
 8004924:	4694      	mov	ip, r2
 8004926:	4463      	add	r3, ip
 8004928:	b21b      	sxth	r3, r3
 800492a:	80a3      	strh	r3, [r4, #4]
      break;
 800492c:	e7c9      	b.n	80048c2 <HALL_TIMx_UP_IRQHandler+0xd6>
      pHandle->_Super.hElAngle = ( int16_t )( pHandle->PhaseShift - S16_120_PHASE_SHIFT -
 800492e:	4a10      	ldr	r2, [pc, #64]	; (8004970 <HALL_TIMx_UP_IRQHandler+0x184>)
 8004930:	8c63      	ldrh	r3, [r4, #34]	; 0x22
 8004932:	4694      	mov	ip, r2
 8004934:	4463      	add	r3, ip
 8004936:	b21b      	sxth	r3, r3
 8004938:	80a3      	strh	r3, [r4, #4]
      break;
 800493a:	e7c2      	b.n	80048c2 <HALL_TIMx_UP_IRQHandler+0xd6>
      pHandle->_Super.hElAngle = ( int16_t )( pHandle->PhaseShift + S16_60_PHASE_SHIFT +
 800493c:	4a0d      	ldr	r2, [pc, #52]	; (8004974 <HALL_TIMx_UP_IRQHandler+0x188>)
 800493e:	8c63      	ldrh	r3, [r4, #34]	; 0x22
 8004940:	4694      	mov	ip, r2
 8004942:	4463      	add	r3, ip
 8004944:	b21b      	sxth	r3, r3
 8004946:	80a3      	strh	r3, [r4, #4]
      break;
 8004948:	e7bb      	b.n	80048c2 <HALL_TIMx_UP_IRQHandler+0xd6>
      pHandle->SensorIsReliable = false;
 800494a:	2349      	movs	r3, #73	; 0x49
 800494c:	2200      	movs	r2, #0
 800494e:	54e2      	strb	r2, [r4, r3]
  pHandle->MeasuredElAngle = pHandle->_Super.hElAngle;
 8004950:	2204      	movs	r2, #4
 8004952:	5ea3      	ldrsh	r3, [r4, r2]
      break;
 8004954:	e7b5      	b.n	80048c2 <HALL_TIMx_UP_IRQHandler+0xd6>
      for ( bIndex = 0u; bIndex < pHandle->SpeedBufferSize; bIndex++ )
 8004956:	2100      	movs	r1, #0
 8004958:	e7c9      	b.n	80048ee <HALL_TIMx_UP_IRQHandler+0x102>
 800495a:	46c0      	nop			; (mov r8, r8)
 800495c:	0800684c 	.word	0x0800684c
 8004960:	ffffc001 	.word	0xffffc001
 8004964:	00001555 	.word	0x00001555
 8004968:	ffffeaab 	.word	0xffffeaab
 800496c:	00006aaa 	.word	0x00006aaa
 8004970:	ffff9556 	.word	0xffff9556
 8004974:	00003fff 	.word	0x00003fff

08004978 <MPM_Clear>:
  *         measurement buffer and initialize the index.
  * @param power handle.
  * @retval none.
  */
__weak void MPM_Clear( MotorPowMeas_Handle_t * pHandle )
{
 8004978:	b570      	push	{r4, r5, r6, lr}
  uint16_t i;
  for ( i = 0u; i < MPM_BUFFER_LENGHT; i++ )
  {
    pHandle->hMeasBuffer[i] = 0;
 800497a:	2580      	movs	r5, #128	; 0x80
 800497c:	006d      	lsls	r5, r5, #1
 800497e:	002a      	movs	r2, r5
 8004980:	2100      	movs	r1, #0
{
 8004982:	0004      	movs	r4, r0
    pHandle->hMeasBuffer[i] = 0;
 8004984:	f001 f954 	bl	8005c30 <memset>
  }
  pHandle->hNextMeasBufferIndex = 0u;
  pHandle->hLastMeasBufferIndex = 0u;
 8004988:	2281      	movs	r2, #129	; 0x81
  pHandle->hNextMeasBufferIndex = 0u;
 800498a:	2300      	movs	r3, #0
  pHandle->hLastMeasBufferIndex = 0u;
 800498c:	0052      	lsls	r2, r2, #1
  pHandle->hNextMeasBufferIndex = 0u;
 800498e:	5363      	strh	r3, [r4, r5]
  pHandle->hLastMeasBufferIndex = 0u;
 8004990:	52a3      	strh	r3, [r4, r2]

}
 8004992:	bd70      	pop	{r4, r5, r6, pc}

08004994 <MPM_CalcElMotorPower>:
  *         motor power.
  * @param pHandle pointer on the related component instance.
  * @retval int16_t The measured motor power expressed in watt.
  */
__weak int16_t MPM_CalcElMotorPower( MotorPowMeas_Handle_t * pHandle, int16_t CurrentMotorPower )
{
 8004994:	b570      	push	{r4, r5, r6, lr}
 8004996:	0005      	movs	r5, r0
 8004998:	0008      	movs	r0, r1
  uint16_t i;
  int32_t wAux = 0;

  /* Store the measured values in the buffer.*/
  pHandle->hMeasBuffer[pHandle->hNextMeasBufferIndex] = CurrentMotorPower;
 800499a:	2180      	movs	r1, #128	; 0x80
 800499c:	0049      	lsls	r1, r1, #1
 800499e:	5a6b      	ldrh	r3, [r5, r1]
  pHandle->hLastMeasBufferIndex = pHandle->hNextMeasBufferIndex;
  pHandle->hNextMeasBufferIndex++;
  if ( pHandle->hNextMeasBufferIndex >= MPM_BUFFER_LENGHT )
  {
    pHandle->hNextMeasBufferIndex = 0u;
 80049a0:	247f      	movs	r4, #127	; 0x7f
  pHandle->hMeasBuffer[pHandle->hNextMeasBufferIndex] = CurrentMotorPower;
 80049a2:	005a      	lsls	r2, r3, #1
 80049a4:	5350      	strh	r0, [r2, r5]
  pHandle->hLastMeasBufferIndex = pHandle->hNextMeasBufferIndex;
 80049a6:	2281      	movs	r2, #129	; 0x81
 80049a8:	0052      	lsls	r2, r2, #1
 80049aa:	52ab      	strh	r3, [r5, r2]
    pHandle->hNextMeasBufferIndex = 0u;
 80049ac:	2200      	movs	r2, #0
  pHandle->hNextMeasBufferIndex++;
 80049ae:	3301      	adds	r3, #1
 80049b0:	b29b      	uxth	r3, r3
    pHandle->hNextMeasBufferIndex = 0u;
 80049b2:	429c      	cmp	r4, r3
 80049b4:	4152      	adcs	r2, r2
 80049b6:	4252      	negs	r2, r2
 80049b8:	4013      	ands	r3, r2
 80049ba:	526b      	strh	r3, [r5, r1]
  int32_t wAux = 0;
 80049bc:	2200      	movs	r2, #0
 80049be:	002b      	movs	r3, r5
 80049c0:	186c      	adds	r4, r5, r1
  }
  /* Compute the average measured motor power */
  for ( i = 0u; i < MPM_BUFFER_LENGHT; i++ )
  {
    wAux += ( int32_t )( pHandle->hMeasBuffer[i] );
 80049c2:	2600      	movs	r6, #0
 80049c4:	5f99      	ldrsh	r1, [r3, r6]
  for ( i = 0u; i < MPM_BUFFER_LENGHT; i++ )
 80049c6:	3302      	adds	r3, #2
    wAux += ( int32_t )( pHandle->hMeasBuffer[i] );
 80049c8:	1852      	adds	r2, r2, r1
  for ( i = 0u; i < MPM_BUFFER_LENGHT; i++ )
 80049ca:	42a3      	cmp	r3, r4
 80049cc:	d1f9      	bne.n	80049c2 <MPM_CalcElMotorPower+0x2e>
  }
  wAux /= ( int32_t )MPM_BUFFER_LENGHT;
 80049ce:	237f      	movs	r3, #127	; 0x7f
 80049d0:	17d1      	asrs	r1, r2, #31
 80049d2:	400b      	ands	r3, r1
 80049d4:	189b      	adds	r3, r3, r2
  pHandle->hAvrgElMotorPowerW = ( int16_t )( wAux );
 80049d6:	2282      	movs	r2, #130	; 0x82
  wAux /= ( int32_t )MPM_BUFFER_LENGHT;
 80049d8:	11db      	asrs	r3, r3, #7
  pHandle->hAvrgElMotorPowerW = ( int16_t )( wAux );
 80049da:	0052      	lsls	r2, r2, #1
 80049dc:	52ab      	strh	r3, [r5, r2]
  /* Return the last measured motor power */
  return CurrentMotorPower;
}
 80049de:	bd70      	pop	{r4, r5, r6, pc}

080049e0 <MPM_GetAvrgElMotorPowerW>:
  * @param pHandle pointer on the related component instance.
  * @retval int16_t The average measured motor power expressed in watt.
  */
__weak int16_t MPM_GetAvrgElMotorPowerW( MotorPowMeas_Handle_t * pHandle )
{
  return ( pHandle->hAvrgElMotorPowerW );
 80049e0:	2382      	movs	r3, #130	; 0x82
 80049e2:	005b      	lsls	r3, r3, #1
 80049e4:	5ec0      	ldrsh	r0, [r0, r3]
}
 80049e6:	4770      	bx	lr

080049e8 <NTC_SetFaultState>:
  */
__weak uint16_t NTC_SetFaultState( NTC_Handle_t * pHandle )
{
  uint16_t hFault;

  if ( pHandle->hAvTemp_d > pHandle->hOverTempThreshold )
 80049e8:	8a02      	ldrh	r2, [r0, #16]
 80049ea:	8b41      	ldrh	r1, [r0, #26]
{
 80049ec:	0003      	movs	r3, r0
  if ( pHandle->hAvTemp_d > pHandle->hOverTempThreshold )
 80049ee:	4291      	cmp	r1, r2
 80049f0:	d306      	bcc.n	8004a00 <NTC_SetFaultState+0x18>
  {
    hFault = MC_OVER_TEMP;
  }
  else if ( pHandle->hAvTemp_d < pHandle->hOverTempDeactThreshold )
 80049f2:	8b81      	ldrh	r1, [r0, #28]
  {
    hFault = MC_NO_ERROR;
 80049f4:	2000      	movs	r0, #0
  else if ( pHandle->hAvTemp_d < pHandle->hOverTempDeactThreshold )
 80049f6:	4291      	cmp	r1, r2
 80049f8:	d900      	bls.n	80049fc <NTC_SetFaultState+0x14>
  else
  {
    hFault = pHandle->hFaultState;
  }
  return hFault;
}
 80049fa:	4770      	bx	lr
    hFault = pHandle->hFaultState;
 80049fc:	8ad8      	ldrh	r0, [r3, #22]
 80049fe:	e7fc      	b.n	80049fa <NTC_SetFaultState+0x12>
    hFault = MC_OVER_TEMP;
 8004a00:	2008      	movs	r0, #8
 8004a02:	e7fa      	b.n	80049fa <NTC_SetFaultState+0x12>

08004a04 <NTC_Clear>:
 *
 *  @p pHandle : Pointer on Handle structure of TemperatureSensor component
 */
__weak void NTC_Clear( NTC_Handle_t * pHandle )
{
  pHandle->hAvTemp_d = 0u;
 8004a04:	2300      	movs	r3, #0
 8004a06:	8203      	strh	r3, [r0, #16]
}
 8004a08:	4770      	bx	lr
 8004a0a:	46c0      	nop			; (mov r8, r8)

08004a0c <NTC_Init>:
  if ( pHandle->bSensorType == REAL_SENSOR )
 8004a0c:	7803      	ldrb	r3, [r0, #0]
{
 8004a0e:	b510      	push	{r4, lr}
 8004a10:	0004      	movs	r4, r0
  if ( pHandle->bSensorType == REAL_SENSOR )
 8004a12:	2b00      	cmp	r3, #0
 8004a14:	d004      	beq.n	8004a20 <NTC_Init+0x14>
    pHandle->hFaultState = MC_NO_ERROR;
 8004a16:	2300      	movs	r3, #0
 8004a18:	82c3      	strh	r3, [r0, #22]
    pHandle->hAvTemp_d = pHandle->hExpectedTemp_d;
 8004a1a:	8a43      	ldrh	r3, [r0, #18]
 8004a1c:	8203      	strh	r3, [r0, #16]
}
 8004a1e:	bd10      	pop	{r4, pc}
    pHandle->convHandle = RCM_RegisterRegConv(&pHandle->TempRegConv);
 8004a20:	3004      	adds	r0, #4
 8004a22:	f7fc ff21 	bl	8001868 <RCM_RegisterRegConv>
 8004a26:	2326      	movs	r3, #38	; 0x26
 8004a28:	54e0      	strb	r0, [r4, r3]
    NTC_Clear( pHandle );
 8004a2a:	0020      	movs	r0, r4
 8004a2c:	f7ff ffea 	bl	8004a04 <NTC_Clear>
 8004a30:	e7f5      	b.n	8004a1e <NTC_Init+0x12>
 8004a32:	46c0      	nop			; (mov r8, r8)

08004a34 <NTC_CalcAvTemp>:
__weak uint16_t NTC_CalcAvTemp( NTC_Handle_t * pHandle )
{
  uint32_t wtemp;
  uint16_t hAux;

  if ( pHandle->bSensorType == REAL_SENSOR )
 8004a34:	7803      	ldrb	r3, [r0, #0]
{
 8004a36:	b510      	push	{r4, lr}
 8004a38:	0004      	movs	r4, r0
 8004a3a:	2000      	movs	r0, #0
  if ( pHandle->bSensorType == REAL_SENSOR )
 8004a3c:	2b00      	cmp	r3, #0
 8004a3e:	d001      	beq.n	8004a44 <NTC_CalcAvTemp+0x10>
      wtemp /= ( uint32_t )( pHandle->hLowPassFilterBW );

      pHandle->hAvTemp_d = ( uint16_t ) wtemp;
    }

    pHandle->hFaultState = NTC_SetFaultState( pHandle );
 8004a40:	82e0      	strh	r0, [r4, #22]
  {
    pHandle->hFaultState = MC_NO_ERROR;
  }

  return ( pHandle->hFaultState );
}
 8004a42:	bd10      	pop	{r4, pc}
    hAux = RCM_ExecRegularConv(pHandle->convHandle);
 8004a44:	3326      	adds	r3, #38	; 0x26
 8004a46:	5ce0      	ldrb	r0, [r4, r3]
 8004a48:	f7fc ffc8 	bl	80019dc <RCM_ExecRegularConv>
    if ( hAux != 0xFFFFu )
 8004a4c:	4b07      	ldr	r3, [pc, #28]	; (8004a6c <NTC_CalcAvTemp+0x38>)
 8004a4e:	4298      	cmp	r0, r3
 8004a50:	d007      	beq.n	8004a62 <NTC_CalcAvTemp+0x2e>
      wtemp =  ( uint32_t )( pHandle->hLowPassFilterBW ) - 1u;
 8004a52:	8b21      	ldrh	r1, [r4, #24]
      wtemp *= ( uint32_t ) ( pHandle->hAvTemp_d );
 8004a54:	8a22      	ldrh	r2, [r4, #16]
      wtemp =  ( uint32_t )( pHandle->hLowPassFilterBW ) - 1u;
 8004a56:	1e4b      	subs	r3, r1, #1
      wtemp *= ( uint32_t ) ( pHandle->hAvTemp_d );
 8004a58:	4353      	muls	r3, r2
      wtemp += hAux;
 8004a5a:	18c0      	adds	r0, r0, r3
      wtemp /= ( uint32_t )( pHandle->hLowPassFilterBW );
 8004a5c:	f7fb fb54 	bl	8000108 <__udivsi3>
      pHandle->hAvTemp_d = ( uint16_t ) wtemp;
 8004a60:	8220      	strh	r0, [r4, #16]
    pHandle->hFaultState = NTC_SetFaultState( pHandle );
 8004a62:	0020      	movs	r0, r4
 8004a64:	f7ff ffc0 	bl	80049e8 <NTC_SetFaultState>
 8004a68:	e7ea      	b.n	8004a40 <NTC_CalcAvTemp+0xc>
 8004a6a:	46c0      	nop			; (mov r8, r8)
 8004a6c:	0000ffff 	.word	0x0000ffff

08004a70 <NTC_GetAvTemp_C>:
  */
__weak int16_t NTC_GetAvTemp_C( NTC_Handle_t * pHandle )
{
  int32_t wTemp;

  if ( pHandle->bSensorType == REAL_SENSOR )
 8004a70:	7803      	ldrb	r3, [r0, #0]
 8004a72:	2b00      	cmp	r3, #0
 8004a74:	d10e      	bne.n	8004a94 <NTC_GetAvTemp_C+0x24>
  {
    wTemp = ( int32_t )( pHandle->hAvTemp_d );
    wTemp -= ( int32_t )( pHandle->wV0 );
 8004a76:	6a03      	ldr	r3, [r0, #32]
    wTemp = ( int32_t )( pHandle->hAvTemp_d );
 8004a78:	8a02      	ldrh	r2, [r0, #16]
    wTemp -= ( int32_t )( pHandle->wV0 );
 8004a7a:	1ad2      	subs	r2, r2, r3
    wTemp *= pHandle->hSensitivity;
 8004a7c:	211e      	movs	r1, #30
 8004a7e:	5e43      	ldrsh	r3, [r0, r1]
    wTemp = wTemp / 65536 + ( int32_t )( pHandle->hT0 );
 8004a80:	8c80      	ldrh	r0, [r0, #36]	; 0x24
    wTemp *= pHandle->hSensitivity;
 8004a82:	435a      	muls	r2, r3
    wTemp = wTemp / 65536 + ( int32_t )( pHandle->hT0 );
 8004a84:	17d3      	asrs	r3, r2, #31
 8004a86:	041b      	lsls	r3, r3, #16
 8004a88:	0c1b      	lsrs	r3, r3, #16
 8004a8a:	189b      	adds	r3, r3, r2
 8004a8c:	141b      	asrs	r3, r3, #16
 8004a8e:	18c0      	adds	r0, r0, r3
  }
  else
  {
    wTemp = pHandle->hExpectedTemp_C;
  }
  return ( ( int16_t )wTemp );
 8004a90:	b200      	sxth	r0, r0
}
 8004a92:	4770      	bx	lr
    wTemp = pHandle->hExpectedTemp_C;
 8004a94:	8a80      	ldrh	r0, [r0, #20]
 8004a96:	e7fb      	b.n	8004a90 <NTC_GetAvTemp_C+0x20>

08004a98 <PID_HandleInit>:
 * @param  pHandle: handler of the current instance of the PID component
 * @retval None
 */
__weak void PID_HandleInit( PID_Handle_t * pHandle )
{
  pHandle->hKpGain =  pHandle->hDefKpGain;
 8004a98:	6803      	ldr	r3, [r0, #0]
 8004a9a:	6043      	str	r3, [r0, #4]
  pHandle->hKiGain =  pHandle->hDefKiGain;
  pHandle->hKdGain =  pHandle->hDefKdGain;
 8004a9c:	8c03      	ldrh	r3, [r0, #32]
 8004a9e:	8443      	strh	r3, [r0, #34]	; 0x22
  pHandle->wIntegralTerm = 0x00000000UL;
 8004aa0:	2300      	movs	r3, #0
 8004aa2:	6083      	str	r3, [r0, #8]
  pHandle->wPrevProcessVarError = 0x00000000UL;
 8004aa4:	6283      	str	r3, [r0, #40]	; 0x28
}
 8004aa6:	4770      	bx	lr

08004aa8 <PID_SetKP>:
 * @param  hKpGain: new Kp gain
 * @retval None
 */
__weak void PID_SetKP( PID_Handle_t * pHandle, int16_t hKpGain )
{
  pHandle->hKpGain = hKpGain;
 8004aa8:	8081      	strh	r1, [r0, #4]
}
 8004aaa:	4770      	bx	lr

08004aac <PID_SetKI>:
 * @param  hKiGain: new Ki gain
 * @retval None
 */
__weak void PID_SetKI( PID_Handle_t * pHandle, int16_t hKiGain )
{
  pHandle->hKiGain = hKiGain;
 8004aac:	80c1      	strh	r1, [r0, #6]
}
 8004aae:	4770      	bx	lr

08004ab0 <PID_GetKP>:
 * @param  pHandle: handler of the current instance of the PID component
 * @retval Kp gain
 */
__weak int16_t PID_GetKP( PID_Handle_t * pHandle )
{
  return ( pHandle->hKpGain );
 8004ab0:	2304      	movs	r3, #4
 8004ab2:	5ec0      	ldrsh	r0, [r0, r3]
}
 8004ab4:	4770      	bx	lr
 8004ab6:	46c0      	nop			; (mov r8, r8)

08004ab8 <PID_GetKI>:
 * @param  pHandle: handler of the current instance of the PID component
 * @retval Ki gain
 */
__weak int16_t PID_GetKI( PID_Handle_t * pHandle )
{
  return ( pHandle->hKiGain );
 8004ab8:	2306      	movs	r3, #6
 8004aba:	5ec0      	ldrsh	r0, [r0, r3]
}
 8004abc:	4770      	bx	lr
 8004abe:	46c0      	nop			; (mov r8, r8)

08004ac0 <PID_SetIntegralTerm>:
 * @param  wIntegralTermValue: new integral term value
 * @retval None
 */
__weak void PID_SetIntegralTerm( PID_Handle_t * pHandle, int32_t wIntegralTermValue )
{
  pHandle->wIntegralTerm = wIntegralTermValue;
 8004ac0:	6081      	str	r1, [r0, #8]

  return;
}
 8004ac2:	4770      	bx	lr

08004ac4 <PID_GetKPDivisor>:
 * @param  pHandle: handler of the current instance of the PID component
 * @retval Kp gain divisor
 */
__weak uint16_t PID_GetKPDivisor( PID_Handle_t * pHandle )
{
  return ( pHandle->hKpDivisor );
 8004ac4:	8b00      	ldrh	r0, [r0, #24]
}
 8004ac6:	4770      	bx	lr

08004ac8 <PID_GetKIDivisor>:
 * @param  pHandle: handler of the current instance of the PID component
 * @retval Ki gain divisor
 */
__weak uint16_t PID_GetKIDivisor( PID_Handle_t * pHandle )
{
  return ( pHandle->hKiDivisor );
 8004ac8:	8b40      	ldrh	r0, [r0, #26]
}
 8004aca:	4770      	bx	lr

08004acc <PID_SetKD>:
 * @param  hKdGain: new Kd gain
 * @retval None
 */
__weak void PID_SetKD( PID_Handle_t * pHandle, int16_t hKdGain )
{
  pHandle->hKdGain = hKdGain;
 8004acc:	8441      	strh	r1, [r0, #34]	; 0x22
}
 8004ace:	4770      	bx	lr

08004ad0 <PID_GetKD>:
 * @param  pHandle: handler of the current instance of the PID component
 * @retval Kd gain
 */
__weak int16_t PID_GetKD( PID_Handle_t * pHandle )
{
  return pHandle->hKdGain;
 8004ad0:	2322      	movs	r3, #34	; 0x22
 8004ad2:	5ec0      	ldrsh	r0, [r0, r3]
}
 8004ad4:	4770      	bx	lr
 8004ad6:	46c0      	nop			; (mov r8, r8)

08004ad8 <PI_Controller>:
 * @param  wProcessVarError: current process variable error, intended as the reference
 *         value minus the present process variable value
 * @retval computed PI output
 */
__weak int16_t PI_Controller( PID_Handle_t * pHandle, int32_t wProcessVarError )
{
 8004ad8:	0003      	movs	r3, r0
 8004ada:	b570      	push	{r4, r5, r6, lr}
  int32_t wProportional_Term, wIntegral_Term, wOutput_32, wIntegral_sum_temp;
  int32_t wDischarge = 0;
  int16_t hUpperOutputLimit = pHandle->hUpperOutputLimit;
  int16_t hLowerOutputLimit = pHandle->hLowerOutputLimit;
 8004adc:	2216      	movs	r2, #22
 8004ade:	5e9e      	ldrsh	r6, [r3, r2]
  int16_t hUpperOutputLimit = pHandle->hUpperOutputLimit;
 8004ae0:	2214      	movs	r2, #20
 8004ae2:	5e80      	ldrsh	r0, [r0, r2]

  /* Proportional term computation*/
  wProportional_Term = pHandle->hKpGain * wProcessVarError;

  /* Integral term computation */
  if ( pHandle->hKiGain == 0 )
 8004ae4:	2406      	movs	r4, #6
 8004ae6:	5f1d      	ldrsh	r5, [r3, r4]
  wProportional_Term = pHandle->hKpGain * wProcessVarError;
 8004ae8:	2404      	movs	r4, #4
 8004aea:	5f1a      	ldrsh	r2, [r3, r4]
 8004aec:	2400      	movs	r4, #0
 8004aee:	434a      	muls	r2, r1
  if ( pHandle->hKiGain == 0 )
 8004af0:	2d00      	cmp	r5, #0
 8004af2:	d00b      	beq.n	8004b0c <PI_Controller+0x34>
  {
    pHandle->wIntegralTerm = 0;
  }
  else
  {
    wIntegral_Term = pHandle->hKiGain * wProcessVarError;
 8004af4:	4369      	muls	r1, r5
    wIntegral_sum_temp = pHandle->wIntegralTerm + wIntegral_Term;
 8004af6:	689c      	ldr	r4, [r3, #8]

    if ( wIntegral_sum_temp < 0 )
 8004af8:	1865      	adds	r5, r4, r1
 8004afa:	d41b      	bmi.n	8004b34 <PI_Controller+0x5c>
        }
      }
    }
    else
    {
      if ( pHandle->wIntegralTerm < 0 )
 8004afc:	4021      	ands	r1, r4
 8004afe:	d424      	bmi.n	8004b4a <PI_Controller+0x72>
          wIntegral_sum_temp = -INT32_MAX;
        }
      }
    }

    if ( wIntegral_sum_temp > pHandle->wUpperIntegralLimit )
 8004b00:	68dc      	ldr	r4, [r3, #12]
 8004b02:	42ac      	cmp	r4, r5
 8004b04:	db02      	blt.n	8004b0c <PI_Controller+0x34>
    {
      pHandle->wIntegralTerm = pHandle->wUpperIntegralLimit;
    }
    else if ( wIntegral_sum_temp < pHandle->wLowerIntegralLimit )
 8004b06:	691c      	ldr	r4, [r3, #16]
 8004b08:	42ac      	cmp	r4, r5
 8004b0a:	dd1c      	ble.n	8004b46 <PI_Controller+0x6e>
#else
  /* WARNING: the below instruction is not MISRA compliant, user should verify
             that Cortex-M3 assembly instruction ASR (arithmetic shift right)
             is used by the compiler to perform the shifts (instead of LSR
             logical shift right)*/
  wOutput_32 = ( wProportional_Term >> pHandle->hKpDivisorPOW2 ) + ( pHandle->wIntegralTerm >> pHandle->hKiDivisorPOW2 );
 8004b0c:	0025      	movs	r5, r4
 8004b0e:	8b99      	ldrh	r1, [r3, #28]
 8004b10:	410a      	asrs	r2, r1
 8004b12:	8bd9      	ldrh	r1, [r3, #30]
 8004b14:	410d      	asrs	r5, r1
 8004b16:	1952      	adds	r2, r2, r5
#endif

  if ( wOutput_32 > hUpperOutputLimit )
 8004b18:	4290      	cmp	r0, r2
 8004b1a:	da03      	bge.n	8004b24 <PI_Controller+0x4c>
  {

    wDischarge = hUpperOutputLimit - wOutput_32;
 8004b1c:	1a82      	subs	r2, r0, r2
    wDischarge = hLowerOutputLimit - wOutput_32;
    wOutput_32 = hLowerOutputLimit;
  }
  else { /* Nothing to do here */ }

  pHandle->wIntegralTerm += wDischarge;
 8004b1e:	18a4      	adds	r4, r4, r2
 8004b20:	609c      	str	r4, [r3, #8]

  return ( ( int16_t )( wOutput_32 ) );
}
 8004b22:	bd70      	pop	{r4, r5, r6, pc}
  else if ( wOutput_32 < hLowerOutputLimit )
 8004b24:	4296      	cmp	r6, r2
 8004b26:	dd03      	ble.n	8004b30 <PI_Controller+0x58>
    wDischarge = hLowerOutputLimit - wOutput_32;
 8004b28:	1ab2      	subs	r2, r6, r2
 8004b2a:	0030      	movs	r0, r6
  pHandle->wIntegralTerm += wDischarge;
 8004b2c:	18a4      	adds	r4, r4, r2
 8004b2e:	e7f7      	b.n	8004b20 <PI_Controller+0x48>
  return ( ( int16_t )( wOutput_32 ) );
 8004b30:	b210      	sxth	r0, r2
 8004b32:	e7f5      	b.n	8004b20 <PI_Controller+0x48>
      if ( pHandle->wIntegralTerm > 0 )
 8004b34:	2c00      	cmp	r4, #0
 8004b36:	dde3      	ble.n	8004b00 <PI_Controller+0x28>
        if ( wIntegral_Term > 0 )
 8004b38:	2900      	cmp	r1, #0
 8004b3a:	dde1      	ble.n	8004b00 <PI_Controller+0x28>
    if ( wIntegral_sum_temp > pHandle->wUpperIntegralLimit )
 8004b3c:	68dc      	ldr	r4, [r3, #12]
 8004b3e:	4904      	ldr	r1, [pc, #16]	; (8004b50 <PI_Controller+0x78>)
          wIntegral_sum_temp = INT32_MAX;
 8004b40:	0025      	movs	r5, r4
    if ( wIntegral_sum_temp > pHandle->wUpperIntegralLimit )
 8004b42:	428c      	cmp	r4, r1
 8004b44:	d1e2      	bne.n	8004b0c <PI_Controller+0x34>
      pHandle->wIntegralTerm = wIntegral_sum_temp;
 8004b46:	002c      	movs	r4, r5
 8004b48:	e7e0      	b.n	8004b0c <PI_Controller+0x34>
          wIntegral_sum_temp = -INT32_MAX;
 8004b4a:	4d02      	ldr	r5, [pc, #8]	; (8004b54 <PI_Controller+0x7c>)
 8004b4c:	e7d8      	b.n	8004b00 <PI_Controller+0x28>
 8004b4e:	46c0      	nop			; (mov r8, r8)
 8004b50:	7fffffff 	.word	0x7fffffff
 8004b54:	80000001 	.word	0x80000001

08004b58 <PQD_CalcElMotorPower>:
  */
__weak void PQD_CalcElMotorPower( PQD_MotorPowMeas_Handle_t * pHandle )
{

  int32_t wAux, wAux2, wAux3;
  qd_t Iqd = pHandle->pFOCVars->Iqd;
 8004b58:	2386      	movs	r3, #134	; 0x86
{
 8004b5a:	b570      	push	{r4, r5, r6, lr}
  qd_t Iqd = pHandle->pFOCVars->Iqd;
 8004b5c:	005b      	lsls	r3, r3, #1
 8004b5e:	58c3      	ldr	r3, [r0, r3]
{
 8004b60:	0005      	movs	r5, r0
  qd_t Vqd = pHandle->pFOCVars->Vqd;
  wAux = ( ( int32_t )Iqd.q * ( int32_t )Vqd.q ) +
 8004b62:	210c      	movs	r1, #12
 8004b64:	5e5a      	ldrsh	r2, [r3, r1]
 8004b66:	2116      	movs	r1, #22
 8004b68:	5e5e      	ldrsh	r6, [r3, r1]
 8004b6a:	4356      	muls	r6, r2
         ( ( int32_t )Iqd.d * ( int32_t )Vqd.d );
 8004b6c:	210e      	movs	r1, #14
 8004b6e:	5e5a      	ldrsh	r2, [r3, r1]
 8004b70:	2118      	movs	r1, #24
 8004b72:	5e5b      	ldrsh	r3, [r3, r1]
 8004b74:	4353      	muls	r3, r2
  wAux = ( ( int32_t )Iqd.q * ( int32_t )Vqd.q ) +
 8004b76:	18f6      	adds	r6, r6, r3
  wAux /= 65536;

  wAux2 = pHandle->wConvFact * ( int32_t )VBS_GetAvBusVoltage_V( pHandle->pVBS );
 8004b78:	2384      	movs	r3, #132	; 0x84
 8004b7a:	005b      	lsls	r3, r3, #1
 8004b7c:	58c4      	ldr	r4, [r0, r3]
 8004b7e:	3308      	adds	r3, #8
 8004b80:	58c0      	ldr	r0, [r0, r3]
 8004b82:	f7ff fa81 	bl	8004088 <VBS_GetAvBusVoltage_V>
  wAux2 /= 600; /* 600 is max bus voltage expressed in volt.*/
 8004b86:	2196      	movs	r1, #150	; 0x96
  wAux2 = pHandle->wConvFact * ( int32_t )VBS_GetAvBusVoltage_V( pHandle->pVBS );
 8004b88:	4360      	muls	r0, r4
  wAux2 /= 600; /* 600 is max bus voltage expressed in volt.*/
 8004b8a:	0089      	lsls	r1, r1, #2
 8004b8c:	f7fb fb46 	bl	800021c <__divsi3>

  wAux3 = wAux * wAux2;
  wAux3 *= 6; /* 6 is max bus voltage expressed in thousend of volt.*/
  wAux3 /= 10;
  wAux3 /= 65536;
 8004b90:	21a0      	movs	r1, #160	; 0xa0
  wAux /= 65536;
 8004b92:	17f4      	asrs	r4, r6, #31
 8004b94:	0424      	lsls	r4, r4, #16
 8004b96:	0c24      	lsrs	r4, r4, #16
 8004b98:	19a4      	adds	r4, r4, r6
 8004b9a:	1424      	asrs	r4, r4, #16
  wAux3 = wAux * wAux2;
 8004b9c:	4344      	muls	r4, r0
  wAux3 *= 6; /* 6 is max bus voltage expressed in thousend of volt.*/
 8004b9e:	0060      	lsls	r0, r4, #1
 8004ba0:	1900      	adds	r0, r0, r4
  wAux3 /= 65536;
 8004ba2:	0309      	lsls	r1, r1, #12
  wAux3 *= 6; /* 6 is max bus voltage expressed in thousend of volt.*/
 8004ba4:	0040      	lsls	r0, r0, #1
  wAux3 /= 65536;
 8004ba6:	f7fb fb39 	bl	800021c <__divsi3>

  MPM_CalcElMotorPower( &pHandle->_super, wAux3 );
 8004baa:	b201      	sxth	r1, r0
 8004bac:	0028      	movs	r0, r5
 8004bae:	f7ff fef1 	bl	8004994 <MPM_CalcElMotorPower>

}
 8004bb2:	bd70      	pop	{r4, r5, r6, pc}

08004bb4 <waitForPolarizationEnd>:
 *         repCnt: repetition counter value
 *         cnt: polarization counter value
 * @retval none
 */
__weak void waitForPolarizationEnd( TIM_TypeDef*  TIMx, uint16_t  *SWerror, uint8_t repCnt, volatile uint8_t *cnt )
{
 8004bb4:	b5f0      	push	{r4, r5, r6, r7, lr}
  counter_mode = (uint32_t)(READ_BIT(TIMx->CR1, TIM_CR1_CMS));
 8004bb6:	2560      	movs	r5, #96	; 0x60
 8004bb8:	002e      	movs	r6, r5
 8004bba:	6804      	ldr	r4, [r0, #0]
 8004bbc:	4026      	ands	r6, r4
  if (counter_mode == 0U)
 8004bbe:	4225      	tst	r5, r4
 8004bc0:	d119      	bne.n	8004bf6 <waitForPolarizationEnd+0x42>
    counter_mode = (uint32_t)(READ_BIT(TIMx->CR1, TIM_CR1_DIR));
 8004bc2:	6804      	ldr	r4, [r0, #0]
  {
    hMaxPeriodsNumber=(2*NB_CONVERSIONS)*(((uint16_t)repCnt+1u));
  }
  else
  {
	hMaxPeriodsNumber=(2*NB_CONVERSIONS)*(((uint16_t)repCnt+1u)>>1);
 8004bc4:	3201      	adds	r2, #1
 8004bc6:	0855      	lsrs	r5, r2, #1
 8004bc8:	016d      	lsls	r5, r5, #5
  WRITE_REG(TIMx->SR, ~(TIM_SR_CC1IF));
 8004bca:	2703      	movs	r7, #3
  }

  /* Wait for NB_CONVERSIONS to be executed */
  LL_TIM_ClearFlag_CC1(TIMx);
  hCalibrationPeriodCounter = 0u;
 8004bcc:	2200      	movs	r2, #0
  return ((READ_BIT(TIMx->SR, TIM_SR_CC1IF) == (TIM_SR_CC1IF)) ? 1UL : 0UL);
 8004bce:	2602      	movs	r6, #2
  WRITE_REG(TIMx->SR, ~(TIM_SR_CC1IF));
 8004bd0:	427f      	negs	r7, r7
 8004bd2:	6107      	str	r7, [r0, #16]
  while (*cnt < NB_CONVERSIONS)
 8004bd4:	781c      	ldrb	r4, [r3, #0]
 8004bd6:	2c0f      	cmp	r4, #15
 8004bd8:	d80c      	bhi.n	8004bf4 <waitForPolarizationEnd+0x40>
  return ((READ_BIT(TIMx->SR, TIM_SR_CC1IF) == (TIM_SR_CC1IF)) ? 1UL : 0UL);
 8004bda:	6904      	ldr	r4, [r0, #16]
 8004bdc:	4226      	tst	r6, r4
 8004bde:	d0f9      	beq.n	8004bd4 <waitForPolarizationEnd+0x20>
  {
    if (LL_TIM_IsActiveFlag_CC1(TIMx))
    {
      LL_TIM_ClearFlag_CC1(TIMx);
      hCalibrationPeriodCounter++;
 8004be0:	3201      	adds	r2, #1
 8004be2:	b292      	uxth	r2, r2
  WRITE_REG(TIMx->SR, ~(TIM_SR_CC1IF));
 8004be4:	6107      	str	r7, [r0, #16]
      if (hCalibrationPeriodCounter >= hMaxPeriodsNumber)
 8004be6:	4295      	cmp	r5, r2
 8004be8:	d8f4      	bhi.n	8004bd4 <waitForPolarizationEnd+0x20>
      {
        if (*cnt < NB_CONVERSIONS)
 8004bea:	781c      	ldrb	r4, [r3, #0]
 8004bec:	2c0f      	cmp	r4, #15
 8004bee:	d8f1      	bhi.n	8004bd4 <waitForPolarizationEnd+0x20>
        {
          *SWerror = 1u;
 8004bf0:	2301      	movs	r3, #1
 8004bf2:	800b      	strh	r3, [r1, #0]
          break;
        }
      }
    }
  }
}
 8004bf4:	bdf0      	pop	{r4, r5, r6, r7, pc}
  if ( (LL_TIM_GetCounterMode(TIMx) & LL_TIM_COUNTERMODE_CENTER_UP_DOWN) == LL_TIM_COUNTERMODE_CENTER_UP_DOWN)
 8004bf6:	2e60      	cmp	r6, #96	; 0x60
 8004bf8:	d1e4      	bne.n	8004bc4 <waitForPolarizationEnd+0x10>
    hMaxPeriodsNumber=(2*NB_CONVERSIONS)*(((uint16_t)repCnt+1u));
 8004bfa:	3201      	adds	r2, #1
 8004bfc:	0155      	lsls	r5, r2, #5
 8004bfe:	e7e4      	b.n	8004bca <waitForPolarizationEnd+0x16>

08004c00 <PWMC_GetPhaseCurrents>:
  * @param  pHandle handle on the target PWMC component
  * @param  pStator_Currents Pointer to the structure that will receive motor current
  *         of phase A and B in ElectricalValue format.
*/
__weak void PWMC_GetPhaseCurrents( PWMC_Handle_t * pHandle, ab_t * Iab )
{
 8004c00:	b510      	push	{r4, lr}
  pHandle->pFctGetPhaseCurrents( pHandle, Iab );
 8004c02:	6843      	ldr	r3, [r0, #4]
 8004c04:	4798      	blx	r3
}
 8004c06:	bd10      	pop	{r4, pc}

08004c08 <PWMC_SetPhaseVoltage>:
  *
  * @retval Returns #MC_NO_ERROR if no error occurred or #MC_FOC_DURATION if the duty cycles were
  *         set too late for being taken into account in the next PWM cycle.
  */
__weak uint16_t PWMC_SetPhaseVoltage( PWMC_Handle_t * pHandle, alphabeta_t Valfa_beta )
{
 8004c08:	b5f0      	push	{r4, r5, r6, r7, lr}
 8004c0a:	46c6      	mov	lr, r8
 8004c0c:	b500      	push	{lr}
 8004c0e:	b082      	sub	sp, #8
 8004c10:	9101      	str	r1, [sp, #4]
  int32_t wX, wY, wZ, wUAlpha, wUBeta, wTimePhA, wTimePhB, wTimePhC;

  wUAlpha = Valfa_beta.alpha * ( int32_t )pHandle->hT_Sqrt3;
 8004c12:	b20a      	sxth	r2, r1
{
 8004c14:	000b      	movs	r3, r1
  wUAlpha = Valfa_beta.alpha * ( int32_t )pHandle->hT_Sqrt3;
 8004c16:	8e01      	ldrh	r1, [r0, #48]	; 0x30
  wUBeta = -( Valfa_beta.beta * ( int32_t )( pHandle->PWMperiod ) ) * 2;
 8004c18:	141b      	asrs	r3, r3, #16
  wUAlpha = Valfa_beta.alpha * ( int32_t )pHandle->hT_Sqrt3;
 8004c1a:	4351      	muls	r1, r2
  wUBeta = -( Valfa_beta.beta * ( int32_t )( pHandle->PWMperiod ) ) * 2;
 8004c1c:	2250      	movs	r2, #80	; 0x50
 8004c1e:	5a84      	ldrh	r4, [r0, r2]
 8004c20:	4363      	muls	r3, r4
 8004c22:	005b      	lsls	r3, r3, #1
 8004c24:	425e      	negs	r6, r3

  wX = wUBeta;
  wY = ( wUBeta + wUAlpha ) / 2;
 8004c26:	1acd      	subs	r5, r1, r3
  wZ = ( wUBeta - wUAlpha ) / 2;
 8004c28:	1a71      	subs	r1, r6, r1
  wY = ( wUBeta + wUAlpha ) / 2;
 8004c2a:	0fea      	lsrs	r2, r5, #31
  wZ = ( wUBeta - wUAlpha ) / 2;
 8004c2c:	0fcb      	lsrs	r3, r1, #31
  wY = ( wUBeta + wUAlpha ) / 2;
 8004c2e:	1952      	adds	r2, r2, r5
  wZ = ( wUBeta - wUAlpha ) / 2;
 8004c30:	185b      	adds	r3, r3, r1
  wY = ( wUBeta + wUAlpha ) / 2;
 8004c32:	1052      	asrs	r2, r2, #1
  wZ = ( wUBeta - wUAlpha ) / 2;
 8004c34:	105b      	asrs	r3, r3, #1

  /* Sector calculation from wX, wY, wZ */
  if ( wY < 0 )
 8004c36:	1c6f      	adds	r7, r5, #1
 8004c38:	db59      	blt.n	8004cee <PWMC_SetPhaseVoltage+0xe6>
        pHandle->highDuty = wTimePhA;
      }
  }
  else /* wY > 0 */
  {
    if ( wZ >= 0 )
 8004c3a:	1c4f      	adds	r7, r1, #1
 8004c3c:	db3a      	blt.n	8004cb4 <PWMC_SetPhaseVoltage+0xac>
    {
      pHandle->Sector = SECTOR_2;
      wTimePhA = ( int32_t )( pHandle->PWMperiod ) / 4 + ( ( wY - wZ ) / ( int32_t )262144 );
 8004c3e:	1ad2      	subs	r2, r2, r3
 8004c40:	17d3      	asrs	r3, r2, #31
 8004c42:	039b      	lsls	r3, r3, #14
 8004c44:	0b9b      	lsrs	r3, r3, #14
 8004c46:	189b      	adds	r3, r3, r2
      wTimePhB = wTimePhA + wZ / 131072;
 8004c48:	17ca      	asrs	r2, r1, #31
 8004c4a:	0392      	lsls	r2, r2, #14
 8004c4c:	0b92      	lsrs	r2, r2, #14
 8004c4e:	1852      	adds	r2, r2, r1
      wTimePhC = wTimePhA - wY / 131072;
 8004c50:	17e9      	asrs	r1, r5, #31
 8004c52:	0389      	lsls	r1, r1, #14
 8004c54:	0b89      	lsrs	r1, r1, #14
      wTimePhA = ( int32_t )( pHandle->PWMperiod ) / 4 + ( ( wY - wZ ) / ( int32_t )262144 );
 8004c56:	08a4      	lsrs	r4, r4, #2
 8004c58:	149b      	asrs	r3, r3, #18
      wTimePhC = wTimePhA - wY / 131072;
 8004c5a:	1949      	adds	r1, r1, r5
      wTimePhA = ( int32_t )( pHandle->PWMperiod ) / 4 + ( ( wY - wZ ) / ( int32_t )262144 );
 8004c5c:	191b      	adds	r3, r3, r4
      wTimePhC = wTimePhA - wY / 131072;
 8004c5e:	1489      	asrs	r1, r1, #18
 8004c60:	1a59      	subs	r1, r3, r1
      pHandle->lowDuty = wTimePhB;
      pHandle->midDuty = wTimePhA;
      pHandle->highDuty = wTimePhC;
 8004c62:	b28c      	uxth	r4, r1
 8004c64:	46a0      	mov	r8, r4
 8004c66:	2401      	movs	r4, #1
 8004c68:	46a4      	mov	ip, r4
      wTimePhB = wTimePhA + wZ / 131072;
 8004c6a:	1492      	asrs	r2, r2, #18
 8004c6c:	18d2      	adds	r2, r2, r3
      pHandle->lowDuty = wTimePhB;
 8004c6e:	b297      	uxth	r7, r2
      pHandle->midDuty = wTimePhA;
 8004c70:	b29e      	uxth	r6, r3
        pHandle->Sector = SECTOR_4;
 8004c72:	243a      	movs	r4, #58	; 0x3a
 8004c74:	4665      	mov	r5, ip
 8004c76:	5505      	strb	r5, [r0, r4]
        pHandle->highDuty = wTimePhA;
 8004c78:	4645      	mov	r5, r8
 8004c7a:	3406      	adds	r4, #6
        pHandle->lowDuty = wTimePhC;
 8004c7c:	8787      	strh	r7, [r0, #60]	; 0x3c
        pHandle->midDuty = wTimePhB;
 8004c7e:	87c6      	strh	r6, [r0, #62]	; 0x3e
        pHandle->highDuty = wTimePhA;
 8004c80:	5305      	strh	r5, [r0, r4]
        pHandle->midDuty = wTimePhB;
        pHandle->highDuty = wTimePhC;
      }
  }

  pHandle->CntPhA = (uint16_t)(MAX(wTimePhA,0));
 8004c82:	43dc      	mvns	r4, r3
 8004c84:	17e4      	asrs	r4, r4, #31
 8004c86:	4023      	ands	r3, r4
 8004c88:	43d4      	mvns	r4, r2
 8004c8a:	17e4      	asrs	r4, r4, #31
 8004c8c:	4022      	ands	r2, r4
 8004c8e:	43cc      	mvns	r4, r1
 8004c90:	17e4      	asrs	r4, r4, #31
 8004c92:	4021      	ands	r1, r4
  pHandle->CntPhB = (uint16_t)(MAX(wTimePhB,0));
  pHandle->CntPhC = (uint16_t)(MAX(wTimePhC,0));
  
  if ( pHandle->DTTest == 1u )
 8004c94:	244e      	movs	r4, #78	; 0x4e
 8004c96:	b29b      	uxth	r3, r3
 8004c98:	b292      	uxth	r2, r2
 8004c9a:	b289      	uxth	r1, r1
  pHandle->CntPhA = (uint16_t)(MAX(wTimePhA,0));
 8004c9c:	8643      	strh	r3, [r0, #50]	; 0x32
  pHandle->CntPhB = (uint16_t)(MAX(wTimePhB,0));
 8004c9e:	8682      	strh	r2, [r0, #52]	; 0x34
  pHandle->CntPhC = (uint16_t)(MAX(wTimePhC,0));
 8004ca0:	86c1      	strh	r1, [r0, #54]	; 0x36
  if ( pHandle->DTTest == 1u )
 8004ca2:	5b04      	ldrh	r4, [r0, r4]
 8004ca4:	2c01      	cmp	r4, #1
 8004ca6:	d03d      	beq.n	8004d24 <PWMC_SetPhaseVoltage+0x11c>
    {
      pHandle->CntPhC -= pHandle->DTCompCnt;
    }
  }

  return ( pHandle->pFctSetADCSampPointSectX( pHandle ) );
 8004ca8:	6983      	ldr	r3, [r0, #24]
 8004caa:	4798      	blx	r3
}
 8004cac:	b002      	add	sp, #8
 8004cae:	bc80      	pop	{r7}
 8004cb0:	46b8      	mov	r8, r7
 8004cb2:	bdf0      	pop	{r4, r5, r6, r7, pc}
      if ( wX <= 0 )
 8004cb4:	2e00      	cmp	r6, #0
 8004cb6:	dd67      	ble.n	8004d88 <PWMC_SetPhaseVoltage+0x180>
        wTimePhA = ( int32_t )( pHandle->PWMperiod ) / 4 + ( ( wX - wZ ) / ( int32_t )262144 );
 8004cb8:	1af3      	subs	r3, r6, r3
 8004cba:	17da      	asrs	r2, r3, #31
 8004cbc:	0392      	lsls	r2, r2, #14
 8004cbe:	0b92      	lsrs	r2, r2, #14
 8004cc0:	18d3      	adds	r3, r2, r3
        wTimePhB = wTimePhA + wZ / 131072;
 8004cc2:	17ca      	asrs	r2, r1, #31
 8004cc4:	0392      	lsls	r2, r2, #14
 8004cc6:	0b92      	lsrs	r2, r2, #14
 8004cc8:	1852      	adds	r2, r2, r1
        wTimePhC = wTimePhB - wX / 131072;
 8004cca:	17f1      	asrs	r1, r6, #31
 8004ccc:	03c9      	lsls	r1, r1, #15
        wTimePhA = ( int32_t )( pHandle->PWMperiod ) / 4 + ( ( wX - wZ ) / ( int32_t )262144 );
 8004cce:	08a4      	lsrs	r4, r4, #2
 8004cd0:	149b      	asrs	r3, r3, #18
        wTimePhC = wTimePhB - wX / 131072;
 8004cd2:	0bc9      	lsrs	r1, r1, #15
        wTimePhA = ( int32_t )( pHandle->PWMperiod ) / 4 + ( ( wX - wZ ) / ( int32_t )262144 );
 8004cd4:	191b      	adds	r3, r3, r4
        wTimePhC = wTimePhB - wX / 131072;
 8004cd6:	1989      	adds	r1, r1, r6
        wTimePhB = wTimePhA + wZ / 131072;
 8004cd8:	1492      	asrs	r2, r2, #18
 8004cda:	18d2      	adds	r2, r2, r3
        wTimePhC = wTimePhB - wX / 131072;
 8004cdc:	1449      	asrs	r1, r1, #17
 8004cde:	1a51      	subs	r1, r2, r1
        pHandle->highDuty = wTimePhC;
 8004ce0:	b28c      	uxth	r4, r1
 8004ce2:	46a0      	mov	r8, r4
 8004ce4:	2400      	movs	r4, #0
        pHandle->lowDuty = wTimePhA;
 8004ce6:	b29f      	uxth	r7, r3
        pHandle->highDuty = wTimePhC;
 8004ce8:	46a4      	mov	ip, r4
        pHandle->midDuty = wTimePhB;
 8004cea:	b296      	uxth	r6, r2
        pHandle->highDuty = wTimePhC;
 8004cec:	e7c1      	b.n	8004c72 <PWMC_SetPhaseVoltage+0x6a>
    if ( wZ < 0 )
 8004cee:	1c4f      	adds	r7, r1, #1
 8004cf0:	db65      	blt.n	8004dbe <PWMC_SetPhaseVoltage+0x1b6>
      if ( wX <= 0 )
 8004cf2:	2e00      	cmp	r6, #0
 8004cf4:	dd2d      	ble.n	8004d52 <PWMC_SetPhaseVoltage+0x14a>
        wTimePhA = ( int32_t )( pHandle->PWMperiod ) / 4 + ( ( wY - wX ) / ( int32_t )262144 );
 8004cf6:	1b92      	subs	r2, r2, r6
 8004cf8:	17d3      	asrs	r3, r2, #31
 8004cfa:	039b      	lsls	r3, r3, #14
 8004cfc:	0b9b      	lsrs	r3, r3, #14
 8004cfe:	189b      	adds	r3, r3, r2
 8004d00:	08a4      	lsrs	r4, r4, #2
 8004d02:	149b      	asrs	r3, r3, #18
 8004d04:	191b      	adds	r3, r3, r4
        pHandle->highDuty = wTimePhA;
 8004d06:	b29c      	uxth	r4, r3
 8004d08:	46a0      	mov	r8, r4
 8004d0a:	2402      	movs	r4, #2
        wTimePhC = wTimePhA - wY / 131072;
 8004d0c:	17e9      	asrs	r1, r5, #31
 8004d0e:	0389      	lsls	r1, r1, #14
 8004d10:	0b89      	lsrs	r1, r1, #14
 8004d12:	1949      	adds	r1, r1, r5
 8004d14:	1489      	asrs	r1, r1, #18
 8004d16:	1a59      	subs	r1, r3, r1
        wTimePhB = wTimePhC + wX / 131072;
 8004d18:	1472      	asrs	r2, r6, #17
 8004d1a:	1852      	adds	r2, r2, r1
        pHandle->highDuty = wTimePhA;
 8004d1c:	46a4      	mov	ip, r4
        pHandle->lowDuty = wTimePhB;
 8004d1e:	b297      	uxth	r7, r2
        pHandle->midDuty = wTimePhC;
 8004d20:	b28e      	uxth	r6, r1
        pHandle->highDuty = wTimePhA;
 8004d22:	e7a6      	b.n	8004c72 <PWMC_SetPhaseVoltage+0x6a>
    if ( pHandle->Ia > 0 )
 8004d24:	3447      	adds	r4, #71	; 0x47
 8004d26:	5f04      	ldrsh	r4, [r0, r4]
 8004d28:	2c00      	cmp	r4, #0
 8004d2a:	dd69      	ble.n	8004e00 <PWMC_SetPhaseVoltage+0x1f8>
      pHandle->CntPhA += pHandle->DTCompCnt;
 8004d2c:	2454      	movs	r4, #84	; 0x54
 8004d2e:	5b04      	ldrh	r4, [r0, r4]
 8004d30:	18e3      	adds	r3, r4, r3
 8004d32:	b29b      	uxth	r3, r3
 8004d34:	8643      	strh	r3, [r0, #50]	; 0x32
    if ( pHandle->Ib > 0 )
 8004d36:	234a      	movs	r3, #74	; 0x4a
 8004d38:	5ec3      	ldrsh	r3, [r0, r3]
 8004d3a:	2b00      	cmp	r3, #0
 8004d3c:	dd5d      	ble.n	8004dfa <PWMC_SetPhaseVoltage+0x1f2>
      pHandle->CntPhB += pHandle->DTCompCnt;
 8004d3e:	1912      	adds	r2, r2, r4
 8004d40:	b292      	uxth	r2, r2
    if ( pHandle->Ic > 0 )
 8004d42:	234c      	movs	r3, #76	; 0x4c
 8004d44:	8682      	strh	r2, [r0, #52]	; 0x34
 8004d46:	5ec3      	ldrsh	r3, [r0, r3]
 8004d48:	2b00      	cmp	r3, #0
 8004d4a:	dd53      	ble.n	8004df4 <PWMC_SetPhaseVoltage+0x1ec>
      pHandle->CntPhC += pHandle->DTCompCnt;
 8004d4c:	190c      	adds	r4, r1, r4
 8004d4e:	86c4      	strh	r4, [r0, #54]	; 0x36
 8004d50:	e7aa      	b.n	8004ca8 <PWMC_SetPhaseVoltage+0xa0>
        wTimePhA = ( int32_t )( pHandle->PWMperiod ) / 4 + ( ( wX - wZ ) / ( int32_t )262144 );
 8004d52:	1af3      	subs	r3, r6, r3
 8004d54:	17da      	asrs	r2, r3, #31
 8004d56:	0392      	lsls	r2, r2, #14
 8004d58:	0b92      	lsrs	r2, r2, #14
 8004d5a:	18d3      	adds	r3, r2, r3
 8004d5c:	08a4      	lsrs	r4, r4, #2
 8004d5e:	149b      	asrs	r3, r3, #18
 8004d60:	191b      	adds	r3, r3, r4
        pHandle->highDuty = wTimePhA;
 8004d62:	b29c      	uxth	r4, r3
 8004d64:	46a0      	mov	r8, r4
 8004d66:	2403      	movs	r4, #3
        wTimePhB = wTimePhA + wZ / 131072;
 8004d68:	17ca      	asrs	r2, r1, #31
 8004d6a:	0392      	lsls	r2, r2, #14
 8004d6c:	0b92      	lsrs	r2, r2, #14
 8004d6e:	1852      	adds	r2, r2, r1
        wTimePhC = wTimePhB - wX / 131072;
 8004d70:	17f1      	asrs	r1, r6, #31
 8004d72:	03c9      	lsls	r1, r1, #15
 8004d74:	0bc9      	lsrs	r1, r1, #15
 8004d76:	1989      	adds	r1, r1, r6
        wTimePhB = wTimePhA + wZ / 131072;
 8004d78:	1492      	asrs	r2, r2, #18
 8004d7a:	18d2      	adds	r2, r2, r3
        wTimePhC = wTimePhB - wX / 131072;
 8004d7c:	1449      	asrs	r1, r1, #17
 8004d7e:	1a51      	subs	r1, r2, r1
        pHandle->lowDuty = wTimePhC;
 8004d80:	46a4      	mov	ip, r4
 8004d82:	b28f      	uxth	r7, r1
        pHandle->midDuty = wTimePhB;
 8004d84:	b296      	uxth	r6, r2
        pHandle->highDuty = wTimePhA;
 8004d86:	e774      	b.n	8004c72 <PWMC_SetPhaseVoltage+0x6a>
        wTimePhA = ( int32_t )( pHandle->PWMperiod ) / 4 + ( ( wY - wX ) / ( int32_t )262144 );
 8004d88:	1b92      	subs	r2, r2, r6
 8004d8a:	17d3      	asrs	r3, r2, #31
 8004d8c:	039b      	lsls	r3, r3, #14
 8004d8e:	0b9b      	lsrs	r3, r3, #14
        wTimePhC = wTimePhA - wY / 131072;
 8004d90:	17e9      	asrs	r1, r5, #31
        wTimePhA = ( int32_t )( pHandle->PWMperiod ) / 4 + ( ( wY - wX ) / ( int32_t )262144 );
 8004d92:	189b      	adds	r3, r3, r2
        wTimePhC = wTimePhA - wY / 131072;
 8004d94:	0389      	lsls	r1, r1, #14
        wTimePhB = wTimePhC + wX / 131072;
 8004d96:	17f2      	asrs	r2, r6, #31
        wTimePhC = wTimePhA - wY / 131072;
 8004d98:	0b89      	lsrs	r1, r1, #14
        wTimePhB = wTimePhC + wX / 131072;
 8004d9a:	03d2      	lsls	r2, r2, #15
        wTimePhA = ( int32_t )( pHandle->PWMperiod ) / 4 + ( ( wY - wX ) / ( int32_t )262144 );
 8004d9c:	08a4      	lsrs	r4, r4, #2
 8004d9e:	149b      	asrs	r3, r3, #18
        wTimePhC = wTimePhA - wY / 131072;
 8004da0:	1949      	adds	r1, r1, r5
        wTimePhB = wTimePhC + wX / 131072;
 8004da2:	0bd2      	lsrs	r2, r2, #15
        wTimePhA = ( int32_t )( pHandle->PWMperiod ) / 4 + ( ( wY - wX ) / ( int32_t )262144 );
 8004da4:	191b      	adds	r3, r3, r4
        wTimePhB = wTimePhC + wX / 131072;
 8004da6:	1992      	adds	r2, r2, r6
        wTimePhC = wTimePhA - wY / 131072;
 8004da8:	1489      	asrs	r1, r1, #18
 8004daa:	1a59      	subs	r1, r3, r1
        wTimePhB = wTimePhC + wX / 131072;
 8004dac:	1452      	asrs	r2, r2, #17
 8004dae:	1852      	adds	r2, r2, r1
        pHandle->highDuty = wTimePhB;
 8004db0:	b294      	uxth	r4, r2
 8004db2:	46a0      	mov	r8, r4
 8004db4:	2405      	movs	r4, #5
        pHandle->lowDuty = wTimePhA;
 8004db6:	b29f      	uxth	r7, r3
        pHandle->midDuty = wTimePhC;
 8004db8:	46a4      	mov	ip, r4
 8004dba:	b28e      	uxth	r6, r1
        pHandle->highDuty = wTimePhB;
 8004dbc:	e759      	b.n	8004c72 <PWMC_SetPhaseVoltage+0x6a>
      wTimePhA = ( int32_t )( pHandle->PWMperiod ) / 4 + ( ( wY - wZ ) / ( int32_t )262144 );
 8004dbe:	1ad2      	subs	r2, r2, r3
 8004dc0:	17d3      	asrs	r3, r2, #31
 8004dc2:	039b      	lsls	r3, r3, #14
 8004dc4:	0b9b      	lsrs	r3, r3, #14
 8004dc6:	189b      	adds	r3, r3, r2
      wTimePhB = wTimePhA + wZ / 131072;
 8004dc8:	17ca      	asrs	r2, r1, #31
 8004dca:	0392      	lsls	r2, r2, #14
 8004dcc:	0b92      	lsrs	r2, r2, #14
      wTimePhA = ( int32_t )( pHandle->PWMperiod ) / 4 + ( ( wY - wZ ) / ( int32_t )262144 );
 8004dce:	08a4      	lsrs	r4, r4, #2
      wTimePhB = wTimePhA + wZ / 131072;
 8004dd0:	1852      	adds	r2, r2, r1
      wTimePhA = ( int32_t )( pHandle->PWMperiod ) / 4 + ( ( wY - wZ ) / ( int32_t )262144 );
 8004dd2:	149b      	asrs	r3, r3, #18
 8004dd4:	191b      	adds	r3, r3, r4
      wTimePhB = wTimePhA + wZ / 131072;
 8004dd6:	1492      	asrs	r2, r2, #18
 8004dd8:	18d2      	adds	r2, r2, r3
      pHandle->highDuty = wTimePhB;
 8004dda:	b294      	uxth	r4, r2
 8004ddc:	46a0      	mov	r8, r4
 8004dde:	2404      	movs	r4, #4
      wTimePhC = wTimePhA - wY / 131072;
 8004de0:	17e9      	asrs	r1, r5, #31
 8004de2:	0389      	lsls	r1, r1, #14
 8004de4:	0b89      	lsrs	r1, r1, #14
 8004de6:	1949      	adds	r1, r1, r5
 8004de8:	1489      	asrs	r1, r1, #18
 8004dea:	1a59      	subs	r1, r3, r1
      pHandle->lowDuty = wTimePhC;
 8004dec:	46a4      	mov	ip, r4
 8004dee:	b28f      	uxth	r7, r1
      pHandle->midDuty = wTimePhA;
 8004df0:	b29e      	uxth	r6, r3
      pHandle->highDuty = wTimePhB;
 8004df2:	e73e      	b.n	8004c72 <PWMC_SetPhaseVoltage+0x6a>
      pHandle->CntPhC -= pHandle->DTCompCnt;
 8004df4:	1b09      	subs	r1, r1, r4
 8004df6:	86c1      	strh	r1, [r0, #54]	; 0x36
 8004df8:	e756      	b.n	8004ca8 <PWMC_SetPhaseVoltage+0xa0>
      pHandle->CntPhB -= pHandle->DTCompCnt;
 8004dfa:	1b12      	subs	r2, r2, r4
 8004dfc:	b292      	uxth	r2, r2
 8004dfe:	e7a0      	b.n	8004d42 <PWMC_SetPhaseVoltage+0x13a>
      pHandle->CntPhA -= pHandle->DTCompCnt;
 8004e00:	2454      	movs	r4, #84	; 0x54
 8004e02:	5b04      	ldrh	r4, [r0, r4]
 8004e04:	1b1b      	subs	r3, r3, r4
 8004e06:	b29b      	uxth	r3, r3
 8004e08:	e794      	b.n	8004d34 <PWMC_SetPhaseVoltage+0x12c>
 8004e0a:	46c0      	nop			; (mov r8, r8)

08004e0c <PWMC_SwitchOffPWM>:
/**
  * @brief  Switches PWM generation off, inactivating the outputs.
  * @param  pHandle Handle on the target instance of the PWMC component
  */
__weak void PWMC_SwitchOffPWM( PWMC_Handle_t * pHandle )
{
 8004e0c:	b510      	push	{r4, lr}
  pHandle->pFctSwitchOffPwm( pHandle );
 8004e0e:	6883      	ldr	r3, [r0, #8]
 8004e10:	4798      	blx	r3
}
 8004e12:	bd10      	pop	{r4, pc}

08004e14 <PWMC_CurrentReadingCalibr>:
  *         #CRC_EXEC to execute the offset calibration.
  * @retval true if the current calibration has been completed, false if it is
  *         still ongoing.
  */
__weak bool PWMC_CurrentReadingCalibr( PWMC_Handle_t * pHandle, CRCAction_t action )
{
 8004e14:	b570      	push	{r4, r5, r6, lr}
 8004e16:	0004      	movs	r4, r0
  bool retVal = false;
  if ( action == CRC_START )
 8004e18:	2900      	cmp	r1, #0
 8004e1a:	d011      	beq.n	8004e40 <PWMC_CurrentReadingCalibr+0x2c>
    {
      pHandle->pFctCurrReadingCalib( pHandle );
      retVal = true;
    }
  }
  else if ( action == CRC_EXEC )
 8004e1c:	2901      	cmp	r1, #1
 8004e1e:	d002      	beq.n	8004e26 <PWMC_CurrentReadingCalibr+0x12>
  bool retVal = false;
 8004e20:	2500      	movs	r5, #0
  }
  else
  {
  }
  return retVal;
}
 8004e22:	0028      	movs	r0, r5
 8004e24:	bd70      	pop	{r4, r5, r6, pc}
    if ( pHandle->OffCalibrWaitTimeCounter > 0u )
 8004e26:	2244      	movs	r2, #68	; 0x44
 8004e28:	5a83      	ldrh	r3, [r0, r2]
      retVal = true;
 8004e2a:	2501      	movs	r5, #1
    if ( pHandle->OffCalibrWaitTimeCounter > 0u )
 8004e2c:	2b00      	cmp	r3, #0
 8004e2e:	d0f8      	beq.n	8004e22 <PWMC_CurrentReadingCalibr+0xe>
      pHandle->OffCalibrWaitTimeCounter--;
 8004e30:	3b01      	subs	r3, #1
 8004e32:	b29b      	uxth	r3, r3
 8004e34:	5283      	strh	r3, [r0, r2]
      if ( pHandle->OffCalibrWaitTimeCounter == 0u )
 8004e36:	2b00      	cmp	r3, #0
 8004e38:	d1f2      	bne.n	8004e20 <PWMC_CurrentReadingCalibr+0xc>
        pHandle->pFctCurrReadingCalib( pHandle );
 8004e3a:	6903      	ldr	r3, [r0, #16]
 8004e3c:	4798      	blx	r3
        retVal = true;
 8004e3e:	e7f0      	b.n	8004e22 <PWMC_CurrentReadingCalibr+0xe>
    PWMC_SwitchOffPWM( pHandle );
 8004e40:	f7ff ffe4 	bl	8004e0c <PWMC_SwitchOffPWM>
    pHandle->OffCalibrWaitTimeCounter = pHandle->OffCalibrWaitTicks;
 8004e44:	2352      	movs	r3, #82	; 0x52
 8004e46:	2244      	movs	r2, #68	; 0x44
 8004e48:	5ae3      	ldrh	r3, [r4, r3]
 8004e4a:	52a3      	strh	r3, [r4, r2]
    if ( pHandle->OffCalibrWaitTicks == 0u )
 8004e4c:	2b00      	cmp	r3, #0
 8004e4e:	d1e7      	bne.n	8004e20 <PWMC_CurrentReadingCalibr+0xc>
      pHandle->pFctCurrReadingCalib( pHandle );
 8004e50:	0020      	movs	r0, r4
 8004e52:	6923      	ldr	r3, [r4, #16]
 8004e54:	4798      	blx	r3
      retVal = true;
 8004e56:	2501      	movs	r5, #1
 8004e58:	e7e3      	b.n	8004e22 <PWMC_CurrentReadingCalibr+0xe>
 8004e5a:	46c0      	nop			; (mov r8, r8)

08004e5c <PWMC_CheckOverCurrent>:

/** @brief Returns #MC_BREAK_IN if an over current condition was detected on the power stage
 *         controlled by the PWMC component pointed by  @p pHandle, since the last call to this function;
 *         returns #MC_NO_FAULTS otherwise. */
__weak uint16_t PWMC_CheckOverCurrent( PWMC_Handle_t * pHandle )
{
 8004e5c:	b510      	push	{r4, lr}
  return pHandle->pFctIsOverCurrentOccurred( pHandle );
 8004e5e:	69c3      	ldr	r3, [r0, #28]
 8004e60:	4798      	blx	r3
}
 8004e62:	bd10      	pop	{r4, pc}

08004e64 <R3_1_GetPhaseCurrents>:
 * @brief  It computes and return latest converted motor phase currents
 * @param  pHdl: handler of the current instance of the PWM component
 * @retval ab_t Ia and Ib current in ab_t format
 */
__weak void R3_1_GetPhaseCurrents( PWMC_Handle_t * pHdl, ab_t * pStator_Currents )
{
 8004e64:	b570      	push	{r4, r5, r6, lr}
  MODIFY_REG(TIMx->CR2, TIM_CR2_MMS, TimerSynchronization);
 8004e66:	2470      	movs	r4, #112	; 0x70
 8004e68:	4a54      	ldr	r2, [pc, #336]	; (8004fbc <R3_1_GetPhaseCurrents+0x158>)
  MODIFY_REG(ADCx->CFGR1, ADC_CFGR1_SCANDIR, ScanDirection);
 8004e6a:	2504      	movs	r5, #4
 8004e6c:	6853      	ldr	r3, [r2, #4]
 8004e6e:	43a3      	bics	r3, r4
 8004e70:	6053      	str	r3, [r2, #4]
  uint8_t bSector;

  /* disable ADC trigger source */
  LL_TIM_SetTriggerOutput(TIM1, LL_TIM_TRGO_RESET);

  bSector = ( uint8_t ) pHandle->_Super.Sector;
 8004e72:	233a      	movs	r3, #58	; 0x3a
 8004e74:	4c52      	ldr	r4, [pc, #328]	; (8004fc0 <R3_1_GetPhaseCurrents+0x15c>)
 8004e76:	5cc3      	ldrb	r3, [r0, r3]
 8004e78:	68e2      	ldr	r2, [r4, #12]
 8004e7a:	43aa      	bics	r2, r5
 8004e7c:	60e2      	str	r2, [r4, #12]

  LL_ADC_REG_SetSequencerScanDirection(ADC1, LL_ADC_REG_SEQ_SCAN_DIR_FORWARD);
  hReg1 = *pHandle->pParams_str->ADCDataReg1[bSector];
 8004e7e:	6f82      	ldr	r2, [r0, #120]	; 0x78
 8004e80:	009c      	lsls	r4, r3, #2
 8004e82:	1912      	adds	r2, r2, r4
 8004e84:	6b54      	ldr	r4, [r2, #52]	; 0x34
  hReg2 = *pHandle->pParams_str->ADCDataReg2[bSector];
 8004e86:	6cd2      	ldr	r2, [r2, #76]	; 0x4c
  hReg1 = *pHandle->pParams_str->ADCDataReg1[bSector];
 8004e88:	8824      	ldrh	r4, [r4, #0]
  hReg2 = *pHandle->pParams_str->ADCDataReg2[bSector];
 8004e8a:	8816      	ldrh	r6, [r2, #0]
  hReg1 = *pHandle->pParams_str->ADCDataReg1[bSector];
 8004e8c:	b2a4      	uxth	r4, r4
  hReg2 = *pHandle->pParams_str->ADCDataReg2[bSector];
 8004e8e:	b2b6      	uxth	r6, r6
  
  switch ( bSector )
 8004e90:	2b04      	cmp	r3, #4
 8004e92:	d811      	bhi.n	8004eb8 <R3_1_GetPhaseCurrents+0x54>
 8004e94:	2b02      	cmp	r3, #2
 8004e96:	d847      	bhi.n	8004f28 <R3_1_GetPhaseCurrents+0xc4>
 8004e98:	2b00      	cmp	r3, #0
 8004e9a:	d02e      	beq.n	8004efa <R3_1_GetPhaseCurrents+0x96>

    case SECTOR_2:
    case SECTOR_3:
      /* Current on Phase B is not accessible     */
      /* Ia = PhaseAOffset - ADC converted value) ------------------------------*/
      wAux = ( int32_t )( pHandle->PhaseAOffset ) - ( int32_t )( hReg1 );
 8004e9c:	6dc2      	ldr	r2, [r0, #92]	; 0x5c

      /* Saturation of Ia */
      if ( wAux < -INT16_MAX )
 8004e9e:	4d49      	ldr	r5, [pc, #292]	; (8004fc4 <R3_1_GetPhaseCurrents+0x160>)
      wAux = ( int32_t )( pHandle->PhaseAOffset ) - ( int32_t )( hReg1 );
 8004ea0:	1b12      	subs	r2, r2, r4
      if ( wAux < -INT16_MAX )
 8004ea2:	42aa      	cmp	r2, r5
 8004ea4:	db19      	blt.n	8004eda <R3_1_GetPhaseCurrents+0x76>
      {
        pStator_Currents->a = -INT16_MAX;
      }
      else  if ( wAux > INT16_MAX )
 8004ea6:	2380      	movs	r3, #128	; 0x80
 8004ea8:	021b      	lsls	r3, r3, #8
 8004eaa:	429a      	cmp	r2, r3
 8004eac:	da00      	bge.n	8004eb0 <R3_1_GetPhaseCurrents+0x4c>
 8004eae:	e06e      	b.n	8004f8e <R3_1_GetPhaseCurrents+0x12a>
 8004eb0:	4b45      	ldr	r3, [pc, #276]	; (8004fc8 <R3_1_GetPhaseCurrents+0x164>)
 8004eb2:	001a      	movs	r2, r3
 8004eb4:	001d      	movs	r5, r3
 8004eb6:	e012      	b.n	8004ede <R3_1_GetPhaseCurrents+0x7a>
  switch ( bSector )
 8004eb8:	2b05      	cmp	r3, #5
 8004eba:	d01e      	beq.n	8004efa <R3_1_GetPhaseCurrents+0x96>

    default:
      break;
  }

  pHandle->_Super.Ia = pStator_Currents->a;
 8004ebc:	2300      	movs	r3, #0
 8004ebe:	5ecd      	ldrsh	r5, [r1, r3]
  pHandle->_Super.Ib = pStator_Currents->b;
 8004ec0:	2302      	movs	r3, #2
 8004ec2:	5ecc      	ldrsh	r4, [r1, r3]
  pHandle->_Super.Ic = -pStator_Currents->a - pStator_Currents->b;
 8004ec4:	884a      	ldrh	r2, [r1, #2]
 8004ec6:	880b      	ldrh	r3, [r1, #0]
  pHandle->_Super.Ia = pStator_Currents->a;
 8004ec8:	2148      	movs	r1, #72	; 0x48
  pHandle->_Super.Ic = -pStator_Currents->a - pStator_Currents->b;
 8004eca:	189b      	adds	r3, r3, r2
 8004ecc:	224c      	movs	r2, #76	; 0x4c
  pHandle->_Super.Ia = pStator_Currents->a;
 8004ece:	5245      	strh	r5, [r0, r1]
  pHandle->_Super.Ic = -pStator_Currents->a - pStator_Currents->b;
 8004ed0:	425b      	negs	r3, r3
  pHandle->_Super.Ib = pStator_Currents->b;
 8004ed2:	3102      	adds	r1, #2
 8004ed4:	5244      	strh	r4, [r0, r1]
  pHandle->_Super.Ic = -pStator_Currents->a - pStator_Currents->b;
 8004ed6:	5283      	strh	r3, [r0, r2]
}
 8004ed8:	bd70      	pop	{r4, r5, r6, pc}
 8004eda:	002a      	movs	r2, r5
 8004edc:	4b3b      	ldr	r3, [pc, #236]	; (8004fcc <R3_1_GetPhaseCurrents+0x168>)
      wAux = -wAux -  ( int32_t )pStator_Currents->a;         /* Ib  */
 8004ede:	6e44      	ldr	r4, [r0, #100]	; 0x64
        pStator_Currents->a = -INT16_MAX;
 8004ee0:	800d      	strh	r5, [r1, #0]
      wAux = -wAux -  ( int32_t )pStator_Currents->a;         /* Ib  */
 8004ee2:	1b34      	subs	r4, r6, r4
 8004ee4:	1aa2      	subs	r2, r4, r2
      if ( wAux > INT16_MAX )
 8004ee6:	2480      	movs	r4, #128	; 0x80
 8004ee8:	0224      	lsls	r4, r4, #8
 8004eea:	42a2      	cmp	r2, r4
 8004eec:	da3a      	bge.n	8004f64 <R3_1_GetPhaseCurrents+0x100>
      else  if ( wAux < -INT16_MAX )
 8004eee:	4c35      	ldr	r4, [pc, #212]	; (8004fc4 <R3_1_GetPhaseCurrents+0x160>)
 8004ef0:	42a2      	cmp	r2, r4
 8004ef2:	da54      	bge.n	8004f9e <R3_1_GetPhaseCurrents+0x13a>
        pStator_Currents->b = -INT16_MAX;
 8004ef4:	4a35      	ldr	r2, [pc, #212]	; (8004fcc <R3_1_GetPhaseCurrents+0x168>)
 8004ef6:	804c      	strh	r4, [r1, #2]
 8004ef8:	e7e6      	b.n	8004ec8 <R3_1_GetPhaseCurrents+0x64>
      wAux = ( int32_t )( pHandle->PhaseBOffset ) - ( int32_t )( hReg1 );
 8004efa:	6e05      	ldr	r5, [r0, #96]	; 0x60
      if ( wAux < -INT16_MAX )
 8004efc:	4b31      	ldr	r3, [pc, #196]	; (8004fc4 <R3_1_GetPhaseCurrents+0x160>)
      wAux = ( int32_t )( pHandle->PhaseBOffset ) - ( int32_t )( hReg1 );
 8004efe:	1b2d      	subs	r5, r5, r4
      if ( wAux < -INT16_MAX )
 8004f00:	429d      	cmp	r5, r3
 8004f02:	db33      	blt.n	8004f6c <R3_1_GetPhaseCurrents+0x108>
      else  if ( wAux > INT16_MAX )
 8004f04:	2380      	movs	r3, #128	; 0x80
 8004f06:	021b      	lsls	r3, r3, #8
 8004f08:	429d      	cmp	r5, r3
 8004f0a:	da4e      	bge.n	8004faa <R3_1_GetPhaseCurrents+0x146>
        pStator_Currents->b = ( int16_t )wAux;
 8004f0c:	b22c      	sxth	r4, r5
  pHandle->_Super.Ic = -pStator_Currents->a - pStator_Currents->b;
 8004f0e:	b2aa      	uxth	r2, r5
      wAux = -wAux - ( int32_t )pStator_Currents->b;
 8004f10:	6e43      	ldr	r3, [r0, #100]	; 0x64
        pStator_Currents->b = -INT16_MAX;
 8004f12:	804c      	strh	r4, [r1, #2]
      wAux = -wAux - ( int32_t )pStator_Currents->b;
 8004f14:	1af3      	subs	r3, r6, r3
 8004f16:	1b5b      	subs	r3, r3, r5
      if ( wAux > INT16_MAX )
 8004f18:	2580      	movs	r5, #128	; 0x80
 8004f1a:	022d      	lsls	r5, r5, #8
 8004f1c:	42ab      	cmp	r3, r5
 8004f1e:	db30      	blt.n	8004f82 <R3_1_GetPhaseCurrents+0x11e>
        pStator_Currents->a = INT16_MAX;
 8004f20:	4b29      	ldr	r3, [pc, #164]	; (8004fc8 <R3_1_GetPhaseCurrents+0x164>)
 8004f22:	001d      	movs	r5, r3
 8004f24:	800b      	strh	r3, [r1, #0]
 8004f26:	e7cf      	b.n	8004ec8 <R3_1_GetPhaseCurrents+0x64>
      wAux = ( int32_t )( pHandle->PhaseAOffset ) - ( int32_t )( hReg1 );
 8004f28:	6dc3      	ldr	r3, [r0, #92]	; 0x5c
      if ( wAux < -INT16_MAX )
 8004f2a:	4a26      	ldr	r2, [pc, #152]	; (8004fc4 <R3_1_GetPhaseCurrents+0x160>)
      wAux = ( int32_t )( pHandle->PhaseAOffset ) - ( int32_t )( hReg1 );
 8004f2c:	1b1b      	subs	r3, r3, r4
      if ( wAux < -INT16_MAX )
 8004f2e:	0015      	movs	r5, r2
 8004f30:	4293      	cmp	r3, r2
 8004f32:	db04      	blt.n	8004f3e <R3_1_GetPhaseCurrents+0xda>
      else  if ( wAux > INT16_MAX )
 8004f34:	2280      	movs	r2, #128	; 0x80
 8004f36:	0212      	lsls	r2, r2, #8
 8004f38:	4293      	cmp	r3, r2
 8004f3a:	da34      	bge.n	8004fa6 <R3_1_GetPhaseCurrents+0x142>
        pStator_Currents->a = ( int16_t )wAux;
 8004f3c:	b21d      	sxth	r5, r3
      wAux = ( int32_t )( pHandle->PhaseBOffset ) - ( int32_t )( hReg2 );
 8004f3e:	6e02      	ldr	r2, [r0, #96]	; 0x60
      if ( wAux < -INT16_MAX )
 8004f40:	4c20      	ldr	r4, [pc, #128]	; (8004fc4 <R3_1_GetPhaseCurrents+0x160>)
        pStator_Currents->a = -INT16_MAX;
 8004f42:	800d      	strh	r5, [r1, #0]
      wAux = ( int32_t )( pHandle->PhaseBOffset ) - ( int32_t )( hReg2 );
 8004f44:	1b92      	subs	r2, r2, r6
      if ( wAux < -INT16_MAX )
 8004f46:	42a2      	cmp	r2, r4
 8004f48:	db08      	blt.n	8004f5c <R3_1_GetPhaseCurrents+0xf8>
      else  if ( wAux > INT16_MAX )
 8004f4a:	2380      	movs	r3, #128	; 0x80
 8004f4c:	021b      	lsls	r3, r3, #8
 8004f4e:	429a      	cmp	r2, r3
 8004f50:	db20      	blt.n	8004f94 <R3_1_GetPhaseCurrents+0x130>
        pStator_Currents->b = INT16_MAX;
 8004f52:	4a1d      	ldr	r2, [pc, #116]	; (8004fc8 <R3_1_GetPhaseCurrents+0x164>)
  pHandle->_Super.Ic = -pStator_Currents->a - pStator_Currents->b;
 8004f54:	b2ab      	uxth	r3, r5
 8004f56:	0014      	movs	r4, r2
        pStator_Currents->b = INT16_MAX;
 8004f58:	804a      	strh	r2, [r1, #2]
 8004f5a:	e7b5      	b.n	8004ec8 <R3_1_GetPhaseCurrents+0x64>
        pStator_Currents->b = -INT16_MAX;
 8004f5c:	4a1b      	ldr	r2, [pc, #108]	; (8004fcc <R3_1_GetPhaseCurrents+0x168>)
 8004f5e:	804c      	strh	r4, [r1, #2]
  pHandle->_Super.Ic = -pStator_Currents->a - pStator_Currents->b;
 8004f60:	b2ab      	uxth	r3, r5
 8004f62:	e7b1      	b.n	8004ec8 <R3_1_GetPhaseCurrents+0x64>
        pStator_Currents->b = INT16_MAX;
 8004f64:	4a18      	ldr	r2, [pc, #96]	; (8004fc8 <R3_1_GetPhaseCurrents+0x164>)
 8004f66:	0014      	movs	r4, r2
 8004f68:	804a      	strh	r2, [r1, #2]
 8004f6a:	e7ad      	b.n	8004ec8 <R3_1_GetPhaseCurrents+0x64>
 8004f6c:	001d      	movs	r5, r3
 8004f6e:	001c      	movs	r4, r3
      wAux = -wAux - ( int32_t )pStator_Currents->b;
 8004f70:	6e43      	ldr	r3, [r0, #100]	; 0x64
 8004f72:	4a16      	ldr	r2, [pc, #88]	; (8004fcc <R3_1_GetPhaseCurrents+0x168>)
 8004f74:	1af3      	subs	r3, r6, r3
 8004f76:	1b5b      	subs	r3, r3, r5
      if ( wAux > INT16_MAX )
 8004f78:	2580      	movs	r5, #128	; 0x80
        pStator_Currents->b = -INT16_MAX;
 8004f7a:	804c      	strh	r4, [r1, #2]
      if ( wAux > INT16_MAX )
 8004f7c:	022d      	lsls	r5, r5, #8
 8004f7e:	42ab      	cmp	r3, r5
 8004f80:	dace      	bge.n	8004f20 <R3_1_GetPhaseCurrents+0xbc>
      else  if ( wAux < -INT16_MAX )
 8004f82:	4d10      	ldr	r5, [pc, #64]	; (8004fc4 <R3_1_GetPhaseCurrents+0x160>)
 8004f84:	42ab      	cmp	r3, r5
 8004f86:	da14      	bge.n	8004fb2 <R3_1_GetPhaseCurrents+0x14e>
        pStator_Currents->a = -INT16_MAX;
 8004f88:	4b10      	ldr	r3, [pc, #64]	; (8004fcc <R3_1_GetPhaseCurrents+0x168>)
 8004f8a:	800d      	strh	r5, [r1, #0]
 8004f8c:	e79c      	b.n	8004ec8 <R3_1_GetPhaseCurrents+0x64>
        pStator_Currents->a = ( int16_t )wAux;
 8004f8e:	b215      	sxth	r5, r2
  pHandle->_Super.Ic = -pStator_Currents->a - pStator_Currents->b;
 8004f90:	b293      	uxth	r3, r2
 8004f92:	e7a4      	b.n	8004ede <R3_1_GetPhaseCurrents+0x7a>
        pStator_Currents->b = ( int16_t )wAux;
 8004f94:	b214      	sxth	r4, r2
 8004f96:	804c      	strh	r4, [r1, #2]
  pHandle->_Super.Ic = -pStator_Currents->a - pStator_Currents->b;
 8004f98:	b2ab      	uxth	r3, r5
 8004f9a:	b292      	uxth	r2, r2
 8004f9c:	e794      	b.n	8004ec8 <R3_1_GetPhaseCurrents+0x64>
        pStator_Currents->b = ( int16_t )wAux;
 8004f9e:	b214      	sxth	r4, r2
 8004fa0:	804c      	strh	r4, [r1, #2]
  pHandle->_Super.Ic = -pStator_Currents->a - pStator_Currents->b;
 8004fa2:	b292      	uxth	r2, r2
 8004fa4:	e790      	b.n	8004ec8 <R3_1_GetPhaseCurrents+0x64>
 8004fa6:	4d08      	ldr	r5, [pc, #32]	; (8004fc8 <R3_1_GetPhaseCurrents+0x164>)
 8004fa8:	e7c9      	b.n	8004f3e <R3_1_GetPhaseCurrents+0xda>
 8004faa:	4a07      	ldr	r2, [pc, #28]	; (8004fc8 <R3_1_GetPhaseCurrents+0x164>)
 8004fac:	0015      	movs	r5, r2
 8004fae:	0014      	movs	r4, r2
 8004fb0:	e7ae      	b.n	8004f10 <R3_1_GetPhaseCurrents+0xac>
        pStator_Currents->a = ( int16_t )wAux;
 8004fb2:	b21d      	sxth	r5, r3
 8004fb4:	800d      	strh	r5, [r1, #0]
  pHandle->_Super.Ic = -pStator_Currents->a - pStator_Currents->b;
 8004fb6:	b29b      	uxth	r3, r3
 8004fb8:	e786      	b.n	8004ec8 <R3_1_GetPhaseCurrents+0x64>
 8004fba:	46c0      	nop			; (mov r8, r8)
 8004fbc:	40012c00 	.word	0x40012c00
 8004fc0:	40012400 	.word	0x40012400
 8004fc4:	ffff8001 	.word	0xffff8001
 8004fc8:	00007fff 	.word	0x00007fff
 8004fcc:	00008001 	.word	0x00008001

08004fd0 <R3_1_HFCurrentsCalibrationAB>:
  PWMC_R3_1_Handle_t * pHandle = ( PWMC_R3_1_Handle_t * )pHdl;
#if defined (__ICCARM__)
#pragma cstat_restore = "MISRAC2012-Rule-11.3"
#endif
  TIM_TypeDef * TIMx = TIM1;
  uint8_t bSector = pHandle->CalibSector;
 8004fd0:	2373      	movs	r3, #115	; 0x73
{
 8004fd2:	b530      	push	{r4, r5, lr}
 8004fd4:	2570      	movs	r5, #112	; 0x70
 8004fd6:	4a0f      	ldr	r2, [pc, #60]	; (8005014 <R3_1_HFCurrentsCalibrationAB+0x44>)
  uint8_t bSector = pHandle->CalibSector;
 8004fd8:	5cc4      	ldrb	r4, [r0, r3]
 8004fda:	6853      	ldr	r3, [r2, #4]
 8004fdc:	43ab      	bics	r3, r5
 8004fde:	6053      	str	r3, [r2, #4]

  /* disable ADC trigger source */
  LL_TIM_SetTriggerOutput(TIMx, LL_TIM_TRGO_RESET);

  if ( pHandle->PolarizationCounter < NB_CONVERSIONS )
 8004fe0:	2372      	movs	r3, #114	; 0x72
 8004fe2:	5cc2      	ldrb	r2, [r0, r3]
 8004fe4:	2a0f      	cmp	r2, #15
 8004fe6:	d810      	bhi.n	800500a <R3_1_HFCurrentsCalibrationAB+0x3a>
  {
    pHandle->PhaseAOffset += *pHandle->pParams_str->ADCDataReg1[bSector];
 8004fe8:	6f82      	ldr	r2, [r0, #120]	; 0x78
 8004fea:	00a4      	lsls	r4, r4, #2
 8004fec:	1912      	adds	r2, r2, r4
 8004fee:	6b54      	ldr	r4, [r2, #52]	; 0x34
    pHandle->PhaseBOffset += *pHandle->pParams_str->ADCDataReg2[bSector];
 8004ff0:	6cd2      	ldr	r2, [r2, #76]	; 0x4c
    pHandle->PhaseAOffset += *pHandle->pParams_str->ADCDataReg1[bSector];
 8004ff2:	8825      	ldrh	r5, [r4, #0]
 8004ff4:	6dc4      	ldr	r4, [r0, #92]	; 0x5c
 8004ff6:	1964      	adds	r4, r4, r5
 8004ff8:	65c4      	str	r4, [r0, #92]	; 0x5c
    pHandle->PhaseBOffset += *pHandle->pParams_str->ADCDataReg2[bSector];
 8004ffa:	8814      	ldrh	r4, [r2, #0]
 8004ffc:	6e02      	ldr	r2, [r0, #96]	; 0x60
 8004ffe:	1912      	adds	r2, r2, r4
 8005000:	6602      	str	r2, [r0, #96]	; 0x60
    pHandle->PolarizationCounter++;
 8005002:	5cc2      	ldrb	r2, [r0, r3]
 8005004:	3201      	adds	r2, #1
 8005006:	b2d2      	uxtb	r2, r2
 8005008:	54c2      	strb	r2, [r0, r3]
  }

  /* during offset calibration no current is flowing in the phases */
  pStator_Currents->a = 0;
 800500a:	2300      	movs	r3, #0
 800500c:	800b      	strh	r3, [r1, #0]
  pStator_Currents->b = 0;
 800500e:	804b      	strh	r3, [r1, #2]
}
 8005010:	bd30      	pop	{r4, r5, pc}
 8005012:	46c0      	nop			; (mov r8, r8)
 8005014:	40012c00 	.word	0x40012c00

08005018 <R3_1_HFCurrentsCalibrationC>:
  PWMC_R3_1_Handle_t * pHandle = ( PWMC_R3_1_Handle_t * )pHdl;
#if defined (__ICCARM__)
#pragma cstat_restore = "MISRAC2012-Rule-11.3"
#endif
  TIM_TypeDef * TIMx = TIM1;
  uint8_t bSector = pHandle->CalibSector;
 8005018:	2373      	movs	r3, #115	; 0x73
{
 800501a:	b530      	push	{r4, r5, lr}
 800501c:	2570      	movs	r5, #112	; 0x70
 800501e:	4c0e      	ldr	r4, [pc, #56]	; (8005058 <R3_1_HFCurrentsCalibrationC+0x40>)
  uint8_t bSector = pHandle->CalibSector;
 8005020:	5cc2      	ldrb	r2, [r0, r3]
 8005022:	6863      	ldr	r3, [r4, #4]
 8005024:	43ab      	bics	r3, r5
 8005026:	6063      	str	r3, [r4, #4]

  /* disable ADC trigger source */
  LL_TIM_SetTriggerOutput(TIMx, LL_TIM_TRGO_RESET);
  
  pHandle->_Super.Sector = SECTOR_1;
 8005028:	233a      	movs	r3, #58	; 0x3a
 800502a:	2400      	movs	r4, #0
 800502c:	54c4      	strb	r4, [r0, r3]
  if ( pHandle->PolarizationCounter < NB_CONVERSIONS )
 800502e:	3338      	adds	r3, #56	; 0x38
 8005030:	5cc4      	ldrb	r4, [r0, r3]
 8005032:	2c0f      	cmp	r4, #15
 8005034:	d80c      	bhi.n	8005050 <R3_1_HFCurrentsCalibrationC+0x38>
  {
    pHandle->PhaseCOffset += *pHandle->pParams_str->ADCDataReg2[bSector];
 8005036:	6f84      	ldr	r4, [r0, #120]	; 0x78
 8005038:	3212      	adds	r2, #18
 800503a:	0092      	lsls	r2, r2, #2
 800503c:	18a2      	adds	r2, r4, r2
 800503e:	6852      	ldr	r2, [r2, #4]
 8005040:	8814      	ldrh	r4, [r2, #0]
 8005042:	6e42      	ldr	r2, [r0, #100]	; 0x64
 8005044:	1912      	adds	r2, r2, r4
 8005046:	6642      	str	r2, [r0, #100]	; 0x64
    pHandle->PolarizationCounter++;
 8005048:	5cc2      	ldrb	r2, [r0, r3]
 800504a:	3201      	adds	r2, #1
 800504c:	b2d2      	uxtb	r2, r2
 800504e:	54c2      	strb	r2, [r0, r3]
  }

  /* during offset calibration no current is flowing in the phases */
  pStator_Currents->a = 0;
 8005050:	2300      	movs	r3, #0
 8005052:	800b      	strh	r3, [r1, #0]
  pStator_Currents->b = 0;
 8005054:	804b      	strh	r3, [r1, #2]
}
 8005056:	bd30      	pop	{r4, r5, pc}
 8005058:	40012c00 	.word	0x40012c00

0800505c <R3_1_Init>:
  * @param  ADCx ADC instance
  * @retval None
  */
__STATIC_INLINE void LL_ADC_DisableIT_EOC(ADC_TypeDef *ADCx)
{
  CLEAR_BIT(ADCx->IER, LL_ADC_IT_EOC);
 800505c:	2104      	movs	r1, #4
 800505e:	4a3b      	ldr	r2, [pc, #236]	; (800514c <R3_1_Init+0xf0>)
{
 8005060:	b530      	push	{r4, r5, lr}
 8005062:	6853      	ldr	r3, [r2, #4]
 8005064:	0004      	movs	r4, r0
 8005066:	438b      	bics	r3, r1
 8005068:	6053      	str	r3, [r2, #4]
  WRITE_REG(ADCx->ISR, LL_ADC_FLAG_EOC);
 800506a:	6011      	str	r1, [r2, #0]
  * @param  ADCx ADC instance
  * @retval None
  */
__STATIC_INLINE void LL_ADC_DisableIT_EOS(ADC_TypeDef *ADCx)
{
  CLEAR_BIT(ADCx->IER, LL_ADC_IT_EOS);
 800506c:	6853      	ldr	r3, [r2, #4]
 800506e:	3104      	adds	r1, #4
 8005070:	438b      	bics	r3, r1
 8005072:	6053      	str	r3, [r2, #4]
  WRITE_REG(ADCx->ISR, LL_ADC_FLAG_EOS);
 8005074:	6011      	str	r1, [r2, #0]
  * @rmtoll CR           CSSON         LL_RCC_HSE_EnableCSS
  * @retval None
  */
__STATIC_INLINE void LL_RCC_HSE_EnableCSS(void)
{
  SET_BIT(RCC->CR, RCC_CR_CSSON);
 8005076:	2180      	movs	r1, #128	; 0x80
 8005078:	4b35      	ldr	r3, [pc, #212]	; (8005150 <R3_1_Init+0xf4>)
 800507a:	0309      	lsls	r1, r1, #12
 800507c:	6818      	ldr	r0, [r3, #0]
  SET_BIT(TIMx->DIER, TIM_DIER_BIE);
 800507e:	2580      	movs	r5, #128	; 0x80
 8005080:	4301      	orrs	r1, r0
  WRITE_REG(TIMx->SR, ~(TIM_SR_BIF));
 8005082:	2081      	movs	r0, #129	; 0x81
 8005084:	6019      	str	r1, [r3, #0]
 8005086:	4933      	ldr	r1, [pc, #204]	; (8005154 <R3_1_Init+0xf8>)
 8005088:	4240      	negs	r0, r0
 800508a:	6108      	str	r0, [r1, #16]
  SET_BIT(TIMx->DIER, TIM_DIER_BIE);
 800508c:	68c8      	ldr	r0, [r1, #12]
 800508e:	b083      	sub	sp, #12
 8005090:	4328      	orrs	r0, r5
 8005092:	60c8      	str	r0, [r1, #12]
    LL_TIM_SetCounter( TIM1, ( uint32_t )( pHandle->Half_PWMPeriod ) - 1u );
 8005094:	206c      	movs	r0, #108	; 0x6c
 8005096:	5a20      	ldrh	r0, [r4, r0]
  return (READ_BIT(ADCx->CR, ADC_CR_ADDIS) == (ADC_CR_ADDIS));
 8005098:	3d7e      	subs	r5, #126	; 0x7e
 800509a:	3801      	subs	r0, #1
  WRITE_REG(TIMx->CNT, Counter);
 800509c:	6248      	str	r0, [r1, #36]	; 0x24
  * @retval None
*/
__STATIC_INLINE void LL_APB1_GRP2_EnableClock(uint32_t Periphs)
{
  __IO uint32_t tmpreg;
  SET_BIT(RCC->APB2ENR, Periphs);
 800509e:	2080      	movs	r0, #128	; 0x80
 80050a0:	6999      	ldr	r1, [r3, #24]
 80050a2:	03c0      	lsls	r0, r0, #15
 80050a4:	4301      	orrs	r1, r0
 80050a6:	6199      	str	r1, [r3, #24]
  /* Delay after an RCC peripheral clock enabling */
  tmpreg = READ_BIT(RCC->APB2ENR, Periphs);
 80050a8:	699b      	ldr	r3, [r3, #24]
  *         (*) value not defined in all devices
  * @retval None
  */
__STATIC_INLINE void LL_DBGMCU_APB1_GRP2_FreezePeriph(uint32_t Periphs)
{
  SET_BIT(DBGMCU->APB2FZ, Periphs);
 80050aa:	492b      	ldr	r1, [pc, #172]	; (8005158 <R3_1_Init+0xfc>)
 80050ac:	4003      	ands	r3, r0
 80050ae:	9301      	str	r3, [sp, #4]
  (void)tmpreg;
 80050b0:	9b01      	ldr	r3, [sp, #4]
 80050b2:	2380      	movs	r3, #128	; 0x80
 80050b4:	68c8      	ldr	r0, [r1, #12]
 80050b6:	011b      	lsls	r3, r3, #4
 80050b8:	4303      	orrs	r3, r0
 80050ba:	60cb      	str	r3, [r1, #12]
  MODIFY_REG(ADCx->CR,
 80050bc:	6891      	ldr	r1, [r2, #8]
 80050be:	4b27      	ldr	r3, [pc, #156]	; (800515c <R3_1_Init+0x100>)
  return (READ_BIT(ADCx->CR, ADC_CR_ADSTP) == (ADC_CR_ADSTP));
 80050c0:	2010      	movs	r0, #16
  MODIFY_REG(ADCx->CR,
 80050c2:	4019      	ands	r1, r3
 80050c4:	3318      	adds	r3, #24
 80050c6:	430b      	orrs	r3, r1
  return (READ_BIT(ADCx->CR, ADC_CR_ADSTART) == (ADC_CR_ADSTART));
 80050c8:	2104      	movs	r1, #4
  MODIFY_REG(ADCx->CR,
 80050ca:	6093      	str	r3, [r2, #8]
  return (READ_BIT(ADCx->CR, ADC_CR_ADCAL) == (ADC_CR_ADCAL));
 80050cc:	6893      	ldr	r3, [r2, #8]
           (LL_ADC_REG_IsStopConversionOngoing(ADC1) == SET) ||
 80050ce:	2b00      	cmp	r3, #0
 80050d0:	dbfc      	blt.n	80050cc <R3_1_Init+0x70>
  return (READ_BIT(ADCx->CR, ADC_CR_ADSTART) == (ADC_CR_ADSTART));
 80050d2:	6893      	ldr	r3, [r2, #8]
    while ((LL_ADC_IsCalibrationOnGoing(ADC1) == SET) ||
 80050d4:	4219      	tst	r1, r3
 80050d6:	d1f9      	bne.n	80050cc <R3_1_Init+0x70>
  return (READ_BIT(ADCx->CR, ADC_CR_ADSTP) == (ADC_CR_ADSTP));
 80050d8:	6893      	ldr	r3, [r2, #8]
           (LL_ADC_REG_IsConversionOngoing(ADC1) == SET) ||
 80050da:	4218      	tst	r0, r3
 80050dc:	d1f6      	bne.n	80050cc <R3_1_Init+0x70>
  return (READ_BIT(ADCx->CR, ADC_CR_ADDIS) == (ADC_CR_ADDIS));
 80050de:	6893      	ldr	r3, [r2, #8]
           (LL_ADC_REG_IsStopConversionOngoing(ADC1) == SET) ||
 80050e0:	421d      	tst	r5, r3
 80050e2:	d1f3      	bne.n	80050cc <R3_1_Init+0x70>
  MODIFY_REG(ADCx->CR,
 80050e4:	6893      	ldr	r3, [r2, #8]
 80050e6:	491d      	ldr	r1, [pc, #116]	; (800515c <R3_1_Init+0x100>)
 80050e8:	400b      	ands	r3, r1
 80050ea:	2101      	movs	r1, #1
 80050ec:	430b      	orrs	r3, r1
 80050ee:	6093      	str	r3, [r2, #8]
    while ( LL_ADC_IsActiveFlag_ADRDY( ADC1 ) == RESET )
 80050f0:	2201      	movs	r2, #1
  return (READ_BIT(ADCx->ISR, LL_ADC_FLAG_ADRDY) == (LL_ADC_FLAG_ADRDY));
 80050f2:	4916      	ldr	r1, [pc, #88]	; (800514c <R3_1_Init+0xf0>)
 80050f4:	680b      	ldr	r3, [r1, #0]
 80050f6:	421a      	tst	r2, r3
 80050f8:	d0fc      	beq.n	80050f4 <R3_1_Init+0x98>
    LL_DMA_SetMemoryAddress( DMA1, LL_DMA_CHANNEL_1, ( uint32_t )pHandle->ADC1_DMA_converted );
 80050fa:	0023      	movs	r3, r4
  MODIFY_REG(((DMA_Channel_TypeDef *)((uint32_t)((uint32_t)DMAx + CHANNEL_OFFSET_TAB[Channel - 1U])))->CNDTR,
 80050fc:	2003      	movs	r0, #3
  WRITE_REG(((DMA_Channel_TypeDef *)((uint32_t)((uint32_t)DMAx + CHANNEL_OFFSET_TAB[Channel - 1U])))->CMAR, MemoryAddress);
 80050fe:	4918      	ldr	r1, [pc, #96]	; (8005160 <R3_1_Init+0x104>)
 8005100:	336e      	adds	r3, #110	; 0x6e
 8005102:	60cb      	str	r3, [r1, #12]
  WRITE_REG(((DMA_Channel_TypeDef *)((uint32_t)((uint32_t)DMAx + CHANNEL_OFFSET_TAB[Channel - 1U])))->CPAR, PeriphAddress);
 8005104:	4b17      	ldr	r3, [pc, #92]	; (8005164 <R3_1_Init+0x108>)
    pHandle->ADCRegularLocked=false; 
 8005106:	2500      	movs	r5, #0
 8005108:	608b      	str	r3, [r1, #8]
  MODIFY_REG(((DMA_Channel_TypeDef *)((uint32_t)((uint32_t)DMAx + CHANNEL_OFFSET_TAB[Channel - 1U])))->CNDTR,
 800510a:	684b      	ldr	r3, [r1, #4]
 800510c:	0c1b      	lsrs	r3, r3, #16
 800510e:	041b      	lsls	r3, r3, #16
 8005110:	4303      	orrs	r3, r0
 8005112:	604b      	str	r3, [r1, #4]
  SET_BIT(((DMA_Channel_TypeDef *)((uint32_t)((uint32_t)DMAx + CHANNEL_OFFSET_TAB[Channel - 1U])))->CCR, DMA_CCR_EN);
 8005114:	680b      	ldr	r3, [r1, #0]
  MODIFY_REG(TIMx->CR2, TIM_CR2_MMS, TimerSynchronization);
 8005116:	306d      	adds	r0, #109	; 0x6d
 8005118:	4313      	orrs	r3, r2
 800511a:	600b      	str	r3, [r1, #0]
 800511c:	4b0d      	ldr	r3, [pc, #52]	; (8005154 <R3_1_Init+0xf8>)
 800511e:	6859      	ldr	r1, [r3, #4]
 8005120:	4381      	bics	r1, r0
 8005122:	6059      	str	r1, [r3, #4]
  SET_BIT(TIMx->CCER, Channels);
 8005124:	6a18      	ldr	r0, [r3, #32]
 8005126:	4910      	ldr	r1, [pc, #64]	; (8005168 <R3_1_Init+0x10c>)
 8005128:	4301      	orrs	r1, r0
 800512a:	6219      	str	r1, [r3, #32]
    pHandle->ADCTriggerEdge = LL_ADC_REG_TRIG_EXT_RISING;
 800512c:	2180      	movs	r1, #128	; 0x80
 800512e:	00c9      	lsls	r1, r1, #3
 8005130:	66a1      	str	r1, [r4, #104]	; 0x68
    pHandle->OverCurrentFlag = false;
 8005132:	2074      	movs	r0, #116	; 0x74
 8005134:	2100      	movs	r1, #0
 8005136:	5221      	strh	r1, [r4, r0]
    pHandle->ADCRegularLocked=false; 
 8005138:	3003      	adds	r0, #3
 800513a:	5425      	strb	r5, [r4, r0]
    pHandle->_Super.DTTest = 0u;
 800513c:	3829      	subs	r0, #41	; 0x29
 800513e:	5221      	strh	r1, [r4, r0]
  SET_BIT(TIMx->CR1, TIM_CR1_CEN);
 8005140:	6819      	ldr	r1, [r3, #0]
 8005142:	430a      	orrs	r2, r1
 8005144:	601a      	str	r2, [r3, #0]
}
 8005146:	b003      	add	sp, #12
 8005148:	bd30      	pop	{r4, r5, pc}
 800514a:	46c0      	nop			; (mov r8, r8)
 800514c:	40012400 	.word	0x40012400
 8005150:	40021000 	.word	0x40021000
 8005154:	40012c00 	.word	0x40012c00
 8005158:	40015800 	.word	0x40015800
 800515c:	7fffffe8 	.word	0x7fffffe8
 8005160:	40020008 	.word	0x40020008
 8005164:	40012440 	.word	0x40012440
 8005168:	00000555 	.word	0x00000555

0800516c <R3_1_WriteTIMRegisters>:
{
 800516c:	0003      	movs	r3, r0
  TIM_TypeDef * TIMx = pHandle->pParams_str->TIMx;
 800516e:	6f82      	ldr	r2, [r0, #120]	; 0x78
  LL_TIM_OC_SetCompareCH1 ( TIMx, (uint32_t)pHandle->_Super.CntPhA );
 8005170:	8e40      	ldrh	r0, [r0, #50]	; 0x32
  TIM_TypeDef * TIMx = pHandle->pParams_str->TIMx;
 8005172:	6812      	ldr	r2, [r2, #0]
  WRITE_REG(TIMx->CCR1, CompareValue);
 8005174:	6350      	str	r0, [r2, #52]	; 0x34
  LL_TIM_OC_SetCompareCH2 ( TIMx, (uint32_t)pHandle->_Super.CntPhB );
 8005176:	8e98      	ldrh	r0, [r3, #52]	; 0x34
  WRITE_REG(TIMx->CCR2, CompareValue);
 8005178:	6390      	str	r0, [r2, #56]	; 0x38
  LL_TIM_OC_SetCompareCH3 ( TIMx, (uint32_t)pHandle->_Super.CntPhC );
 800517a:	8ed8      	ldrh	r0, [r3, #54]	; 0x36
  WRITE_REG(TIMx->CCR3, CompareValue);
 800517c:	63d0      	str	r0, [r2, #60]	; 0x3c
  WRITE_REG(TIMx->CCR4, CompareValue);
 800517e:	6411      	str	r1, [r2, #64]	; 0x40
  if ( pHandle->_Super.SWerror == 1u )
 8005180:	8f18      	ldrh	r0, [r3, #56]	; 0x38
  if (((TIMx->CR2) & TIM_CR2_MMS_Msk) != LL_TIM_TRGO_RESET )
 8005182:	6852      	ldr	r2, [r2, #4]
  if ( pHandle->_Super.SWerror == 1u )
 8005184:	2801      	cmp	r0, #1
 8005186:	d005      	beq.n	8005194 <R3_1_WriteTIMRegisters+0x28>
  if (((TIMx->CR2) & TIM_CR2_MMS_Msk) != LL_TIM_TRGO_RESET )
 8005188:	2070      	movs	r0, #112	; 0x70
 800518a:	4010      	ands	r0, r2
 800518c:	1e43      	subs	r3, r0, #1
 800518e:	4198      	sbcs	r0, r3
    hAux = MC_FOC_DURATION;
 8005190:	b280      	uxth	r0, r0
}
 8005192:	4770      	bx	lr
    pHandle->_Super.SWerror = 0u;
 8005194:	2200      	movs	r2, #0
 8005196:	871a      	strh	r2, [r3, #56]	; 0x38
 8005198:	e7fb      	b.n	8005192 <R3_1_WriteTIMRegisters+0x26>
 800519a:	46c0      	nop			; (mov r8, r8)

0800519c <R3_1_SetADCSampPointCalibration>:
  pHandle->ADCTriggerEdge = LL_ADC_REG_TRIG_EXT_RISING;
 800519c:	2380      	movs	r3, #128	; 0x80
 800519e:	00db      	lsls	r3, r3, #3
{
 80051a0:	b510      	push	{r4, lr}
  pHandle->ADCTriggerEdge = LL_ADC_REG_TRIG_EXT_RISING;
 80051a2:	6683      	str	r3, [r0, #104]	; 0x68
  pHandle->_Super.Sector = pHandle->CalibSector;
 80051a4:	2373      	movs	r3, #115	; 0x73
 80051a6:	5cc2      	ldrb	r2, [r0, r3]
 80051a8:	3b39      	subs	r3, #57	; 0x39
 80051aa:	54c2      	strb	r2, [r0, r3]
  return R3_1_WriteTIMRegisters( pHdl,  ( uint16_t )( pHandle->Half_PWMPeriod ) - 1u);
 80051ac:	3332      	adds	r3, #50	; 0x32
 80051ae:	5ac1      	ldrh	r1, [r0, r3]
 80051b0:	3901      	subs	r1, #1
 80051b2:	b289      	uxth	r1, r1
 80051b4:	f7ff ffda 	bl	800516c <R3_1_WriteTIMRegisters>
}
 80051b8:	bd10      	pop	{r4, pc}
 80051ba:	46c0      	nop			; (mov r8, r8)

080051bc <R3_1_SetADCSampPointSectX>:
  if ( ( uint16_t )( pHandle->Half_PWMPeriod - lowDuty ) > pHandle->pParams_str->hTafter )
 80051bc:	236c      	movs	r3, #108	; 0x6c
 80051be:	2166      	movs	r1, #102	; 0x66
{
 80051c0:	b570      	push	{r4, r5, r6, lr}
  if ( ( uint16_t )( pHandle->Half_PWMPeriod - lowDuty ) > pHandle->pParams_str->hTafter )
 80051c2:	6f86      	ldr	r6, [r0, #120]	; 0x78
  register uint16_t lowDuty = pHdl->lowDuty;
 80051c4:	8f85      	ldrh	r5, [r0, #60]	; 0x3c
  if ( ( uint16_t )( pHandle->Half_PWMPeriod - lowDuty ) > pHandle->pParams_str->hTafter )
 80051c6:	5ac4      	ldrh	r4, [r0, r3]
 80051c8:	5a71      	ldrh	r1, [r6, r1]
 80051ca:	1b63      	subs	r3, r4, r5
 80051cc:	b29b      	uxth	r3, r3
  register uint16_t midDuty = pHdl->midDuty;
 80051ce:	8fc2      	ldrh	r2, [r0, #62]	; 0x3e
  if ( ( uint16_t )( pHandle->Half_PWMPeriod - lowDuty ) > pHandle->pParams_str->hTafter )
 80051d0:	428b      	cmp	r3, r1
 80051d2:	d907      	bls.n	80051e4 <R3_1_SetADCSampPointSectX+0x28>
    pHandle->_Super.Sector = SECTOR_5;
 80051d4:	233a      	movs	r3, #58	; 0x3a
 80051d6:	2204      	movs	r2, #4
    hCntSmp = ( uint32_t )( pHandle->Half_PWMPeriod ) - 1u;
 80051d8:	3c01      	subs	r4, #1
    pHandle->_Super.Sector = SECTOR_5;
 80051da:	54c2      	strb	r2, [r0, r3]
    hCntSmp = ( uint32_t )( pHandle->Half_PWMPeriod ) - 1u;
 80051dc:	b2a1      	uxth	r1, r4
  return R3_1_WriteTIMRegisters( &pHandle->_Super, hCntSmp );
 80051de:	f7ff ffc5 	bl	800516c <R3_1_WriteTIMRegisters>
}
 80051e2:	bd70      	pop	{r4, r5, r6, pc}
    hDeltaDuty = ( uint16_t )( lowDuty - midDuty );
 80051e4:	1aaa      	subs	r2, r5, r2
    if ( hDeltaDuty > ( uint16_t )( pHandle->Half_PWMPeriod - lowDuty ) * 2u )
 80051e6:	b292      	uxth	r2, r2
 80051e8:	005b      	lsls	r3, r3, #1
 80051ea:	429a      	cmp	r2, r3
 80051ec:	d904      	bls.n	80051f8 <R3_1_SetADCSampPointSectX+0x3c>
      hCntSmp = lowDuty - pHandle->pParams_str->hTbefore;
 80051ee:	2368      	movs	r3, #104	; 0x68
 80051f0:	5af1      	ldrh	r1, [r6, r3]
 80051f2:	1a69      	subs	r1, r5, r1
 80051f4:	b289      	uxth	r1, r1
 80051f6:	e7f2      	b.n	80051de <R3_1_SetADCSampPointSectX+0x22>
      hCntSmp = lowDuty + pHandle->pParams_str->hTafter;
 80051f8:	1949      	adds	r1, r1, r5
 80051fa:	b289      	uxth	r1, r1
      if ( hCntSmp >= pHandle->Half_PWMPeriod )
 80051fc:	428c      	cmp	r4, r1
 80051fe:	d8ee      	bhi.n	80051de <R3_1_SetADCSampPointSectX+0x22>
        pHandle->ADCTriggerEdge = LL_ADC_REG_TRIG_EXT_FALLING;
 8005200:	2380      	movs	r3, #128	; 0x80
        hCntSmp = ( 2u * pHandle->Half_PWMPeriod ) - hCntSmp - 1u;
 8005202:	0064      	lsls	r4, r4, #1
 8005204:	3c01      	subs	r4, #1
        pHandle->ADCTriggerEdge = LL_ADC_REG_TRIG_EXT_FALLING;
 8005206:	011b      	lsls	r3, r3, #4
        hCntSmp = ( 2u * pHandle->Half_PWMPeriod ) - hCntSmp - 1u;
 8005208:	1a61      	subs	r1, r4, r1
        pHandle->ADCTriggerEdge = LL_ADC_REG_TRIG_EXT_FALLING;
 800520a:	6683      	str	r3, [r0, #104]	; 0x68
        hCntSmp = ( 2u * pHandle->Half_PWMPeriod ) - hCntSmp - 1u;
 800520c:	b289      	uxth	r1, r1
 800520e:	e7e6      	b.n	80051de <R3_1_SetADCSampPointSectX+0x22>

08005210 <R3_1_TurnOnLowSides>:
#if defined (__ICCARM__)
#pragma cstat_restore = "MISRAC2012-Rule-11.3"
#endif
  TIM_TypeDef * TIMx = TIM1;

  pHandle->_Super.TurnOnLowSidesAction = true;
 8005210:	2342      	movs	r3, #66	; 0x42
 8005212:	2201      	movs	r2, #1
 8005214:	54c2      	strb	r2, [r0, r3]
  WRITE_REG(TIMx->SR, ~(TIM_SR_UIF));
 8005216:	4b0f      	ldr	r3, [pc, #60]	; (8005254 <R3_1_TurnOnLowSides+0x44>)
 8005218:	3a03      	subs	r2, #3
 800521a:	611a      	str	r2, [r3, #16]
  WRITE_REG(TIMx->CCR1, CompareValue);
 800521c:	2200      	movs	r2, #0
  return ((READ_BIT(TIMx->SR, TIM_SR_UIF) == (TIM_SR_UIF)) ? 1UL : 0UL);
 800521e:	2101      	movs	r1, #1
  WRITE_REG(TIMx->CCR1, CompareValue);
 8005220:	635a      	str	r2, [r3, #52]	; 0x34
  WRITE_REG(TIMx->CCR2, CompareValue);
 8005222:	639a      	str	r2, [r3, #56]	; 0x38
  WRITE_REG(TIMx->CCR3, CompareValue);
 8005224:	63da      	str	r2, [r3, #60]	; 0x3c
  return ((READ_BIT(TIMx->SR, TIM_SR_UIF) == (TIM_SR_UIF)) ? 1UL : 0UL);
 8005226:	691a      	ldr	r2, [r3, #16]
 8005228:	4211      	tst	r1, r2
 800522a:	d0fc      	beq.n	8005226 <R3_1_TurnOnLowSides+0x16>
  SET_BIT(TIMx->BDTR, TIM_BDTR_MOE);
 800522c:	2280      	movs	r2, #128	; 0x80
 800522e:	6c59      	ldr	r1, [r3, #68]	; 0x44
 8005230:	0212      	lsls	r2, r2, #8
 8005232:	430a      	orrs	r2, r1
 8005234:	645a      	str	r2, [r3, #68]	; 0x44
  {}

  /* Main PWM Output Enable */
  LL_TIM_EnableAllOutputs(TIMx);

  if ( ( pHandle->pParams_str->LowSideOutputs ) == ES_GPIO )
 8005236:	2272      	movs	r2, #114	; 0x72
 8005238:	6f83      	ldr	r3, [r0, #120]	; 0x78
 800523a:	5c9a      	ldrb	r2, [r3, r2]
 800523c:	2a02      	cmp	r2, #2
 800523e:	d108      	bne.n	8005252 <R3_1_TurnOnLowSides+0x42>
  {
    /* Enable signals activation */
    LL_GPIO_SetOutputPin( pHandle->pParams_str->pwm_en_u_port, pHandle->pParams_str->pwm_en_u_pin );
 8005240:	685a      	ldr	r2, [r3, #4]
 8005242:	6919      	ldr	r1, [r3, #16]
  *         @arg @ref LL_GPIO_PIN_ALL
  * @retval None
  */
__STATIC_INLINE void LL_GPIO_SetOutputPin(GPIO_TypeDef *GPIOx, uint32_t PinMask)
{
  WRITE_REG(GPIOx->BSRR, PinMask);
 8005244:	6191      	str	r1, [r2, #24]
    LL_GPIO_SetOutputPin( pHandle->pParams_str->pwm_en_v_port, pHandle->pParams_str->pwm_en_v_pin );
 8005246:	689a      	ldr	r2, [r3, #8]
 8005248:	6959      	ldr	r1, [r3, #20]
 800524a:	6191      	str	r1, [r2, #24]
    LL_GPIO_SetOutputPin( pHandle->pParams_str->pwm_en_w_port, pHandle->pParams_str->pwm_en_w_pin );
 800524c:	68da      	ldr	r2, [r3, #12]
 800524e:	699b      	ldr	r3, [r3, #24]
 8005250:	6193      	str	r3, [r2, #24]

  }
  return;
}
 8005252:	4770      	bx	lr
 8005254:	40012c00 	.word	0x40012c00

08005258 <R3_1_SwitchOnPWM>:
#if defined (__ICCARM__)
#pragma cstat_restore = "MISRAC2012-Rule-11.3"
#endif
  TIM_TypeDef * TIMx = TIM1;

  pHandle->_Super.TurnOnLowSidesAction = false;
 8005258:	2342      	movs	r3, #66	; 0x42
 800525a:	2200      	movs	r2, #0
{
 800525c:	b570      	push	{r4, r5, r6, lr}
  pHandle->_Super.TurnOnLowSidesAction = false;
 800525e:	54c2      	strb	r2, [r0, r3]

  /* We forbid ADC usage for regular conversion on Systick*/
  pHandle->ADCRegularLocked=true; 
 8005260:	3335      	adds	r3, #53	; 0x35
 8005262:	3201      	adds	r2, #1
 8005264:	54c2      	strb	r2, [r0, r3]
  
  /* Set all duty to 50% */
  LL_TIM_OC_SetCompareCH1(TIMx, (uint32_t)(pHandle->Half_PWMPeriod >> 1));
 8005266:	3b0b      	subs	r3, #11
 8005268:	5ac2      	ldrh	r2, [r0, r3]
  WRITE_REG(TIMx->CCR1, CompareValue);
 800526a:	4b31      	ldr	r3, [pc, #196]	; (8005330 <R3_1_SwitchOnPWM+0xd8>)
 800526c:	0851      	lsrs	r1, r2, #1
  LL_TIM_OC_SetCompareCH2(TIMx, (uint32_t)(pHandle->Half_PWMPeriod >> 1));
  LL_TIM_OC_SetCompareCH3(TIMx, (uint32_t)(pHandle->Half_PWMPeriod >> 1));
  LL_TIM_OC_SetCompareCH4(TIMx, (uint32_t)(pHandle->Half_PWMPeriod - 5u));
 800526e:	3a05      	subs	r2, #5
 8005270:	6359      	str	r1, [r3, #52]	; 0x34
  WRITE_REG(TIMx->CCR2, CompareValue);
 8005272:	6399      	str	r1, [r3, #56]	; 0x38
  WRITE_REG(TIMx->CCR3, CompareValue);
 8005274:	63d9      	str	r1, [r3, #60]	; 0x3c
  WRITE_REG(TIMx->CCR4, CompareValue);
 8005276:	641a      	str	r2, [r3, #64]	; 0x40
  WRITE_REG(TIMx->SR, ~(TIM_SR_UIF));
 8005278:	2202      	movs	r2, #2
  return ((READ_BIT(TIMx->SR, TIM_SR_UIF) == (TIM_SR_UIF)) ? 1UL : 0UL);
 800527a:	2101      	movs	r1, #1
  WRITE_REG(TIMx->SR, ~(TIM_SR_UIF));
 800527c:	4252      	negs	r2, r2
 800527e:	611a      	str	r2, [r3, #16]
  return ((READ_BIT(TIMx->SR, TIM_SR_UIF) == (TIM_SR_UIF)) ? 1UL : 0UL);
 8005280:	691a      	ldr	r2, [r3, #16]
 8005282:	4211      	tst	r1, r2
 8005284:	d0fc      	beq.n	8005280 <R3_1_SwitchOnPWM+0x28>
  WRITE_REG(TIMx->SR, ~(TIM_SR_UIF));
 8005286:	2202      	movs	r2, #2
 8005288:	4252      	negs	r2, r2
 800528a:	611a      	str	r2, [r3, #16]
  {}
  /* Clear Update Flag */
  LL_TIM_ClearFlag_UPDATE( TIMx );

  /* Main PWM Output Enable */
  TIMx->BDTR |= LL_TIM_OSSI_ENABLE;
 800528c:	2280      	movs	r2, #128	; 0x80
 800528e:	6c59      	ldr	r1, [r3, #68]	; 0x44
 8005290:	00d2      	lsls	r2, r2, #3
 8005292:	430a      	orrs	r2, r1
 8005294:	645a      	str	r2, [r3, #68]	; 0x44
  SET_BIT(TIMx->BDTR, TIM_BDTR_MOE);
 8005296:	2280      	movs	r2, #128	; 0x80
 8005298:	6c59      	ldr	r1, [r3, #68]	; 0x44
 800529a:	0212      	lsls	r2, r2, #8
 800529c:	430a      	orrs	r2, r1
  LL_TIM_EnableAllOutputs(TIMx);

  if ( ( pHandle->pParams_str->LowSideOutputs ) == ES_GPIO )
 800529e:	2172      	movs	r1, #114	; 0x72
 80052a0:	645a      	str	r2, [r3, #68]	; 0x44
 80052a2:	6f82      	ldr	r2, [r0, #120]	; 0x78
 80052a4:	5c51      	ldrb	r1, [r2, r1]
 80052a6:	2902      	cmp	r1, #2
 80052a8:	d029      	beq.n	80052fe <R3_1_SwitchOnPWM+0xa6>

	  
    /* Configuration of DMA and ADC to next conversions */
    /* It's possible write the CHSELR resgister because the ADC conversion
       is stopped by the R3_1_SwitchOffPWM function */
    LL_ADC_SetSamplingTimeCommonChannels ( ADC1, pHandle->pParams_str->b_ISamplingTime );
 80052aa:	236a      	movs	r3, #106	; 0x6a
 80052ac:	5cd3      	ldrb	r3, [r2, r3]
  MODIFY_REG(ADCx->SMPR, ADC_SMPR_SMP, SamplingTime);
 80052ae:	2207      	movs	r2, #7
 80052b0:	4920      	ldr	r1, [pc, #128]	; (8005334 <R3_1_SwitchOnPWM+0xdc>)
  MODIFY_REG(((DMA_Channel_TypeDef *)((uint32_t)((uint32_t)DMAx + CHANNEL_OFFSET_TAB[Channel - 1U])))->CNDTR,
 80052b2:	2402      	movs	r4, #2
 80052b4:	6948      	ldr	r0, [r1, #20]
  WRITE_REG(ADCx->ISR, LL_ADC_FLAG_EOC);
 80052b6:	2504      	movs	r5, #4
  MODIFY_REG(ADCx->SMPR, ADC_SMPR_SMP, SamplingTime);
 80052b8:	4390      	bics	r0, r2
 80052ba:	4303      	orrs	r3, r0
  CLEAR_BIT(((DMA_Channel_TypeDef *)((uint32_t)((uint32_t)DMAx + CHANNEL_OFFSET_TAB[Channel - 1U])))->CCR, DMA_CCR_EN);
 80052bc:	2001      	movs	r0, #1
  MODIFY_REG(ADCx->CFGR1, ADC_CFGR1_DMAEN | ADC_CFGR1_DMACFG, DMATransfer);
 80052be:	2603      	movs	r6, #3
  MODIFY_REG(ADCx->SMPR, ADC_SMPR_SMP, SamplingTime);
 80052c0:	614b      	str	r3, [r1, #20]
 80052c2:	4b1d      	ldr	r3, [pc, #116]	; (8005338 <R3_1_SwitchOnPWM+0xe0>)
 80052c4:	681a      	ldr	r2, [r3, #0]
 80052c6:	4382      	bics	r2, r0
 80052c8:	601a      	str	r2, [r3, #0]
  MODIFY_REG(((DMA_Channel_TypeDef *)((uint32_t)((uint32_t)DMAx + CHANNEL_OFFSET_TAB[Channel - 1U])))->CNDTR,
 80052ca:	685a      	ldr	r2, [r3, #4]
 80052cc:	0c12      	lsrs	r2, r2, #16
 80052ce:	0412      	lsls	r2, r2, #16
 80052d0:	4322      	orrs	r2, r4
 80052d2:	605a      	str	r2, [r3, #4]
  SET_BIT(((DMA_Channel_TypeDef *)((uint32_t)((uint32_t)DMAx + CHANNEL_OFFSET_TAB[Channel - 1U])))->CCR, DMA_CCR_EN);
 80052d4:	681a      	ldr	r2, [r3, #0]
 80052d6:	4302      	orrs	r2, r0
 80052d8:	601a      	str	r2, [r3, #0]
  WRITE_REG(ADCx->ISR, LL_ADC_FLAG_EOC);
 80052da:	600d      	str	r5, [r1, #0]
  MODIFY_REG(ADCx->CFGR1, ADC_CFGR1_DMAEN | ADC_CFGR1_DMACFG, DMATransfer);
 80052dc:	68ca      	ldr	r2, [r1, #12]
 80052de:	43b2      	bics	r2, r6
 80052e0:	4302      	orrs	r2, r0
 80052e2:	60ca      	str	r2, [r1, #12]
  * @param  DMAx DMAx Instance
  * @retval None
  */
__STATIC_INLINE void LL_DMA_ClearFlag_HT1(DMA_TypeDef *DMAx)
{
  WRITE_REG(DMAx->IFCR, DMA_IFCR_CHTIF1);
 80052e4:	4a15      	ldr	r2, [pc, #84]	; (800533c <R3_1_SwitchOnPWM+0xe4>)
 80052e6:	6055      	str	r5, [r2, #4]
  *         @arg @ref LL_DMA_CHANNEL_7
  * @retval None
  */
__STATIC_INLINE void LL_DMA_EnableIT_TC(DMA_TypeDef *DMAx, uint32_t Channel)
{
  SET_BIT(((DMA_Channel_TypeDef *)((uint32_t)((uint32_t)DMAx + CHANNEL_OFFSET_TAB[Channel - 1U])))->CCR, DMA_CCR_TCIE);
 80052e8:	681a      	ldr	r2, [r3, #0]
 80052ea:	4322      	orrs	r2, r4
 80052ec:	601a      	str	r2, [r3, #0]
  WRITE_REG(TIMx->SR, ~(TIM_SR_UIF));
 80052ee:	2202      	movs	r2, #2
 80052f0:	4b0f      	ldr	r3, [pc, #60]	; (8005330 <R3_1_SwitchOnPWM+0xd8>)
 80052f2:	4252      	negs	r2, r2
 80052f4:	611a      	str	r2, [r3, #16]
  SET_BIT(TIMx->DIER, TIM_DIER_UIE);
 80052f6:	68da      	ldr	r2, [r3, #12]
 80052f8:	4302      	orrs	r2, r0
 80052fa:	60da      	str	r2, [r3, #12]
    LL_TIM_ClearFlag_UPDATE( TIMx );
    /* Enable Update IRQ */
    LL_TIM_EnableIT_UPDATE( TIMx );
  
  return;
}
 80052fc:	bd70      	pop	{r4, r5, r6, pc}
  return ((READ_BIT(TIMx->CCER, Channels) == (Channels)) ? 1UL : 0UL);
 80052fe:	6a1b      	ldr	r3, [r3, #32]
 8005300:	490f      	ldr	r1, [pc, #60]	; (8005340 <R3_1_SwitchOnPWM+0xe8>)
 8005302:	400b      	ands	r3, r1
 8005304:	428b      	cmp	r3, r1
 8005306:	d009      	beq.n	800531c <R3_1_SwitchOnPWM+0xc4>
      LL_GPIO_ResetOutputPin( pHandle->pParams_str->pwm_en_u_port, pHandle->pParams_str->pwm_en_u_pin );
 8005308:	6853      	ldr	r3, [r2, #4]
 800530a:	6911      	ldr	r1, [r2, #16]
  *         @arg @ref LL_GPIO_PIN_ALL
  * @retval None
  */
__STATIC_INLINE void LL_GPIO_ResetOutputPin(GPIO_TypeDef *GPIOx, uint32_t PinMask)
{
  WRITE_REG(GPIOx->BRR, PinMask);
 800530c:	6299      	str	r1, [r3, #40]	; 0x28
      LL_GPIO_ResetOutputPin( pHandle->pParams_str->pwm_en_v_port, pHandle->pParams_str->pwm_en_v_pin );
 800530e:	6893      	ldr	r3, [r2, #8]
 8005310:	6951      	ldr	r1, [r2, #20]
 8005312:	6299      	str	r1, [r3, #40]	; 0x28
      LL_GPIO_ResetOutputPin( pHandle->pParams_str->pwm_en_w_port, pHandle->pParams_str->pwm_en_w_pin );
 8005314:	68d3      	ldr	r3, [r2, #12]
 8005316:	6991      	ldr	r1, [r2, #24]
 8005318:	6299      	str	r1, [r3, #40]	; 0x28
}
 800531a:	e7c6      	b.n	80052aa <R3_1_SwitchOnPWM+0x52>
      LL_GPIO_SetOutputPin( pHandle->pParams_str->pwm_en_u_port, pHandle->pParams_str->pwm_en_u_pin );
 800531c:	6853      	ldr	r3, [r2, #4]
 800531e:	6911      	ldr	r1, [r2, #16]
  WRITE_REG(GPIOx->BSRR, PinMask);
 8005320:	6199      	str	r1, [r3, #24]
      LL_GPIO_SetOutputPin( pHandle->pParams_str->pwm_en_v_port, pHandle->pParams_str->pwm_en_v_pin );
 8005322:	6893      	ldr	r3, [r2, #8]
 8005324:	6951      	ldr	r1, [r2, #20]
 8005326:	6199      	str	r1, [r3, #24]
      LL_GPIO_SetOutputPin( pHandle->pParams_str->pwm_en_w_port, pHandle->pParams_str->pwm_en_w_pin );
 8005328:	68d3      	ldr	r3, [r2, #12]
 800532a:	6991      	ldr	r1, [r2, #24]
 800532c:	6199      	str	r1, [r3, #24]
}
 800532e:	e7bc      	b.n	80052aa <R3_1_SwitchOnPWM+0x52>
 8005330:	40012c00 	.word	0x40012c00
 8005334:	40012400 	.word	0x40012400
 8005338:	40020008 	.word	0x40020008
 800533c:	40020000 	.word	0x40020000
 8005340:	00000555 	.word	0x00000555

08005344 <R3_1_SwitchOffPWM>:
  CLEAR_BIT(TIMx->DIER, TIM_DIER_UIE);
 8005344:	2101      	movs	r1, #1
 8005346:	4b22      	ldr	r3, [pc, #136]	; (80053d0 <R3_1_SwitchOffPWM+0x8c>)
  *         MOE bit and reset the TIM status
  * @param  pHdl: handler of the current instance of the PWM component
  * @retval none
  */
__weak void R3_1_SwitchOffPWM( PWMC_Handle_t * pHdl )
{
 8005348:	b510      	push	{r4, lr}
 800534a:	68da      	ldr	r2, [r3, #12]
 800534c:	438a      	bics	r2, r1
 800534e:	60da      	str	r2, [r3, #12]
  TIM_TypeDef * TIMx = TIM1;

  /* Enable Update IRQ */
  LL_TIM_DisableIT_UPDATE( TIMx );

  pHandle->_Super.TurnOnLowSidesAction = false;
 8005350:	2100      	movs	r1, #0
 8005352:	2242      	movs	r2, #66	; 0x42
 8005354:	5481      	strb	r1, [r0, r2]
  CLEAR_BIT(TIMx->BDTR, TIM_BDTR_MOE);
 8005356:	6c5a      	ldr	r2, [r3, #68]	; 0x44
 8005358:	491e      	ldr	r1, [pc, #120]	; (80053d4 <R3_1_SwitchOffPWM+0x90>)
 800535a:	400a      	ands	r2, r1
 800535c:	645a      	str	r2, [r3, #68]	; 0x44

  /* Main PWM Output Disable */
  LL_TIM_DisableAllOutputs(TIMx);
  if ( pHandle->BrakeActionLock == true )
 800535e:	2376      	movs	r3, #118	; 0x76
 8005360:	5cc3      	ldrb	r3, [r0, r3]
 8005362:	2b00      	cmp	r3, #0
 8005364:	d104      	bne.n	8005370 <R3_1_SwitchOffPWM+0x2c>
  {
  }
  else
  {
    if ( ( pHandle->pParams_str->LowSideOutputs ) == ES_GPIO )
 8005366:	2272      	movs	r2, #114	; 0x72
 8005368:	6f83      	ldr	r3, [r0, #120]	; 0x78
 800536a:	5c9a      	ldrb	r2, [r3, r2]
 800536c:	2a02      	cmp	r2, #2
 800536e:	d025      	beq.n	80053bc <R3_1_SwitchOffPWM+0x78>
  *         @arg @ref LL_DMA_CHANNEL_7
  * @retval None
  */
__STATIC_INLINE void LL_DMA_DisableIT_TC(DMA_TypeDef *DMAx, uint32_t Channel)
{
  CLEAR_BIT(((DMA_Channel_TypeDef *)((uint32_t)((uint32_t)DMAx + CHANNEL_OFFSET_TAB[Channel - 1U])))->CCR, DMA_CCR_TCIE);
 8005370:	2102      	movs	r1, #2
 8005372:	4a19      	ldr	r2, [pc, #100]	; (80053d8 <R3_1_SwitchOffPWM+0x94>)
  MODIFY_REG(ADCx->CR,
 8005374:	4c19      	ldr	r4, [pc, #100]	; (80053dc <R3_1_SwitchOffPWM+0x98>)
 8005376:	6813      	ldr	r3, [r2, #0]
 8005378:	438b      	bics	r3, r1
 800537a:	6013      	str	r3, [r2, #0]
 800537c:	4b18      	ldr	r3, [pc, #96]	; (80053e0 <R3_1_SwitchOffPWM+0x9c>)
 800537e:	689a      	ldr	r2, [r3, #8]
 8005380:	4022      	ands	r2, r4
 8005382:	2410      	movs	r4, #16
 8005384:	4322      	orrs	r2, r4
 8005386:	609a      	str	r2, [r3, #8]
  LL_DMA_DisableIT_TC( DMA1, LL_DMA_CHANNEL_1 );

  LL_ADC_REG_StopConversion( ADC1 );

  /* Disable ADC DMA request*/
  ADC1->CFGR1 &= ~ADC_CFGR1_DMAEN;
 8005388:	68da      	ldr	r2, [r3, #12]
 800538a:	3c0f      	subs	r4, #15
 800538c:	43a2      	bics	r2, r4
 800538e:	60da      	str	r2, [r3, #12]
  WRITE_REG(DMAx->IFCR, DMA_IFCR_CTCIF1);
 8005390:	4a14      	ldr	r2, [pc, #80]	; (80053e4 <R3_1_SwitchOffPWM+0xa0>)
 8005392:	6051      	str	r1, [r2, #4]
  WRITE_REG(ADCx->ISR, LL_ADC_FLAG_EOC);
 8005394:	2204      	movs	r2, #4
 8005396:	601a      	str	r2, [r3, #0]
  MODIFY_REG(ADCx->CFGR1, ADC_CFGR1_EXTEN | ADC_CFGR1_EXTSEL, TriggerSource);
 8005398:	68da      	ldr	r2, [r3, #12]
 800539a:	4913      	ldr	r1, [pc, #76]	; (80053e8 <R3_1_SwitchOffPWM+0xa4>)
 800539c:	400a      	ands	r2, r1
 800539e:	60da      	str	r2, [r3, #12]

  /* The ADC is not triggered anymore by the PWM timer */
  LL_ADC_REG_SetTriggerSource (ADC1, LL_ADC_REG_TRIG_SOFTWARE);
  
 /* We allow ADC usage for regular conversion on Systick*/
  pHandle->ADCRegularLocked=false; 
 80053a0:	2377      	movs	r3, #119	; 0x77
 80053a2:	2200      	movs	r2, #0
  return ((READ_BIT(TIMx->SR, TIM_SR_UIF) == (TIM_SR_UIF)) ? 1UL : 0UL);
 80053a4:	2101      	movs	r1, #1
 80053a6:	54c2      	strb	r2, [r0, r3]
  WRITE_REG(TIMx->SR, ~(TIM_SR_UIF));
 80053a8:	4b09      	ldr	r3, [pc, #36]	; (80053d0 <R3_1_SwitchOffPWM+0x8c>)
 80053aa:	3a02      	subs	r2, #2
 80053ac:	611a      	str	r2, [r3, #16]
  return ((READ_BIT(TIMx->SR, TIM_SR_UIF) == (TIM_SR_UIF)) ? 1UL : 0UL);
 80053ae:	691a      	ldr	r2, [r3, #16]
 80053b0:	4211      	tst	r1, r2
 80053b2:	d0fc      	beq.n	80053ae <R3_1_SwitchOffPWM+0x6a>
  WRITE_REG(TIMx->SR, ~(TIM_SR_UIF));
 80053b4:	2202      	movs	r2, #2
 80053b6:	4252      	negs	r2, r2
 80053b8:	611a      	str	r2, [r3, #16]
  {}
  /* Clear Update Flag */
  LL_TIM_ClearFlag_UPDATE( TIMx );

  return;
}
 80053ba:	bd10      	pop	{r4, pc}
      LL_GPIO_ResetOutputPin( pHandle->pParams_str->pwm_en_u_port, pHandle->pParams_str->pwm_en_u_pin );
 80053bc:	685a      	ldr	r2, [r3, #4]
 80053be:	6919      	ldr	r1, [r3, #16]
  WRITE_REG(GPIOx->BRR, PinMask);
 80053c0:	6291      	str	r1, [r2, #40]	; 0x28
      LL_GPIO_ResetOutputPin( pHandle->pParams_str->pwm_en_v_port, pHandle->pParams_str->pwm_en_v_pin );
 80053c2:	689a      	ldr	r2, [r3, #8]
 80053c4:	6959      	ldr	r1, [r3, #20]
 80053c6:	6291      	str	r1, [r2, #40]	; 0x28
      LL_GPIO_ResetOutputPin( pHandle->pParams_str->pwm_en_w_port, pHandle->pParams_str->pwm_en_w_pin );
 80053c8:	68da      	ldr	r2, [r3, #12]
 80053ca:	699b      	ldr	r3, [r3, #24]
 80053cc:	6293      	str	r3, [r2, #40]	; 0x28
}
 80053ce:	e7cf      	b.n	8005370 <R3_1_SwitchOffPWM+0x2c>
 80053d0:	40012c00 	.word	0x40012c00
 80053d4:	ffff7fff 	.word	0xffff7fff
 80053d8:	40020008 	.word	0x40020008
 80053dc:	7fffffe8 	.word	0x7fffffe8
 80053e0:	40012400 	.word	0x40012400
 80053e4:	40020000 	.word	0x40020000
 80053e8:	fffff23f 	.word	0xfffff23f

080053ec <R3_1_CurrentReadingCalibration>:
{
 80053ec:	b5f8      	push	{r3, r4, r5, r6, r7, lr}
 80053ee:	46de      	mov	lr, fp
 80053f0:	4657      	mov	r7, sl
 80053f2:	464e      	mov	r6, r9
 80053f4:	4645      	mov	r5, r8
  pHandle->PolarizationCounter = 0u;
 80053f6:	2372      	movs	r3, #114	; 0x72
{
 80053f8:	b5e0      	push	{r5, r6, r7, lr}
  pHandle-> PhaseAOffset = 0u;
 80053fa:	2600      	movs	r6, #0
  CLEAR_BIT(TIMx->CCER, Channels);
 80053fc:	4d3b      	ldr	r5, [pc, #236]	; (80054ec <R3_1_CurrentReadingCalibration+0x100>)
 80053fe:	65c6      	str	r6, [r0, #92]	; 0x5c
  pHandle-> PhaseBOffset = 0u;
 8005400:	6606      	str	r6, [r0, #96]	; 0x60
  pHandle-> PhaseCOffset = 0u;
 8005402:	6646      	str	r6, [r0, #100]	; 0x64
  pHandle->PolarizationCounter = 0u;
 8005404:	54c6      	strb	r6, [r0, r3]
 8005406:	6a2b      	ldr	r3, [r5, #32]
 8005408:	4a39      	ldr	r2, [pc, #228]	; (80054f0 <R3_1_CurrentReadingCalibration+0x104>)
  pHandle->_Super.Sector = SECTOR_5;
 800540a:	273a      	movs	r7, #58	; 0x3a
 800540c:	4013      	ands	r3, r2
  pHandle->CalibSector = SECTOR_5;
 800540e:	2273      	movs	r2, #115	; 0x73
 8005410:	4693      	mov	fp, r2
 8005412:	3a6f      	subs	r2, #111	; 0x6f
 8005414:	4690      	mov	r8, r2
 8005416:	465a      	mov	r2, fp
 8005418:	4641      	mov	r1, r8
 800541a:	622b      	str	r3, [r5, #32]
  pHandle->_Super.pFctGetPhaseCurrents     = &R3_1_HFCurrentsCalibrationAB;
 800541c:	4b35      	ldr	r3, [pc, #212]	; (80054f4 <R3_1_CurrentReadingCalibration+0x108>)
{
 800541e:	0004      	movs	r4, r0
  pHandle->_Super.pFctGetPhaseCurrents     = &R3_1_HFCurrentsCalibrationAB;
 8005420:	6043      	str	r3, [r0, #4]
  pHandle->_Super.pFctSetADCSampPointSectX = &R3_1_SetADCSampPointCalibration;
 8005422:	4b35      	ldr	r3, [pc, #212]	; (80054f8 <R3_1_CurrentReadingCalibration+0x10c>)
 8005424:	6183      	str	r3, [r0, #24]
  pHandle->CalibSector = SECTOR_5;
 8005426:	5481      	strb	r1, [r0, r2]
  pHandle->_Super.Sector = SECTOR_5;
 8005428:	55c1      	strb	r1, [r0, r7]
  R3_1_SwitchOnPWM( &pHandle->_Super );
 800542a:	f7ff ff15 	bl	8005258 <R3_1_SwitchOnPWM>
  waitForPolarizationEnd( TIMx,
 800542e:	2238      	movs	r2, #56	; 0x38
 8005430:	4691      	mov	r9, r2
 8005432:	323a      	adds	r2, #58	; 0x3a
 8005434:	4692      	mov	sl, r2
  						  pHandle->pParams_str->RepetitionCounter,
 8005436:	6fa3      	ldr	r3, [r4, #120]	; 0x78
  waitForPolarizationEnd( TIMx,
 8005438:	44a1      	add	r9, r4
 800543a:	44a2      	add	sl, r4
 800543c:	3a07      	subs	r2, #7
 800543e:	4649      	mov	r1, r9
 8005440:	5c9a      	ldrb	r2, [r3, r2]
 8005442:	0028      	movs	r0, r5
 8005444:	4653      	mov	r3, sl
 8005446:	f7ff fbb5 	bl	8004bb4 <waitForPolarizationEnd>
  R3_1_SwitchOffPWM( &pHandle->_Super );
 800544a:	0020      	movs	r0, r4
 800544c:	f7ff ff7a 	bl	8005344 <R3_1_SwitchOffPWM>
  pHandle->_Super.pFctGetPhaseCurrents = &R3_1_HFCurrentsCalibrationC;
 8005450:	4b2a      	ldr	r3, [pc, #168]	; (80054fc <R3_1_CurrentReadingCalibration+0x110>)
  pHandle->CalibSector = SECTOR_1;
 8005452:	4659      	mov	r1, fp
  pHandle->_Super.pFctGetPhaseCurrents = &R3_1_HFCurrentsCalibrationC;
 8005454:	6063      	str	r3, [r4, #4]
  pHandle->PolarizationCounter = 0;
 8005456:	2372      	movs	r3, #114	; 0x72
  pHandle->CalibSector = SECTOR_1;
 8005458:	5466      	strb	r6, [r4, r1]
  R3_1_SwitchOnPWM( &pHandle->_Super );
 800545a:	0020      	movs	r0, r4
  pHandle->_Super.Sector = SECTOR_1;
 800545c:	55e6      	strb	r6, [r4, r7]
  pHandle->PolarizationCounter = 0;
 800545e:	54e6      	strb	r6, [r4, r3]
  R3_1_SwitchOnPWM( &pHandle->_Super );
 8005460:	f7ff fefa 	bl	8005258 <R3_1_SwitchOnPWM>
  waitForPolarizationEnd( TIMx,
 8005464:	226b      	movs	r2, #107	; 0x6b
  						  pHandle->pParams_str->RepetitionCounter,
 8005466:	6fa3      	ldr	r3, [r4, #120]	; 0x78
  waitForPolarizationEnd( TIMx,
 8005468:	4649      	mov	r1, r9
 800546a:	0028      	movs	r0, r5
 800546c:	5c9a      	ldrb	r2, [r3, r2]
 800546e:	4653      	mov	r3, sl
 8005470:	f7ff fba0 	bl	8004bb4 <waitForPolarizationEnd>
  R3_1_SwitchOffPWM( &pHandle->_Super );
 8005474:	0020      	movs	r0, r4
 8005476:	f7ff ff65 	bl	8005344 <R3_1_SwitchOffPWM>
  pHandle->_Super.Sector = SECTOR_5;
 800547a:	4643      	mov	r3, r8
 800547c:	55e3      	strb	r3, [r4, r7]
  pHandle->PhaseAOffset = pHandle->PhaseAOffset / NB_CONVERSIONS;
 800547e:	6de3      	ldr	r3, [r4, #92]	; 0x5c
  CLEAR_BIT(*pReg, (TIM_CCMR1_OC1PE << SHIFT_TAB_OCxx[iChannel]));
 8005480:	491f      	ldr	r1, [pc, #124]	; (8005500 <R3_1_CurrentReadingCalibration+0x114>)
  pHandle->PhaseAOffset = pHandle->PhaseAOffset / NB_CONVERSIONS;
 8005482:	091b      	lsrs	r3, r3, #4
 8005484:	65e3      	str	r3, [r4, #92]	; 0x5c
  pHandle->PhaseBOffset = pHandle->PhaseBOffset / NB_CONVERSIONS;
 8005486:	6e23      	ldr	r3, [r4, #96]	; 0x60
  SET_BIT(*pReg, (TIM_CCMR1_OC1PE << SHIFT_TAB_OCxx[iChannel]));
 8005488:	2008      	movs	r0, #8
  pHandle->PhaseBOffset = pHandle->PhaseBOffset / NB_CONVERSIONS;
 800548a:	091b      	lsrs	r3, r3, #4
 800548c:	6623      	str	r3, [r4, #96]	; 0x60
  pHandle->PhaseCOffset = pHandle->PhaseCOffset / NB_CONVERSIONS;
 800548e:	6e63      	ldr	r3, [r4, #100]	; 0x64
 8005490:	091b      	lsrs	r3, r3, #4
 8005492:	6663      	str	r3, [r4, #100]	; 0x64
  pHandle->_Super.pFctGetPhaseCurrents     = &R3_1_GetPhaseCurrents;
 8005494:	4b1b      	ldr	r3, [pc, #108]	; (8005504 <R3_1_CurrentReadingCalibration+0x118>)
 8005496:	6063      	str	r3, [r4, #4]
  pHandle->_Super.pFctSetADCSampPointSectX = &R3_1_SetADCSampPointSectX;
 8005498:	4b1b      	ldr	r3, [pc, #108]	; (8005508 <R3_1_CurrentReadingCalibration+0x11c>)
 800549a:	61a3      	str	r3, [r4, #24]
  CLEAR_BIT(*pReg, (TIM_CCMR1_OC1PE << SHIFT_TAB_OCxx[iChannel]));
 800549c:	4b1b      	ldr	r3, [pc, #108]	; (800550c <R3_1_CurrentReadingCalibration+0x120>)
 800549e:	681a      	ldr	r2, [r3, #0]
 80054a0:	400a      	ands	r2, r1
 80054a2:	601a      	str	r2, [r3, #0]
 80054a4:	681a      	ldr	r2, [r3, #0]
 80054a6:	400a      	ands	r2, r1
 80054a8:	601a      	str	r2, [r3, #0]
 80054aa:	681a      	ldr	r2, [r3, #0]
 80054ac:	400a      	ands	r2, r1
 80054ae:	601a      	str	r2, [r3, #0]
  LL_TIM_OC_SetCompareCH1( TIMx, pHandle->Half_PWMPeriod );
 80054b0:	226c      	movs	r2, #108	; 0x6c
 80054b2:	5aa2      	ldrh	r2, [r4, r2]
  WRITE_REG(TIMx->CCR1, CompareValue);
 80054b4:	636a      	str	r2, [r5, #52]	; 0x34
  WRITE_REG(TIMx->CCR2, CompareValue);
 80054b6:	63aa      	str	r2, [r5, #56]	; 0x38
  WRITE_REG(TIMx->CCR3, CompareValue);
 80054b8:	63ea      	str	r2, [r5, #60]	; 0x3c
  SET_BIT(*pReg, (TIM_CCMR1_OC1PE << SHIFT_TAB_OCxx[iChannel]));
 80054ba:	4a15      	ldr	r2, [pc, #84]	; (8005510 <R3_1_CurrentReadingCalibration+0x124>)
 80054bc:	6811      	ldr	r1, [r2, #0]
 80054be:	4301      	orrs	r1, r0
 80054c0:	6011      	str	r1, [r2, #0]
 80054c2:	2180      	movs	r1, #128	; 0x80
 80054c4:	6817      	ldr	r7, [r2, #0]
 80054c6:	0109      	lsls	r1, r1, #4
 80054c8:	4339      	orrs	r1, r7
 80054ca:	6011      	str	r1, [r2, #0]
 80054cc:	681a      	ldr	r2, [r3, #0]
 80054ce:	4302      	orrs	r2, r0
 80054d0:	601a      	str	r2, [r3, #0]
  SET_BIT(TIMx->CCER, Channels);
 80054d2:	6a2a      	ldr	r2, [r5, #32]
 80054d4:	4b0f      	ldr	r3, [pc, #60]	; (8005514 <R3_1_CurrentReadingCalibration+0x128>)
 80054d6:	4313      	orrs	r3, r2
 80054d8:	622b      	str	r3, [r5, #32]
  pHandle->BrakeActionLock = false;
 80054da:	2376      	movs	r3, #118	; 0x76
 80054dc:	54e6      	strb	r6, [r4, r3]
}
 80054de:	bcf0      	pop	{r4, r5, r6, r7}
 80054e0:	46bb      	mov	fp, r7
 80054e2:	46b2      	mov	sl, r6
 80054e4:	46a9      	mov	r9, r5
 80054e6:	46a0      	mov	r8, r4
 80054e8:	bdf8      	pop	{r3, r4, r5, r6, r7, pc}
 80054ea:	46c0      	nop			; (mov r8, r8)
 80054ec:	40012c00 	.word	0x40012c00
 80054f0:	fffffaaa 	.word	0xfffffaaa
 80054f4:	08004fd1 	.word	0x08004fd1
 80054f8:	0800519d 	.word	0x0800519d
 80054fc:	08005019 	.word	0x08005019
 8005500:	fffff7ff 	.word	0xfffff7ff
 8005504:	08004e65 	.word	0x08004e65
 8005508:	080051bd 	.word	0x080051bd
 800550c:	40012c1c 	.word	0x40012c1c
 8005510:	40012c18 	.word	0x40012c18
 8005514:	00000555 	.word	0x00000555

08005518 <R3_1_TIMx_UP_IRQHandler>:
  MODIFY_REG(ADCx->CFGR1, ADC_CFGR1_EXTEN, ExternalTriggerEdge);
 8005518:	4b19      	ldr	r3, [pc, #100]	; (8005580 <R3_1_TIMx_UP_IRQHandler+0x68>)
  * @brief  It contains the TIMx Update event interrupt
  * @param  pHandle: handler of the current instance of the PWM component
  * @retval none
  */
void * R3_1_TIMx_UP_IRQHandler( PWMC_R3_1_Handle_t * pHandle )
{
 800551a:	b5f0      	push	{r4, r5, r6, r7, lr}
  
  /* Set the trigger polarity as computed inside SetADCSampPointSectX*/
  LL_ADC_REG_SetTriggerEdge (ADC1, pHandle->ADCTriggerEdge);
 800551c:	6e81      	ldr	r1, [r0, #104]	; 0x68
 800551e:	4c19      	ldr	r4, [pc, #100]	; (8005584 <R3_1_TIMx_UP_IRQHandler+0x6c>)
 8005520:	68da      	ldr	r2, [r3, #12]
  MODIFY_REG(ADCx->CFGR1, ADC_CFGR1_SCANDIR, ScanDirection);
 8005522:	2504      	movs	r5, #4
  MODIFY_REG(ADCx->CFGR1, ADC_CFGR1_EXTEN, ExternalTriggerEdge);
 8005524:	4022      	ands	r2, r4
  MODIFY_REG(ADCx->CFGR1, ADC_CFGR1_EXTEN | ADC_CFGR1_EXTSEL, TriggerSource);
 8005526:	2480      	movs	r4, #128	; 0x80
  MODIFY_REG(ADCx->CFGR1, ADC_CFGR1_EXTEN, ExternalTriggerEdge);
 8005528:	430a      	orrs	r2, r1
 800552a:	60da      	str	r2, [r3, #12]
  MODIFY_REG(ADCx->CFGR1, ADC_CFGR1_EXTEN | ADC_CFGR1_EXTSEL, TriggerSource);
 800552c:	68da      	ldr	r2, [r3, #12]
 800552e:	4916      	ldr	r1, [pc, #88]	; (8005588 <R3_1_TIMx_UP_IRQHandler+0x70>)
 8005530:	00e4      	lsls	r4, r4, #3
 8005532:	400a      	ands	r2, r1
 8005534:	4322      	orrs	r2, r4
 8005536:	60da      	str	r2, [r3, #12]
  /* set ADC trigger source */
  LL_ADC_REG_SetTriggerSource(ADC1, LL_ADC_REG_TRIG_EXT_TIM1_TRGO);
  /* Set scan direction according to the sector */  
  LL_ADC_REG_SetSequencerScanDirection(ADC1, pHandle->pParams_str->ADCScandir[pHandle->_Super.Sector]<<ADC_CFGR1_SCANDIR_Pos);
 8005538:	223a      	movs	r2, #58	; 0x3a
 800553a:	6f86      	ldr	r6, [r0, #120]	; 0x78
 800553c:	5c82      	ldrb	r2, [r0, r2]
  MODIFY_REG(ADCx->CFGR1, ADC_CFGR1_SCANDIR, ScanDirection);
 800553e:	68df      	ldr	r7, [r3, #12]
 8005540:	18b1      	adds	r1, r6, r2
 8005542:	316c      	adds	r1, #108	; 0x6c
 8005544:	7809      	ldrb	r1, [r1, #0]
 8005546:	43af      	bics	r7, r5
 8005548:	0089      	lsls	r1, r1, #2
  /* Configure the ADC scheduler as selected inside SetADCSampPointSectX*/
  ADC1->CHSELR = pHandle->pParams_str->ADCConfig[pHandle->_Super.Sector];
 800554a:	3206      	adds	r2, #6
 800554c:	4339      	orrs	r1, r7
 800554e:	0092      	lsls	r2, r2, #2
 8005550:	60d9      	str	r1, [r3, #12]
 8005552:	18b2      	adds	r2, r6, r2
 8005554:	6852      	ldr	r2, [r2, #4]
 8005556:	629a      	str	r2, [r3, #40]	; 0x28
  /* ReConfigure sampling time, as deconfigured by reg_conv_manager */
  LL_ADC_SetSamplingTimeCommonChannels ( ADC1, pHandle->pParams_str->b_ISamplingTime );
 8005558:	226a      	movs	r2, #106	; 0x6a
 800555a:	5cb2      	ldrb	r2, [r6, r2]
  MODIFY_REG(ADCx->SMPR, ADC_SMPR_SMP, SamplingTime);
 800555c:	2607      	movs	r6, #7
 800555e:	6959      	ldr	r1, [r3, #20]
 8005560:	43b1      	bics	r1, r6
 8005562:	430a      	orrs	r2, r1
  MODIFY_REG(TIMx->CR2, TIM_CR2_MMS, TimerSynchronization);
 8005564:	4909      	ldr	r1, [pc, #36]	; (800558c <R3_1_TIMx_UP_IRQHandler+0x74>)
 8005566:	615a      	str	r2, [r3, #20]
 8005568:	684a      	ldr	r2, [r1, #4]
 800556a:	3669      	adds	r6, #105	; 0x69
 800556c:	4332      	orrs	r2, r6
 800556e:	604a      	str	r2, [r1, #4]
  MODIFY_REG(ADCx->CR,
 8005570:	689a      	ldr	r2, [r3, #8]
 8005572:	4907      	ldr	r1, [pc, #28]	; (8005590 <R3_1_TIMx_UP_IRQHandler+0x78>)
 8005574:	400a      	ands	r2, r1
 8005576:	432a      	orrs	r2, r5
 8005578:	609a      	str	r2, [r3, #8]
  LL_TIM_SetTriggerOutput(TIM1, LL_TIM_TRGO_OC4REF);
  /* ADC needs to be restarted because DMA is configured as limited */
  LL_ADC_REG_StartConversion( ADC1 );

  /* Reset the ADC trigger edge for next conversion */
  pHandle->ADCTriggerEdge = LL_ADC_REG_TRIG_EXT_RISING;
 800557a:	6684      	str	r4, [r0, #104]	; 0x68

  return &pHandle->_Super.Motor;
 800557c:	3046      	adds	r0, #70	; 0x46
}
 800557e:	bdf0      	pop	{r4, r5, r6, r7, pc}
 8005580:	40012400 	.word	0x40012400
 8005584:	fffff3ff 	.word	0xfffff3ff
 8005588:	fffff23f 	.word	0xfffff23f
 800558c:	40012c00 	.word	0x40012c00
 8005590:	7fffffe8 	.word	0x7fffffe8

08005594 <F0XX_BRK_IRQHandler>:
 * @param  pHandle: handler of the current instance of the PWM component
 * @retval none
 */
__weak void * F0XX_BRK_IRQHandler( PWMC_R3_1_Handle_t * pHandle )
{
  if ( ( pHandle->pParams_str->LowSideOutputs ) == ES_GPIO )
 8005594:	2272      	movs	r2, #114	; 0x72
 8005596:	6f83      	ldr	r3, [r0, #120]	; 0x78
 8005598:	5c9a      	ldrb	r2, [r3, r2]
 800559a:	2a02      	cmp	r2, #2
 800559c:	d108      	bne.n	80055b0 <F0XX_BRK_IRQHandler+0x1c>
  {
    LL_GPIO_ResetOutputPin( pHandle->pParams_str->pwm_en_u_port, pHandle->pParams_str->pwm_en_u_pin );
 800559e:	685a      	ldr	r2, [r3, #4]
 80055a0:	6919      	ldr	r1, [r3, #16]
  WRITE_REG(GPIOx->BRR, PinMask);
 80055a2:	6291      	str	r1, [r2, #40]	; 0x28
    LL_GPIO_ResetOutputPin( pHandle->pParams_str->pwm_en_v_port, pHandle->pParams_str->pwm_en_v_pin );
 80055a4:	689a      	ldr	r2, [r3, #8]
 80055a6:	6959      	ldr	r1, [r3, #20]
 80055a8:	6291      	str	r1, [r2, #40]	; 0x28
    LL_GPIO_ResetOutputPin( pHandle->pParams_str->pwm_en_w_port, pHandle->pParams_str->pwm_en_w_pin );
 80055aa:	68da      	ldr	r2, [r3, #12]
 80055ac:	699b      	ldr	r3, [r3, #24]
 80055ae:	6293      	str	r3, [r2, #40]	; 0x28
  }
  pHandle->OverCurrentFlag = true;
 80055b0:	2374      	movs	r3, #116	; 0x74
 80055b2:	2201      	movs	r2, #1
 80055b4:	54c2      	strb	r2, [r0, r3]

  return MC_NULL;
}
 80055b6:	2000      	movs	r0, #0
 80055b8:	4770      	bx	lr
 80055ba:	46c0      	nop			; (mov r8, r8)

080055bc <R3_1_IsOverCurrentOccurred>:
#pragma cstat_restore = "MISRAC2012-Rule-11.3"
#endif
  uint16_t retVal = MC_NO_FAULTS;


  if ( pHandle->OverVoltageFlag == true )
 80055bc:	2275      	movs	r2, #117	; 0x75
{
 80055be:	b510      	push	{r4, lr}
  if ( pHandle->OverVoltageFlag == true )
 80055c0:	5c81      	ldrb	r1, [r0, r2]
{
 80055c2:	0003      	movs	r3, r0
  if ( pHandle->OverVoltageFlag == true )
 80055c4:	2900      	cmp	r1, #0
 80055c6:	d00b      	beq.n	80055e0 <R3_1_IsOverCurrentOccurred+0x24>
  {
    retVal = MC_OVER_VOLT;
    pHandle->OverVoltageFlag = false;
 80055c8:	2100      	movs	r1, #0
 80055ca:	2442      	movs	r4, #66	; 0x42
 80055cc:	5481      	strb	r1, [r0, r2]
    retVal = MC_OVER_VOLT;
 80055ce:	2002      	movs	r0, #2
  }

  if ( pHandle->OverCurrentFlag == true )
 80055d0:	2274      	movs	r2, #116	; 0x74
 80055d2:	5c99      	ldrb	r1, [r3, r2]
 80055d4:	2900      	cmp	r1, #0
 80055d6:	d002      	beq.n	80055de <R3_1_IsOverCurrentOccurred+0x22>
  {
    retVal |= MC_BREAK_IN;
    pHandle->OverCurrentFlag = false;
 80055d8:	2100      	movs	r1, #0
    retVal |= MC_BREAK_IN;
 80055da:	0020      	movs	r0, r4
    pHandle->OverCurrentFlag = false;
 80055dc:	5499      	strb	r1, [r3, r2]
  }
  return retVal;
}
 80055de:	bd10      	pop	{r4, pc}
 80055e0:	2440      	movs	r4, #64	; 0x40
  uint16_t retVal = MC_NO_FAULTS;
 80055e2:	2000      	movs	r0, #0
 80055e4:	e7f4      	b.n	80055d0 <R3_1_IsOverCurrentOccurred+0x14>
 80055e6:	46c0      	nop			; (mov r8, r8)

080055e8 <REMNG_Init>:
  * @param  pHandle related Handle of struct RampMngr_Handle_t
  * @retval none.
  */
void REMNG_Init( RampExtMngr_Handle_t * pHandle )
{
  pHandle->Ext = 0;
 80055e8:	2300      	movs	r3, #0
{
 80055ea:	b510      	push	{r4, lr}
  pHandle->Ext = 0;
 80055ec:	6083      	str	r3, [r0, #8]
  pHandle->TargetFinal = 0;
 80055ee:	6043      	str	r3, [r0, #4]
  pHandle->RampRemainingStep = 0u;
 80055f0:	60c3      	str	r3, [r0, #12]
  pHandle->IncDecAmount = 0;
 80055f2:	6103      	str	r3, [r0, #16]
  pHandle->ScalingFactor = 1u;
 80055f4:	3301      	adds	r3, #1
 80055f6:	6143      	str	r3, [r0, #20]

#ifdef FASTDIV
  FD_Init( & ( pHandle->fd ) );
 80055f8:	3018      	adds	r0, #24
 80055fa:	f7fe fd77 	bl	80040ec <FD_Init>
#endif

}
 80055fe:	bd10      	pop	{r4, pc}

08005600 <RUC_SetPhaseDurationms>:
  *         This parameter must be set in millisecond.
  *  @retval none
  */
__weak void RUC_SetPhaseDurationms( RevUpCtrl_Handle_t * pHandle, uint8_t bPhase, uint16_t hDurationms )
{
  pHandle->ParamsData[bPhase].hDurationms = hDurationms;
 8005600:	004b      	lsls	r3, r1, #1
 8005602:	185b      	adds	r3, r3, r1
 8005604:	009b      	lsls	r3, r3, #2
 8005606:	18c0      	adds	r0, r0, r3
 8005608:	8182      	strh	r2, [r0, #12]
}
 800560a:	4770      	bx	lr

0800560c <RUC_SetPhaseFinalMecSpeedUnit>:
  *  @retval none
  */
__weak void RUC_SetPhaseFinalMecSpeedUnit( RevUpCtrl_Handle_t * pHandle, uint8_t bPhase,
                                    int16_t hFinalMecSpeedUnit )
{
  pHandle->ParamsData[bPhase].hFinalMecSpeedUnit = hFinalMecSpeedUnit;
 800560c:	004b      	lsls	r3, r1, #1
 800560e:	185b      	adds	r3, r3, r1
 8005610:	009b      	lsls	r3, r3, #2
 8005612:	18c0      	adds	r0, r0, r3
 8005614:	81c2      	strh	r2, [r0, #14]
}
 8005616:	4770      	bx	lr

08005618 <RUC_SetPhaseFinalTorque>:
  * @param  hFinalTorque: new targetted motor torque.
  *  @retval none
  */
__weak void RUC_SetPhaseFinalTorque( RevUpCtrl_Handle_t * pHandle, uint8_t bPhase, int16_t hFinalTorque )
{
  pHandle->ParamsData[bPhase].hFinalTorque = hFinalTorque;
 8005618:	004b      	lsls	r3, r1, #1
 800561a:	185b      	adds	r3, r3, r1
 800561c:	009b      	lsls	r3, r3, #2
 800561e:	18c0      	adds	r0, r0, r3
 8005620:	8202      	strh	r2, [r0, #16]
}
 8005622:	4770      	bx	lr

08005624 <RUC_GetPhaseDurationms>:
  *         This parameter must be a number between 0 and 6.
  *  @retval Returns duration used in selected phase.
  */
__weak uint16_t RUC_GetPhaseDurationms( RevUpCtrl_Handle_t * pHandle, uint8_t bPhase )
{
  return ( ( uint16_t )pHandle->ParamsData[bPhase].hDurationms );
 8005624:	004b      	lsls	r3, r1, #1
 8005626:	185b      	adds	r3, r3, r1
 8005628:	009b      	lsls	r3, r3, #2
 800562a:	18c0      	adds	r0, r0, r3
 800562c:	8980      	ldrh	r0, [r0, #12]
}
 800562e:	4770      	bx	lr

08005630 <RUC_GetPhaseFinalMecSpeedUnit>:
  *         This parameter must be a number between 0 and 6.
  *  @retval Returns targetted rotor speed set in selected phase.
  */
__weak int16_t RUC_GetPhaseFinalMecSpeedUnit( RevUpCtrl_Handle_t * pHandle, uint8_t bPhase )
{
  return ( ( int16_t )pHandle->ParamsData[bPhase].hFinalMecSpeedUnit );
 8005630:	004b      	lsls	r3, r1, #1
 8005632:	185b      	adds	r3, r3, r1
 8005634:	009b      	lsls	r3, r3, #2
 8005636:	18c0      	adds	r0, r0, r3
 8005638:	230e      	movs	r3, #14
 800563a:	5ec0      	ldrsh	r0, [r0, r3]
}
 800563c:	4770      	bx	lr
 800563e:	46c0      	nop			; (mov r8, r8)

08005640 <RUC_GetPhaseFinalTorque>:
  *         This parameter must be a number between 0 and 6.
  *  @retval Returns targetted motor torque set in selected phase.
  */
__weak int16_t RUC_GetPhaseFinalTorque( RevUpCtrl_Handle_t * pHandle, uint8_t bPhase )
{
  return ( ( int16_t )pHandle->ParamsData[bPhase].hFinalTorque );
 8005640:	004b      	lsls	r3, r1, #1
 8005642:	185b      	adds	r3, r3, r1
 8005644:	009b      	lsls	r3, r3, #2
 8005646:	18c0      	adds	r0, r0, r3
 8005648:	2310      	movs	r3, #16
 800564a:	5ec0      	ldrsh	r0, [r0, r3]
}
 800564c:	4770      	bx	lr
 800564e:	46c0      	nop			; (mov r8, r8)

08005650 <RUC_GetNumberOfPhases>:
  * @param  pHandle: Pointer on Handle structure of RevUp controller.
  *  @retval Returns number of phases relative to the programmed revup.
  */
__weak uint8_t RUC_GetNumberOfPhases( RevUpCtrl_Handle_t * pHandle )
{
  return ( ( uint8_t )pHandle->bPhaseNbr );
 8005650:	2348      	movs	r3, #72	; 0x48
 8005652:	5cc0      	ldrb	r0, [r0, r3]
}
 8005654:	4770      	bx	lr
 8005656:	46c0      	nop			; (mov r8, r8)

08005658 <SPD_GetElAngle>:
  * @param  pHandle: handler of the current instance of the SpeednPosFdbk component
  * @retval int16_t rotor electrical angle (s16degrees)
  */
__weak int16_t SPD_GetElAngle( SpeednPosFdbk_Handle_t * pHandle )
{
  return ( pHandle->hElAngle );
 8005658:	2304      	movs	r3, #4
 800565a:	5ec0      	ldrsh	r0, [r0, r3]
}
 800565c:	4770      	bx	lr
 800565e:	46c0      	nop			; (mov r8, r8)

08005660 <SPD_GetAvrgMecSpeedUnit>:
  *         the unit defined by #SPEED_UNIT.
  * @param  pHandle: handler of the current instance of the SpeednPosFdbk component
  */
__weak int16_t SPD_GetAvrgMecSpeedUnit( SpeednPosFdbk_Handle_t * pHandle )
{
  return ( pHandle->hAvrMecSpeedUnit );
 8005660:	230c      	movs	r3, #12
 8005662:	5ec0      	ldrsh	r0, [r0, r3]
}
 8005664:	4770      	bx	lr
 8005666:	46c0      	nop			; (mov r8, r8)

08005668 <SPD_GetInstElSpeedDpp>:
  * @param  pHandle: handler of the current instance of the SpeednPosFdbk component
  * @retval int16_t rotor instantaneous electrical speed (Dpp)
  */
__weak int16_t SPD_GetInstElSpeedDpp( SpeednPosFdbk_Handle_t * pHandle )
{
  return ( pHandle->InstantaneousElSpeedDpp );
 8005668:	2310      	movs	r3, #16
 800566a:	5ec0      	ldrsh	r0, [r0, r3]
}
 800566c:	4770      	bx	lr
 800566e:	46c0      	nop			; (mov r8, r8)

08005670 <SPD_IsMecSpeedReliable>:
  * @param  pMecSpeedUnit pointer to int16_t, used to return the rotor average
  *         mechanical speed (expressed in the unit defined by #SPEED_UNIT)
  * @retval none
  */
__weak bool SPD_IsMecSpeedReliable( SpeednPosFdbk_Handle_t * pHandle, int16_t * pMecSpeedUnit )
{
 8005670:	b570      	push	{r4, r5, r6, lr}
  int16_t hAux;

  bSpeedErrorNumber = pHandle->bSpeedErrorNumber;

  /* Compute absoulte value of mechanical speed */
  if ( *pMecSpeedUnit < 0 )
 8005672:	2200      	movs	r2, #0
 8005674:	5e8a      	ldrsh	r2, [r1, r2]
  uint8_t bMaximumSpeedErrorsNumber = pHandle->bMaximumSpeedErrorsNumber;
 8005676:	78c4      	ldrb	r4, [r0, #3]
  bSpeedErrorNumber = pHandle->bSpeedErrorNumber;
 8005678:	7803      	ldrb	r3, [r0, #0]
  if ( *pMecSpeedUnit < 0 )
 800567a:	2a00      	cmp	r2, #0
 800567c:	db24      	blt.n	80056c8 <SPD_IsMecSpeedReliable+0x58>
    hAux = -( *pMecSpeedUnit );
    hAbsMecSpeedUnit = ( uint16_t )( hAux );
  }
  else
  {
    hAbsMecSpeedUnit = ( uint16_t )( *pMecSpeedUnit );
 800567e:	b292      	uxth	r2, r2
  if ( hAbsMecSpeedUnit > pHandle->hMaxReliableMecSpeedUnit )
  {
    SpeedError = true;
  }

  if ( hAbsMecSpeedUnit < pHandle->hMinReliableMecSpeedUnit )
 8005680:	8ac6      	ldrh	r6, [r0, #22]
  {
    SpeedError = true;
 8005682:	2101      	movs	r1, #1
  if ( hAbsMecSpeedUnit > pHandle->hMaxReliableMecSpeedUnit )
 8005684:	8a85      	ldrh	r5, [r0, #20]
  if ( hAbsMecSpeedUnit < pHandle->hMinReliableMecSpeedUnit )
 8005686:	4296      	cmp	r6, r2
 8005688:	d802      	bhi.n	8005690 <SPD_IsMecSpeedReliable+0x20>
  if ( hAbsMecSpeedUnit > pHandle->hMaxReliableMecSpeedUnit )
 800568a:	4295      	cmp	r5, r2
 800568c:	41ad      	sbcs	r5, r5
 800568e:	4269      	negs	r1, r5
  }

  /* Compute absoulte value of mechanical acceleration */
  if ( pHandle->hMecAccelUnitP < 0 )
 8005690:	2512      	movs	r5, #18
 8005692:	5f42      	ldrsh	r2, [r0, r5]
 8005694:	2a00      	cmp	r2, #0
 8005696:	db14      	blt.n	80056c2 <SPD_IsMecSpeedReliable+0x52>
    hAux = -( pHandle->hMecAccelUnitP );
    hAbsMecAccelUnitP = ( uint16_t )( hAux );
  }
  else
  {
    hAbsMecAccelUnitP = ( uint16_t )( pHandle->hMecAccelUnitP );
 8005698:	b292      	uxth	r2, r2
  }

  if ( hAbsMecAccelUnitP > pHandle->hMaxReliableMecAccelUnitP )
 800569a:	8b05      	ldrh	r5, [r0, #24]
 800569c:	4295      	cmp	r5, r2
 800569e:	d301      	bcc.n	80056a4 <SPD_IsMecSpeedReliable+0x34>
  {
    SpeedError = true;
  }

  if ( SpeedError == true )
 80056a0:	2900      	cmp	r1, #0
 80056a2:	d009      	beq.n	80056b8 <SPD_IsMecSpeedReliable+0x48>
  {
    if ( bSpeedErrorNumber < bMaximumSpeedErrorsNumber )
 80056a4:	429c      	cmp	r4, r3
 80056a6:	d901      	bls.n	80056ac <SPD_IsMecSpeedReliable+0x3c>
    {
      bSpeedErrorNumber++;
 80056a8:	3301      	adds	r3, #1
 80056aa:	b2db      	uxtb	r3, r3
  if ( bSpeedErrorNumber == bMaximumSpeedErrorsNumber )
  {
    SpeedSensorReliability = false;
  }

  pHandle->bSpeedErrorNumber = bSpeedErrorNumber;
 80056ac:	7003      	strb	r3, [r0, #0]
  if ( bSpeedErrorNumber == bMaximumSpeedErrorsNumber )
 80056ae:	1b18      	subs	r0, r3, r4
 80056b0:	1e42      	subs	r2, r0, #1
 80056b2:	4190      	sbcs	r0, r2

  return ( SpeedSensorReliability );
 80056b4:	b2c0      	uxtb	r0, r0
}
 80056b6:	bd70      	pop	{r4, r5, r6, pc}
      bSpeedErrorNumber = 0u;
 80056b8:	42a3      	cmp	r3, r4
 80056ba:	4149      	adcs	r1, r1
 80056bc:	4249      	negs	r1, r1
 80056be:	400b      	ands	r3, r1
 80056c0:	e7f4      	b.n	80056ac <SPD_IsMecSpeedReliable+0x3c>
    hAux = -( pHandle->hMecAccelUnitP );
 80056c2:	4252      	negs	r2, r2
 80056c4:	b292      	uxth	r2, r2
    hAbsMecAccelUnitP = ( uint16_t )( hAux );
 80056c6:	e7e8      	b.n	800569a <SPD_IsMecSpeedReliable+0x2a>
    hAux = -( *pMecSpeedUnit );
 80056c8:	4252      	negs	r2, r2
 80056ca:	b292      	uxth	r2, r2
    hAbsMecSpeedUnit = ( uint16_t )( hAux );
 80056cc:	e7d8      	b.n	8005680 <SPD_IsMecSpeedReliable+0x10>
 80056ce:	46c0      	nop			; (mov r8, r8)

080056d0 <SPD_GetS16Speed>:
  *         -hMaxReliableMecSpeedUnit.
  * @param  pHandle: handler of the current instance of the SpeednPosFdbk component
  * @retval int16_t The average mechanical rotor speed expressed in "S16Speed".
  */
__weak int16_t SPD_GetS16Speed( SpeednPosFdbk_Handle_t * pHandle )
{
 80056d0:	0003      	movs	r3, r0
 80056d2:	b510      	push	{r4, lr}
  int32_t wAux = ( int32_t ) pHandle->hAvrMecSpeedUnit;
 80056d4:	210c      	movs	r1, #12
 80056d6:	5e42      	ldrsh	r2, [r0, r1]
  wAux *= INT16_MAX;
  wAux /= ( int16_t ) pHandle->hMaxReliableMecSpeedUnit;
 80056d8:	2114      	movs	r1, #20
 80056da:	5e59      	ldrsh	r1, [r3, r1]
  wAux *= INT16_MAX;
 80056dc:	03d0      	lsls	r0, r2, #15
 80056de:	1a80      	subs	r0, r0, r2
  wAux /= ( int16_t ) pHandle->hMaxReliableMecSpeedUnit;
 80056e0:	f7fa fd9c 	bl	800021c <__divsi3>
  return ( int16_t )wAux;
 80056e4:	b200      	sxth	r0, r0
}
 80056e6:	bd10      	pop	{r4, pc}

080056e8 <STC_Init>:
__weak void STC_Init( SpeednTorqCtrl_Handle_t * pHandle, PID_Handle_t * pPI, SpeednPosFdbk_Handle_t * SPD_Handle )
{

  pHandle->PISpeed = pPI;
  pHandle->SPD = SPD_Handle;
  pHandle->Mode = pHandle->ModeDefault;
 80056e8:	232a      	movs	r3, #42	; 0x2a
  pHandle->SPD = SPD_Handle;
 80056ea:	6142      	str	r2, [r0, #20]
  pHandle->PISpeed = pPI;
 80056ec:	6101      	str	r1, [r0, #16]
  pHandle->Mode = pHandle->ModeDefault;
 80056ee:	5cc3      	ldrb	r3, [r0, r3]
 80056f0:	7003      	strb	r3, [r0, #0]
  pHandle->SpeedRefUnitExt = ( int32_t )pHandle->MecSpeedRefUnitDefault * 65536;
 80056f2:	222c      	movs	r2, #44	; 0x2c
 80056f4:	5e83      	ldrsh	r3, [r0, r2]
 80056f6:	041b      	lsls	r3, r3, #16
 80056f8:	6043      	str	r3, [r0, #4]
  pHandle->TorqueRef = ( int32_t )pHandle->TorqueRefDefault * 65536;
 80056fa:	222e      	movs	r2, #46	; 0x2e
 80056fc:	5e83      	ldrsh	r3, [r0, r2]
 80056fe:	041b      	lsls	r3, r3, #16
 8005700:	6083      	str	r3, [r0, #8]
  pHandle->TargetFinal = 0;
 8005702:	2300      	movs	r3, #0
 8005704:	8043      	strh	r3, [r0, #2]
  pHandle->RampRemainingStep = 0u;
 8005706:	60c3      	str	r3, [r0, #12]
  pHandle->IncDecAmount = 0;
 8005708:	6183      	str	r3, [r0, #24]
}
 800570a:	4770      	bx	lr

0800570c <STC_GetSpeedSensor>:
  * @param  pHandle: handler of the current instance of the SpeednTorqCtrl component
  * @retval SpeednPosFdbk_Handle_t speed sensor utilized by the FOC.
  */
__weak SpeednPosFdbk_Handle_t * STC_GetSpeedSensor( SpeednTorqCtrl_Handle_t * pHandle )
{
  return ( pHandle->SPD );
 800570c:	6940      	ldr	r0, [r0, #20]
}
 800570e:	4770      	bx	lr

08005710 <STC_Clear>:
  * @param  pHandle: handler of the current instance of the SpeednTorqCtrl component
  * @retval none.
  */
__weak void STC_Clear( SpeednTorqCtrl_Handle_t * pHandle )
{
  if ( pHandle->Mode == STC_SPEED_MODE )
 8005710:	7803      	ldrb	r3, [r0, #0]
{
 8005712:	b510      	push	{r4, lr}
  if ( pHandle->Mode == STC_SPEED_MODE )
 8005714:	2b01      	cmp	r3, #1
 8005716:	d000      	beq.n	800571a <STC_Clear+0xa>
  {
    PID_SetIntegralTerm( pHandle->PISpeed, 0 );
  }
}
 8005718:	bd10      	pop	{r4, pc}
    PID_SetIntegralTerm( pHandle->PISpeed, 0 );
 800571a:	2100      	movs	r1, #0
 800571c:	6900      	ldr	r0, [r0, #16]
 800571e:	f7ff f9cf 	bl	8004ac0 <PID_SetIntegralTerm>
}
 8005722:	e7f9      	b.n	8005718 <STC_Clear+0x8>

08005724 <STC_GetMecSpeedRefUnit>:
  * @retval int16_t current mechanical rotor speed reference expressed in tenths
  *         of HZ.
  */
__weak int16_t STC_GetMecSpeedRefUnit( SpeednTorqCtrl_Handle_t * pHandle )
{
  return ( ( int16_t )( pHandle->SpeedRefUnitExt / 65536 ) );
 8005724:	6843      	ldr	r3, [r0, #4]
 8005726:	17d8      	asrs	r0, r3, #31
 8005728:	0400      	lsls	r0, r0, #16
 800572a:	0c00      	lsrs	r0, r0, #16
 800572c:	18c0      	adds	r0, r0, r3
 800572e:	1400      	asrs	r0, r0, #16
}
 8005730:	4770      	bx	lr
 8005732:	46c0      	nop			; (mov r8, r8)

08005734 <STC_GetTorqueRef>:
  * @retval int16_t current motor torque reference. This value represents
  *         actually the Iq current expressed in digit.
  */
__weak int16_t STC_GetTorqueRef( SpeednTorqCtrl_Handle_t * pHandle )
{
  return ( ( int16_t )( pHandle->TorqueRef / 65536 ) );
 8005734:	6883      	ldr	r3, [r0, #8]
 8005736:	17d8      	asrs	r0, r3, #31
 8005738:	0400      	lsls	r0, r0, #16
 800573a:	0c00      	lsrs	r0, r0, #16
 800573c:	18c0      	adds	r0, r0, r3
 800573e:	1400      	asrs	r0, r0, #16
}
 8005740:	4770      	bx	lr
 8005742:	46c0      	nop			; (mov r8, r8)

08005744 <STC_SetControlMode>:
  * @retval none
  */
__weak void STC_SetControlMode( SpeednTorqCtrl_Handle_t * pHandle, STC_Modality_t bMode )
{
  pHandle->Mode = bMode;
  pHandle->RampRemainingStep = 0u; /* Interrupts previous ramp. */
 8005744:	2300      	movs	r3, #0
  pHandle->Mode = bMode;
 8005746:	7001      	strb	r1, [r0, #0]
  pHandle->RampRemainingStep = 0u; /* Interrupts previous ramp. */
 8005748:	60c3      	str	r3, [r0, #12]
}
 800574a:	4770      	bx	lr

0800574c <STC_ExecRamp>:
  *         application torque or below min application speed depending on
  *         current modality of TSC) in this case the command is ignored and the
  *         previous ramp is not interrupted, otherwise it returns true.
  */
__weak bool STC_ExecRamp( SpeednTorqCtrl_Handle_t * pHandle, int16_t hTargetFinal, uint32_t hDurationms )
{
 800574c:	b5f8      	push	{r3, r4, r5, r6, r7, lr}
  uint32_t wAux;
  int32_t wAux1;
  int16_t hCurrentReference;

  /* Check if the hTargetFinal is out of the bound of application. */
  if ( pHandle->Mode == STC_TORQUE_MODE )
 800574e:	7803      	ldrb	r3, [r0, #0]
{
 8005750:	0004      	movs	r4, r0
 8005752:	000e      	movs	r6, r1
 8005754:	0017      	movs	r7, r2
  if ( pHandle->Mode == STC_TORQUE_MODE )
 8005756:	2b00      	cmp	r3, #0
 8005758:	d016      	beq.n	8005788 <STC_ExecRamp+0x3c>
    }
#endif
  }
  else
  {
    hCurrentReference = ( int16_t )( pHandle->SpeedRefUnitExt / 65536 );
 800575a:	6842      	ldr	r2, [r0, #4]
 800575c:	17d3      	asrs	r3, r2, #31
 800575e:	041b      	lsls	r3, r3, #16
 8005760:	0c1b      	lsrs	r3, r3, #16
 8005762:	189b      	adds	r3, r3, r2
 8005764:	141d      	asrs	r5, r3, #16

#ifdef CHECK_BOUNDARY
    if ( ( int32_t )hTargetFinal > ( int32_t )pHandle->MaxAppPositiveMecSpeedUnit )
 8005766:	8bc3      	ldrh	r3, [r0, #30]
 8005768:	4299      	cmp	r1, r3
 800576a:	dd01      	ble.n	8005770 <STC_ExecRamp+0x24>
      AllowedRange = false;
 800576c:	2000      	movs	r0, #0
      pHandle->IncDecAmount = wAux1;
    }
  }

  return AllowedRange;
}
 800576e:	bdf8      	pop	{r3, r4, r5, r6, r7, pc}
    else if ( hTargetFinal < pHandle->MinAppNegativeMecSpeedUnit )
 8005770:	2224      	movs	r2, #36	; 0x24
 8005772:	5e83      	ldrsh	r3, [r0, r2]
 8005774:	428b      	cmp	r3, r1
 8005776:	dcf9      	bgt.n	800576c <STC_ExecRamp+0x20>
    else if ( ( int32_t )hTargetFinal < ( int32_t )pHandle->MinAppPositiveMecSpeedUnit )
 8005778:	8c03      	ldrh	r3, [r0, #32]
 800577a:	4299      	cmp	r1, r3
 800577c:	da0e      	bge.n	800579c <STC_ExecRamp+0x50>
      if ( hTargetFinal > pHandle->MaxAppNegativeMecSpeedUnit )
 800577e:	2222      	movs	r2, #34	; 0x22
 8005780:	5e83      	ldrsh	r3, [r0, r2]
 8005782:	428b      	cmp	r3, r1
 8005784:	dbf2      	blt.n	800576c <STC_ExecRamp+0x20>
 8005786:	e009      	b.n	800579c <STC_ExecRamp+0x50>
    hCurrentReference = STC_GetTorqueRef( pHandle );
 8005788:	f7ff ffd4 	bl	8005734 <STC_GetTorqueRef>
    if ( ( int32_t )hTargetFinal > ( int32_t )pHandle->MaxPositiveTorque )
 800578c:	8ce3      	ldrh	r3, [r4, #38]	; 0x26
    hCurrentReference = STC_GetTorqueRef( pHandle );
 800578e:	0005      	movs	r5, r0
    if ( ( int32_t )hTargetFinal > ( int32_t )pHandle->MaxPositiveTorque )
 8005790:	429e      	cmp	r6, r3
 8005792:	dceb      	bgt.n	800576c <STC_ExecRamp+0x20>
    if ( ( int32_t )hTargetFinal < ( int32_t )pHandle->MinNegativeTorque )
 8005794:	2228      	movs	r2, #40	; 0x28
 8005796:	5ea3      	ldrsh	r3, [r4, r2]
 8005798:	42b3      	cmp	r3, r6
 800579a:	dce7      	bgt.n	800576c <STC_ExecRamp+0x20>
    if ( hDurationms == 0u )
 800579c:	2f00      	cmp	r7, #0
 800579e:	d109      	bne.n	80057b4 <STC_ExecRamp+0x68>
      if ( pHandle->Mode == STC_SPEED_MODE )
 80057a0:	7823      	ldrb	r3, [r4, #0]
        pHandle->SpeedRefUnitExt = ( int32_t )hTargetFinal * 65536;
 80057a2:	0436      	lsls	r6, r6, #16
      if ( pHandle->Mode == STC_SPEED_MODE )
 80057a4:	2b01      	cmp	r3, #1
 80057a6:	d015      	beq.n	80057d4 <STC_ExecRamp+0x88>
        pHandle->TorqueRef = ( int32_t )hTargetFinal * 65536;
 80057a8:	60a6      	str	r6, [r4, #8]
      pHandle->RampRemainingStep = 0u;
 80057aa:	2300      	movs	r3, #0
 80057ac:	2001      	movs	r0, #1
 80057ae:	60e3      	str	r3, [r4, #12]
      pHandle->IncDecAmount = 0;
 80057b0:	61a3      	str	r3, [r4, #24]
 80057b2:	e7dc      	b.n	800576e <STC_ExecRamp+0x22>
      wAux /= 1000u;
 80057b4:	21fa      	movs	r1, #250	; 0xfa
      wAux = ( uint32_t )hDurationms * ( uint32_t )pHandle->STCFrequencyHz;
 80057b6:	8ba0      	ldrh	r0, [r4, #28]
      pHandle->TargetFinal = hTargetFinal;
 80057b8:	8066      	strh	r6, [r4, #2]
      wAux /= 1000u;
 80057ba:	0089      	lsls	r1, r1, #2
      wAux = ( uint32_t )hDurationms * ( uint32_t )pHandle->STCFrequencyHz;
 80057bc:	4378      	muls	r0, r7
      wAux /= 1000u;
 80057be:	f7fa fca3 	bl	8000108 <__udivsi3>
      wAux1 = ( ( int32_t )hTargetFinal - ( int32_t )hCurrentReference ) * 65536;
 80057c2:	1b76      	subs	r6, r6, r5
      pHandle->RampRemainingStep++;
 80057c4:	1c41      	adds	r1, r0, #1
 80057c6:	60e1      	str	r1, [r4, #12]
      wAux1 = ( ( int32_t )hTargetFinal - ( int32_t )hCurrentReference ) * 65536;
 80057c8:	0430      	lsls	r0, r6, #16
      wAux1 /= ( int32_t )pHandle->RampRemainingStep;
 80057ca:	f7fa fd27 	bl	800021c <__divsi3>
      pHandle->IncDecAmount = wAux1;
 80057ce:	61a0      	str	r0, [r4, #24]
 80057d0:	2001      	movs	r0, #1
 80057d2:	e7cc      	b.n	800576e <STC_ExecRamp+0x22>
        pHandle->SpeedRefUnitExt = ( int32_t )hTargetFinal * 65536;
 80057d4:	6066      	str	r6, [r4, #4]
 80057d6:	e7e8      	b.n	80057aa <STC_ExecRamp+0x5e>

080057d8 <STC_StopRamp>:
  * @retval none
  */
__weak void STC_StopRamp( SpeednTorqCtrl_Handle_t * pHandle )
{

  pHandle->RampRemainingStep = 0u;
 80057d8:	2300      	movs	r3, #0
 80057da:	60c3      	str	r3, [r0, #12]
  pHandle->IncDecAmount = 0;
 80057dc:	6183      	str	r3, [r0, #24]
}
 80057de:	4770      	bx	lr

080057e0 <STC_CalcTorqueReference>:
  int16_t hTorqueReference = 0;
  int16_t hMeasuredSpeed;
  int16_t hTargetSpeed;
  int16_t hError;

  if ( pHandle->Mode == STC_TORQUE_MODE )
 80057e0:	7802      	ldrb	r2, [r0, #0]
{
 80057e2:	b570      	push	{r4, r5, r6, lr}
 80057e4:	0005      	movs	r5, r0
  if ( pHandle->Mode == STC_TORQUE_MODE )
 80057e6:	2a00      	cmp	r2, #0
 80057e8:	d111      	bne.n	800580e <STC_CalcTorqueReference+0x2e>
    wCurrentReference = pHandle->SpeedRefUnitExt;
  }

  /* Update the speed reference or the torque reference according to the mode
     and terminates the ramp if needed. */
  if ( pHandle->RampRemainingStep > 1u )
 80057ea:	68eb      	ldr	r3, [r5, #12]
    wCurrentReference = pHandle->TorqueRef;
 80057ec:	6886      	ldr	r6, [r0, #8]
  if ( pHandle->RampRemainingStep > 1u )
 80057ee:	2b01      	cmp	r3, #1
 80057f0:	d911      	bls.n	8005816 <STC_CalcTorqueReference+0x36>
  {
    /* Increment/decrement the reference value. */
    wCurrentReference += pHandle->IncDecAmount;
 80057f2:	69a9      	ldr	r1, [r5, #24]

    /* Decrement the number of remaining steps */
    pHandle->RampRemainingStep--;
 80057f4:	3b01      	subs	r3, #1
    wCurrentReference += pHandle->IncDecAmount;
 80057f6:	1876      	adds	r6, r6, r1
  if ( pHandle->Mode == STC_SPEED_MODE )
  {
    /* Run the speed control loop */

    /* Compute speed error */
    hTargetSpeed = ( int16_t )( wCurrentReference / 65536 );
 80057f8:	17f4      	asrs	r4, r6, #31
 80057fa:	0424      	lsls	r4, r4, #16
 80057fc:	0c24      	lsrs	r4, r4, #16
 80057fe:	19a4      	adds	r4, r4, r6
    pHandle->RampRemainingStep--;
 8005800:	60eb      	str	r3, [r5, #12]
    hTargetSpeed = ( int16_t )( wCurrentReference / 65536 );
 8005802:	1424      	asrs	r4, r4, #16
  if ( pHandle->Mode == STC_SPEED_MODE )
 8005804:	2a01      	cmp	r2, #1
 8005806:	d00f      	beq.n	8005828 <STC_CalcTorqueReference+0x48>
    pHandle->TorqueRef = ( int32_t )hTorqueReference * 65536;
  }
  else
  {
    pHandle->TorqueRef = wCurrentReference;
    hTorqueReference = ( int16_t )( wCurrentReference / 65536 );
 8005808:	b220      	sxth	r0, r4
    pHandle->TorqueRef = ( int32_t )hTorqueReference * 65536;
 800580a:	60ae      	str	r6, [r5, #8]
  }

  return hTorqueReference;
}
 800580c:	bd70      	pop	{r4, r5, r6, pc}
  if ( pHandle->RampRemainingStep > 1u )
 800580e:	68eb      	ldr	r3, [r5, #12]
    wCurrentReference = pHandle->SpeedRefUnitExt;
 8005810:	6846      	ldr	r6, [r0, #4]
  if ( pHandle->RampRemainingStep > 1u )
 8005812:	2b01      	cmp	r3, #1
 8005814:	d8ed      	bhi.n	80057f2 <STC_CalcTorqueReference+0x12>
  else if ( pHandle->RampRemainingStep == 1u )
 8005816:	2b01      	cmp	r3, #1
 8005818:	d011      	beq.n	800583e <STC_CalcTorqueReference+0x5e>
    hTargetSpeed = ( int16_t )( wCurrentReference / 65536 );
 800581a:	17f0      	asrs	r0, r6, #31
 800581c:	0400      	lsls	r0, r0, #16
 800581e:	0c00      	lsrs	r0, r0, #16
 8005820:	1980      	adds	r0, r0, r6
 8005822:	1404      	asrs	r4, r0, #16
  if ( pHandle->Mode == STC_SPEED_MODE )
 8005824:	2a01      	cmp	r2, #1
 8005826:	d1ef      	bne.n	8005808 <STC_CalcTorqueReference+0x28>
    hMeasuredSpeed = SPD_GetAvrgMecSpeedUnit( pHandle->SPD );
 8005828:	6968      	ldr	r0, [r5, #20]
 800582a:	f7ff ff19 	bl	8005660 <SPD_GetAvrgMecSpeedUnit>
    hError = hTargetSpeed - hMeasuredSpeed;
 800582e:	1a20      	subs	r0, r4, r0
    hTorqueReference = PI_Controller( pHandle->PISpeed, ( int32_t )hError );
 8005830:	b201      	sxth	r1, r0
 8005832:	6928      	ldr	r0, [r5, #16]
 8005834:	f7ff f950 	bl	8004ad8 <PI_Controller>
    pHandle->SpeedRefUnitExt = wCurrentReference;
 8005838:	606e      	str	r6, [r5, #4]
    pHandle->TorqueRef = ( int32_t )hTorqueReference * 65536;
 800583a:	0406      	lsls	r6, r0, #16
 800583c:	e7e5      	b.n	800580a <STC_CalcTorqueReference+0x2a>
    wCurrentReference = ( int32_t )pHandle->TargetFinal * 65536;
 800583e:	2302      	movs	r3, #2
 8005840:	5eec      	ldrsh	r4, [r5, r3]
    pHandle->RampRemainingStep = 0u;
 8005842:	2300      	movs	r3, #0
    wCurrentReference = ( int32_t )pHandle->TargetFinal * 65536;
 8005844:	0426      	lsls	r6, r4, #16
    pHandle->RampRemainingStep = 0u;
 8005846:	60eb      	str	r3, [r5, #12]
 8005848:	e7dc      	b.n	8005804 <STC_CalcTorqueReference+0x24>
 800584a:	46c0      	nop			; (mov r8, r8)

0800584c <STC_GetMecSpeedRefUnitDefault>:
  * @retval int16_t It returns the Default mechanical rotor speed. reference
  *         expressed in tenths of HZ.
  */
__weak int16_t STC_GetMecSpeedRefUnitDefault( SpeednTorqCtrl_Handle_t * pHandle )
{
  return pHandle->MecSpeedRefUnitDefault;
 800584c:	232c      	movs	r3, #44	; 0x2c
 800584e:	5ec0      	ldrsh	r0, [r0, r3]
}
 8005850:	4770      	bx	lr
 8005852:	46c0      	nop			; (mov r8, r8)

08005854 <STC_GetMaxAppPositiveMecSpeedUnit>:
  * @brief  Returns the Application maximum positive value of rotor speed. Expressed in the unit defined by #SPEED_UNIT.
  * @param  pHandle: handler of the current instance of the SpeednTorqCtrl component
  */
__weak uint16_t STC_GetMaxAppPositiveMecSpeedUnit( SpeednTorqCtrl_Handle_t * pHandle )
{
  return pHandle->MaxAppPositiveMecSpeedUnit;
 8005854:	8bc0      	ldrh	r0, [r0, #30]
}
 8005856:	4770      	bx	lr

08005858 <STC_GetMinAppNegativeMecSpeedUnit>:
  * @brief  Returns the Application minimum negative value of rotor speed. Expressed in the unit defined by #SPEED_UNIT.
  * @param  pHandle: handler of the current instance of the SpeednTorqCtrl component
  */
__weak int16_t STC_GetMinAppNegativeMecSpeedUnit( SpeednTorqCtrl_Handle_t * pHandle )
{
  return pHandle->MinAppNegativeMecSpeedUnit;
 8005858:	2324      	movs	r3, #36	; 0x24
 800585a:	5ec0      	ldrsh	r0, [r0, r3]
}
 800585c:	4770      	bx	lr
 800585e:	46c0      	nop			; (mov r8, r8)

08005860 <STC_GetDefaultIqdref>:
__weak qd_t STC_GetDefaultIqdref( SpeednTorqCtrl_Handle_t * pHandle )
{
  qd_t IqdRefDefault;
  IqdRefDefault.q = pHandle->TorqueRefDefault;
  IqdRefDefault.d = pHandle->IdrefDefault;
  return IqdRefDefault;
 8005860:	8e03      	ldrh	r3, [r0, #48]	; 0x30
 8005862:	8dc0      	ldrh	r0, [r0, #46]	; 0x2e
 8005864:	041b      	lsls	r3, r3, #16
{
 8005866:	b082      	sub	sp, #8
  return IqdRefDefault;
 8005868:	4318      	orrs	r0, r3
}
 800586a:	b002      	add	sp, #8
 800586c:	4770      	bx	lr
 800586e:	46c0      	nop			; (mov r8, r8)

08005870 <STC_ForceSpeedReferenceToCurrentSpeed>:
  *         at the START_RUN state to initialize the speed reference.
  * @param  pHandle: handler of the current instance of the SpeednTorqCtrl component
  * @retval none
  */
__weak void STC_ForceSpeedReferenceToCurrentSpeed( SpeednTorqCtrl_Handle_t * pHandle )
{
 8005870:	b510      	push	{r4, lr}
 8005872:	0004      	movs	r4, r0
  pHandle->SpeedRefUnitExt = ( int32_t )SPD_GetAvrgMecSpeedUnit( pHandle->SPD ) * ( int32_t )65536;
 8005874:	6940      	ldr	r0, [r0, #20]
 8005876:	f7ff fef3 	bl	8005660 <SPD_GetAvrgMecSpeedUnit>
 800587a:	0400      	lsls	r0, r0, #16
 800587c:	6060      	str	r0, [r4, #4]
}
 800587e:	bd10      	pop	{r4, pc}

08005880 <STM_Init>:
  * @retval none.
  */
__weak void STM_Init( STM_Handle_t * pHandle )
{

  pHandle->bState = IDLE;
 8005880:	2300      	movs	r3, #0
 8005882:	7003      	strb	r3, [r0, #0]
  pHandle->hFaultNow = MC_NO_FAULTS;
 8005884:	8043      	strh	r3, [r0, #2]
  pHandle->hFaultOccurred = MC_NO_FAULTS;
 8005886:	8083      	strh	r3, [r0, #4]
}
 8005888:	4770      	bx	lr
 800588a:	46c0      	nop			; (mov r8, r8)

0800588c <STM_FaultProcessing>:
  * @param hResetErrors Bit field reporting faults to be cleared
  * @retval State_t New state machine state after fault processing
  */
__weak State_t STM_FaultProcessing( STM_Handle_t * pHandle, uint16_t hSetErrors, uint16_t
                             hResetErrors )
{
 800588c:	0003      	movs	r3, r0
 800588e:	b510      	push	{r4, lr}
  State_t LocalState =  pHandle->bState;

  /* Set current errors */
  pHandle->hFaultNow = ( pHandle->hFaultNow | hSetErrors ) & ( ~hResetErrors );
 8005890:	885c      	ldrh	r4, [r3, #2]
  State_t LocalState =  pHandle->bState;
 8005892:	7800      	ldrb	r0, [r0, #0]
  pHandle->hFaultNow = ( pHandle->hFaultNow | hSetErrors ) & ( ~hResetErrors );
 8005894:	430c      	orrs	r4, r1
 8005896:	4394      	bics	r4, r2
 8005898:	0022      	movs	r2, r4
 800589a:	805c      	strh	r4, [r3, #2]
  pHandle->hFaultOccurred |= hSetErrors;
 800589c:	889c      	ldrh	r4, [r3, #4]
 800589e:	4321      	orrs	r1, r4
 80058a0:	8099      	strh	r1, [r3, #4]

  if ( LocalState == FAULT_NOW )
 80058a2:	280a      	cmp	r0, #10
 80058a4:	d006      	beq.n	80058b4 <STM_FaultProcessing+0x28>
      LocalState = FAULT_OVER;
    }
  }
  else
  {
    if ( pHandle->hFaultNow != MC_NO_FAULTS )
 80058a6:	2a00      	cmp	r2, #0
 80058a8:	d100      	bne.n	80058ac <STM_FaultProcessing+0x20>
      LocalState = FAULT_NOW;
    }
  }

  return ( LocalState );
}
 80058aa:	bd10      	pop	{r4, pc}
      pHandle->bState = FAULT_NOW;
 80058ac:	220a      	movs	r2, #10
      LocalState = FAULT_NOW;
 80058ae:	200a      	movs	r0, #10
      pHandle->bState = FAULT_NOW;
 80058b0:	701a      	strb	r2, [r3, #0]
      LocalState = FAULT_NOW;
 80058b2:	e7fa      	b.n	80058aa <STM_FaultProcessing+0x1e>
    if ( pHandle->hFaultNow == MC_NO_FAULTS )
 80058b4:	2a00      	cmp	r2, #0
 80058b6:	d1f8      	bne.n	80058aa <STM_FaultProcessing+0x1e>
      pHandle->bState = FAULT_OVER;
 80058b8:	320b      	adds	r2, #11
 80058ba:	701a      	strb	r2, [r3, #0]
      LocalState = FAULT_OVER;
 80058bc:	3001      	adds	r0, #1
 80058be:	e7f4      	b.n	80058aa <STM_FaultProcessing+0x1e>

080058c0 <STM_NextState>:
  switch ( bCurrentState )
 80058c0:	7803      	ldrb	r3, [r0, #0]
{
 80058c2:	b510      	push	{r4, lr}
  switch ( bCurrentState )
 80058c4:	2b14      	cmp	r3, #20
 80058c6:	d807      	bhi.n	80058d8 <STM_NextState+0x18>
 80058c8:	4a35      	ldr	r2, [pc, #212]	; (80059a0 <STM_NextState+0xe0>)
 80058ca:	009b      	lsls	r3, r3, #2
 80058cc:	58d3      	ldr	r3, [r2, r3]
 80058ce:	469f      	mov	pc, r3
      if ( ( bState == ALIGN_OFFSET_CALIB ) || ( bState == ANY_STOP ) )
 80058d0:	290e      	cmp	r1, #14
 80058d2:	d00e      	beq.n	80058f2 <STM_NextState+0x32>
      if ( bState == ANY_STOP )
 80058d4:	2907      	cmp	r1, #7
 80058d6:	d00c      	beq.n	80058f2 <STM_NextState+0x32>
      if ( ( bState == IDLE_START ) || ( bState == IDLE_ALIGNMENT )
 80058d8:	2302      	movs	r3, #2
 80058da:	000a      	movs	r2, r1
 80058dc:	439a      	bics	r2, r3
 80058de:	0013      	movs	r3, r2
    if ( !( ( bState == IDLE_START ) || ( bState == IDLE_ALIGNMENT )
 80058e0:	2b01      	cmp	r3, #1
 80058e2:	d009      	beq.n	80058f8 <STM_NextState+0x38>
 80058e4:	2400      	movs	r4, #0
 80058e6:	2907      	cmp	r1, #7
 80058e8:	d108      	bne.n	80058fc <STM_NextState+0x3c>
}
 80058ea:	0020      	movs	r0, r4
 80058ec:	bd10      	pop	{r4, pc}
      if ( bState == IDLE )
 80058ee:	2900      	cmp	r1, #0
 80058f0:	d1f2      	bne.n	80058d8 <STM_NextState+0x18>
    pHandle->bState = bNewState;
 80058f2:	2401      	movs	r4, #1
 80058f4:	7001      	strb	r1, [r0, #0]
 80058f6:	e7f8      	b.n	80058ea <STM_NextState+0x2a>
 80058f8:	2400      	movs	r4, #0
 80058fa:	e7f6      	b.n	80058ea <STM_NextState+0x2a>
      STM_FaultProcessing( pHandle, MC_SW_ERROR, 0u );
 80058fc:	2200      	movs	r2, #0
 80058fe:	2180      	movs	r1, #128	; 0x80
 8005900:	f7ff ffc4 	bl	800588c <STM_FaultProcessing>
 8005904:	e7f1      	b.n	80058ea <STM_NextState+0x2a>
      if ( ( bState == ANY_STOP ) || ( bState == ALIGN_CHARGE_BOOT_CAP )
 8005906:	2907      	cmp	r1, #7
 8005908:	d0f3      	beq.n	80058f2 <STM_NextState+0x32>
 800590a:	000b      	movs	r3, r1
 800590c:	3b0d      	subs	r3, #13
 800590e:	2b01      	cmp	r3, #1
 8005910:	d8e2      	bhi.n	80058d8 <STM_NextState+0x18>
 8005912:	e7ee      	b.n	80058f2 <STM_NextState+0x32>
      if ( ( bState == SWITCH_OVER ) || ( bState == ANY_STOP ) || (bState == START_RUN) )
 8005914:	2913      	cmp	r1, #19
 8005916:	d0ec      	beq.n	80058f2 <STM_NextState+0x32>
 8005918:	2302      	movs	r3, #2
 800591a:	000a      	movs	r2, r1
 800591c:	439a      	bics	r2, r3
 800591e:	0013      	movs	r3, r2
 8005920:	2a05      	cmp	r2, #5
 8005922:	d1dd      	bne.n	80058e0 <STM_NextState+0x20>
 8005924:	e7e5      	b.n	80058f2 <STM_NextState+0x32>
      if ( ( bState == ANY_STOP ) || ( bState == CHARGE_BOOT_CAP ) ||
 8005926:	2907      	cmp	r1, #7
 8005928:	d0e3      	beq.n	80058f2 <STM_NextState+0x32>
 800592a:	2911      	cmp	r1, #17
 800592c:	d8d4      	bhi.n	80058d8 <STM_NextState+0x18>
 800592e:	4b1d      	ldr	r3, [pc, #116]	; (80059a4 <STM_NextState+0xe4>)
 8005930:	40cb      	lsrs	r3, r1
 8005932:	07db      	lsls	r3, r3, #31
 8005934:	d5d0      	bpl.n	80058d8 <STM_NextState+0x18>
 8005936:	e7dc      	b.n	80058f2 <STM_NextState+0x32>
      if ( ( bState == CLEAR ) || ( bState == ANY_STOP ) || ( bState == WAIT_STOP_MOTOR ) )
 8005938:	000b      	movs	r3, r1
 800593a:	22fd      	movs	r2, #253	; 0xfd
 800593c:	3b12      	subs	r3, #18
 800593e:	4213      	tst	r3, r2
 8005940:	d1c8      	bne.n	80058d4 <STM_NextState+0x14>
 8005942:	e7d6      	b.n	80058f2 <STM_NextState+0x32>
      if ( ( bState == OFFSET_CALIB ) || ( bState == ANY_STOP ) )
 8005944:	2911      	cmp	r1, #17
 8005946:	d1c5      	bne.n	80058d4 <STM_NextState+0x14>
 8005948:	e7d3      	b.n	80058f2 <STM_NextState+0x32>
      if ( ( bState == ALIGNMENT ) || ( bState == ANY_STOP ) )
 800594a:	2902      	cmp	r1, #2
 800594c:	d1c2      	bne.n	80058d4 <STM_NextState+0x14>
 800594e:	e7d0      	b.n	80058f2 <STM_NextState+0x32>
      if ( ( bState == START ) || ( bState == ANY_STOP ) || (bState == START_RUN) )
 8005950:	1f0b      	subs	r3, r1, #4
 8005952:	2b01      	cmp	r3, #1
 8005954:	d8be      	bhi.n	80058d4 <STM_NextState+0x14>
 8005956:	e7cc      	b.n	80058f2 <STM_NextState+0x32>
      if ( ( bState == START ) || ( bState == ANY_STOP ) )
 8005958:	2904      	cmp	r1, #4
 800595a:	d1bb      	bne.n	80058d4 <STM_NextState+0x14>
 800595c:	e7c9      	b.n	80058f2 <STM_NextState+0x32>
      if ( ( bState == CLEAR ) || ( bState == ANY_STOP ) )
 800595e:	2912      	cmp	r1, #18
 8005960:	d1b8      	bne.n	80058d4 <STM_NextState+0x14>
 8005962:	e7c6      	b.n	80058f2 <STM_NextState+0x32>
      if ( ( bState == IDLE ) || ( bState == ICLWAIT ) )
 8005964:	2900      	cmp	r1, #0
 8005966:	d0c4      	beq.n	80058f2 <STM_NextState+0x32>
 8005968:	290c      	cmp	r1, #12
 800596a:	d1b5      	bne.n	80058d8 <STM_NextState+0x18>
 800596c:	e7c1      	b.n	80058f2 <STM_NextState+0x32>
      if ( bState == STOP_IDLE )
 800596e:	2909      	cmp	r1, #9
 8005970:	d1b2      	bne.n	80058d8 <STM_NextState+0x18>
 8005972:	e7be      	b.n	80058f2 <STM_NextState+0x32>
      if ( bState == STOP )
 8005974:	2908      	cmp	r1, #8
 8005976:	d1af      	bne.n	80058d8 <STM_NextState+0x18>
 8005978:	e7bb      	b.n	80058f2 <STM_NextState+0x32>
      if ( ( bState == RUN ) || ( bState == ANY_STOP ) )
 800597a:	1f8b      	subs	r3, r1, #6
 800597c:	2b01      	cmp	r3, #1
 800597e:	d8ab      	bhi.n	80058d8 <STM_NextState+0x18>
 8005980:	e7b7      	b.n	80058f2 <STM_NextState+0x32>
      if ( ( bState == IDLE_START ) || ( bState == IDLE_ALIGNMENT )
 8005982:	2302      	movs	r3, #2
 8005984:	000a      	movs	r2, r1
 8005986:	439a      	bics	r2, r3
 8005988:	2a01      	cmp	r2, #1
 800598a:	d0b2      	beq.n	80058f2 <STM_NextState+0x32>
           || ( bState == ICLWAIT ) )
 800598c:	290c      	cmp	r1, #12
 800598e:	d1a9      	bne.n	80058e4 <STM_NextState+0x24>
 8005990:	e7af      	b.n	80058f2 <STM_NextState+0x32>
      if ( ( bState == ALIGN_CLEAR ) || ( bState == ANY_STOP ) )
 8005992:	2308      	movs	r3, #8
 8005994:	000a      	movs	r2, r1
 8005996:	439a      	bics	r2, r3
 8005998:	2a07      	cmp	r2, #7
 800599a:	d19d      	bne.n	80058d8 <STM_NextState+0x18>
 800599c:	e7a9      	b.n	80058f2 <STM_NextState+0x32>
 800599e:	46c0      	nop			; (mov r8, r8)
 80059a0:	08006868 	.word	0x08006868
 80059a4:	00030012 	.word	0x00030012

080059a8 <STM_GetState>:
  * @param  pHanlde pointer of type  STM_Handle_t
  * @retval State_t Current state machine state
  */
__weak State_t STM_GetState( STM_Handle_t * pHandle )
{
  return ( pHandle->bState );
 80059a8:	7800      	ldrb	r0, [r0, #0]
}
 80059aa:	4770      	bx	lr

080059ac <STM_FaultAcknowledged>:
  */
__weak bool STM_FaultAcknowledged( STM_Handle_t * pHandle )
{
  bool bToBeReturned = false;

  if ( pHandle->bState == FAULT_OVER )
 80059ac:	7802      	ldrb	r2, [r0, #0]
{
 80059ae:	0003      	movs	r3, r0
  bool bToBeReturned = false;
 80059b0:	2000      	movs	r0, #0
  if ( pHandle->bState == FAULT_OVER )
 80059b2:	2a0b      	cmp	r2, #11
 80059b4:	d103      	bne.n	80059be <STM_FaultAcknowledged+0x12>
  {
    pHandle->bState = STOP_IDLE;
 80059b6:	3a02      	subs	r2, #2
    pHandle->hFaultOccurred = MC_NO_FAULTS;
 80059b8:	8098      	strh	r0, [r3, #4]
    pHandle->bState = STOP_IDLE;
 80059ba:	701a      	strb	r2, [r3, #0]
    bToBeReturned = true;
 80059bc:	3001      	adds	r0, #1
  }

  return ( bToBeReturned );
}
 80059be:	4770      	bx	lr

080059c0 <STM_GetFaultState>:
  */
__weak uint32_t STM_GetFaultState( STM_Handle_t * pHandle )
{
  uint32_t LocalFaultState;

  LocalFaultState = ( uint32_t )( pHandle->hFaultOccurred );
 80059c0:	8883      	ldrh	r3, [r0, #4]
  LocalFaultState |= ( uint32_t )( pHandle->hFaultNow ) << 16;
 80059c2:	8840      	ldrh	r0, [r0, #2]
 80059c4:	0400      	lsls	r0, r0, #16
 80059c6:	4318      	orrs	r0, r3

  return LocalFaultState;
}
 80059c8:	4770      	bx	lr
 80059ca:	46c0      	nop			; (mov r8, r8)

080059cc <UFCP_Init>:
static const uint16_t UFCP_Usart_Timeout_stop = 2;

/* Functions ---------------------------------------------------------*/

__weak void UFCP_Init( UFCP_Handle_t * pHandle )
{
 80059cc:	b510      	push	{r4, lr}

  /* Initialize generic component part */
  FCP_Init( & pHandle->_Super );
 80059ce:	f7fe fb9f 	bl	8004110 <FCP_Init>
}
 80059d2:	bd10      	pop	{r4, pc}

080059d4 <UFCP_TX_IRQ_Handler>:
 */
__weak void UFCP_TX_IRQ_Handler( UFCP_Handle_t * pHandle )
{
  FCP_Handle_t * pBaseHandle = & pHandle->_Super;

  if ( FCP_TRANSFER_IDLE != pBaseHandle->TxFrameState )
 80059d4:	2197      	movs	r1, #151	; 0x97
{
 80059d6:	b510      	push	{r4, lr}
  if ( FCP_TRANSFER_IDLE != pBaseHandle->TxFrameState )
 80059d8:	5c42      	ldrb	r2, [r0, r1]
{
 80059da:	0003      	movs	r3, r0
  if ( FCP_TRANSFER_IDLE != pBaseHandle->TxFrameState )
 80059dc:	2a00      	cmp	r2, #0
 80059de:	d018      	beq.n	8005a12 <UFCP_TX_IRQ_Handler+0x3e>
  {
    uint16_t tx_data;

    switch ( pBaseHandle->TxFrameLevel )
 80059e0:	2298      	movs	r2, #152	; 0x98
 80059e2:	5c82      	ldrb	r2, [r0, r2]
 80059e4:	2a00      	cmp	r2, #0
 80059e6:	d00c      	beq.n	8005a02 <UFCP_TX_IRQ_Handler+0x2e>
 80059e8:	2a01      	cmp	r2, #1
 80059ea:	d028      	beq.n	8005a3e <UFCP_TX_IRQ_Handler+0x6a>
      case 1:
        tx_data = (uint16_t) pBaseHandle->TxFrame.Size;
        break;

      default:
        if ( pBaseHandle->TxFrameLevel < pBaseHandle->TxFrame.Size + FCP_HEADER_SIZE )
 80059ec:	7d40      	ldrb	r0, [r0, #21]
 80059ee:	3001      	adds	r0, #1
 80059f0:	4282      	cmp	r2, r0
 80059f2:	dc0f      	bgt.n	8005a14 <UFCP_TX_IRQ_Handler+0x40>
        {
          tx_data = (uint16_t) pBaseHandle->TxFrame.Buffer[ pBaseHandle->TxFrameLevel - FCP_HEADER_SIZE ];
 80059f4:	1899      	adds	r1, r3, r2
 80059f6:	7d08      	ldrb	r0, [r1, #20]
          tx_data = (uint16_t) pBaseHandle->TxFrame.FrameCRC;
        }
    } /* end of switch ( pBaseHandle->TxFrameLevel ) */

    /* Send the data byte */
    LL_USART_TransmitData8(pHandle->USARTx, tx_data);
 80059f8:	2190      	movs	r1, #144	; 0x90
 80059fa:	0049      	lsls	r1, r1, #1
 80059fc:	5859      	ldr	r1, [r3, r1]
  * @param  Value between Min_Data=0x00 and Max_Data=0xFF
  * @retval None
  */
__STATIC_INLINE void LL_USART_TransmitData8(USART_TypeDef *USARTx, uint8_t Value)
{
  USARTx->TDR = Value;
 80059fe:	8508      	strh	r0, [r1, #40]	; 0x28

    if ( pBaseHandle->TxFrameLevel < pBaseHandle->TxFrame.Size + FCP_HEADER_SIZE )
 8005a00:	e004      	b.n	8005a0c <UFCP_TX_IRQ_Handler+0x38>
        tx_data = (uint16_t) pBaseHandle->TxFrame.Code;
 8005a02:	7d01      	ldrb	r1, [r0, #20]
    LL_USART_TransmitData8(pHandle->USARTx, tx_data);
 8005a04:	2090      	movs	r0, #144	; 0x90
 8005a06:	0040      	lsls	r0, r0, #1
 8005a08:	5818      	ldr	r0, [r3, r0]
 8005a0a:	8501      	strh	r1, [r0, #40]	; 0x28
    {
      pBaseHandle->TxFrameLevel++;
 8005a0c:	2198      	movs	r1, #152	; 0x98
 8005a0e:	3201      	adds	r2, #1
 8005a10:	545a      	strb	r2, [r3, r1]

      pBaseHandle->ClientFrameSentCallback( pBaseHandle->ClientEntity );
    }

  } /* end of if ( FCP_TRANSFER_IDLE != pBaseHandle->TxFrameState ) */
}
 8005a12:	bd10      	pop	{r4, pc}
          tx_data = (uint16_t) pBaseHandle->TxFrame.FrameCRC;
 8005a14:	2296      	movs	r2, #150	; 0x96
 8005a16:	5c98      	ldrb	r0, [r3, r2]
    LL_USART_TransmitData8(pHandle->USARTx, tx_data);
 8005a18:	328a      	adds	r2, #138	; 0x8a
 8005a1a:	589a      	ldr	r2, [r3, r2]
 8005a1c:	8510      	strh	r0, [r2, #40]	; 0x28
  __ASM volatile ("MRS %0, primask" : "=r" (result) :: "memory");
 8005a1e:	f3ef 8c10 	mrs	ip, PRIMASK
  __ASM volatile ("MSR primask, %0" : : "r" (priMask) : "memory");
 8005a22:	2001      	movs	r0, #1
 8005a24:	f380 8810 	msr	PRIMASK, r0
  ATOMIC_CLEAR_BIT(USARTx->CR1, USART_CR1_TXEIE);
 8005a28:	2480      	movs	r4, #128	; 0x80
 8005a2a:	6810      	ldr	r0, [r2, #0]
 8005a2c:	43a0      	bics	r0, r4
 8005a2e:	6010      	str	r0, [r2, #0]
 8005a30:	f38c 8810 	msr	PRIMASK, ip
      pBaseHandle->TxFrameState = FCP_TRANSFER_IDLE;
 8005a34:	2200      	movs	r2, #0
 8005a36:	545a      	strb	r2, [r3, r1]
      pBaseHandle->ClientFrameSentCallback( pBaseHandle->ClientEntity );
 8005a38:	cb09      	ldmia	r3, {r0, r3}
 8005a3a:	4798      	blx	r3
 8005a3c:	e7e9      	b.n	8005a12 <UFCP_TX_IRQ_Handler+0x3e>
        tx_data = (uint16_t) pBaseHandle->TxFrame.Size;
 8005a3e:	7d41      	ldrb	r1, [r0, #21]
        break;
 8005a40:	e7e0      	b.n	8005a04 <UFCP_TX_IRQ_Handler+0x30>
 8005a42:	46c0      	nop			; (mov r8, r8)

08005a44 <UFCP_Receive>:

__weak uint8_t UFCP_Receive( FCP_Handle_t * pHandle )
{
  uint8_t ret_val;

  if ( FCP_TRANSFER_IDLE == pHandle->RxFrameState )
 8005a44:	228e      	movs	r2, #142	; 0x8e
 8005a46:	0052      	lsls	r2, r2, #1
 8005a48:	5c81      	ldrb	r1, [r0, r2]
{
 8005a4a:	0003      	movs	r3, r0
    LL_USART_EnableIT_RXNE(pActualHandle->USARTx);
    ret_val = FCP_STATUS_WAITING_TRANSFER;
  }
  else
  {
    ret_val = FCP_STATUS_TRANSFER_ONGOING;
 8005a4c:	2001      	movs	r0, #1
  if ( FCP_TRANSFER_IDLE == pHandle->RxFrameState )
 8005a4e:	2900      	cmp	r1, #0
 8005a50:	d10d      	bne.n	8005a6e <UFCP_Receive+0x2a>
    pHandle->RxFrameState = FCP_TRANSFER_ONGOING;
 8005a52:	5298      	strh	r0, [r3, r2]
    LL_USART_EnableIT_RXNE(pActualHandle->USARTx);
 8005a54:	3204      	adds	r2, #4
 8005a56:	589a      	ldr	r2, [r3, r2]
  __ASM volatile ("MRS %0, primask" : "=r" (result) :: "memory");
 8005a58:	f3ef 8110 	mrs	r1, PRIMASK
  __ASM volatile ("MSR primask, %0" : : "r" (priMask) : "memory");
 8005a5c:	f380 8810 	msr	PRIMASK, r0
  ATOMIC_SET_BIT(USARTx->CR1, USART_CR1_RXNEIE);
 8005a60:	6813      	ldr	r3, [r2, #0]
 8005a62:	301f      	adds	r0, #31
 8005a64:	4303      	orrs	r3, r0
 8005a66:	6013      	str	r3, [r2, #0]
 8005a68:	f381 8810 	msr	PRIMASK, r1
    ret_val = FCP_STATUS_WAITING_TRANSFER;
 8005a6c:	381e      	subs	r0, #30
  }

  return ret_val;
}
 8005a6e:	4770      	bx	lr

08005a70 <UFCP_Send>:

__weak uint8_t UFCP_Send( FCP_Handle_t * pHandle, uint8_t code, uint8_t *buffer, uint8_t size)
{
 8005a70:	b5f8      	push	{r3, r4, r5, r6, r7, lr}
 8005a72:	0005      	movs	r5, r0
  uint8_t ret_val;

  if ( FCP_TRANSFER_IDLE == pHandle->TxFrameState )
 8005a74:	2097      	movs	r0, #151	; 0x97
 8005a76:	5c2c      	ldrb	r4, [r5, r0]
    LL_USART_EnableIT_TXE(pActualHandle->USARTx);
    ret_val = FCP_STATUS_WAITING_TRANSFER;
  }
  else
  {
    ret_val = FCP_STATUS_TRANSFER_ONGOING;
 8005a78:	3896      	subs	r0, #150	; 0x96
  if ( FCP_TRANSFER_IDLE == pHandle->TxFrameState )
 8005a7a:	2c00      	cmp	r4, #0
 8005a7c:	d000      	beq.n	8005a80 <UFCP_Send+0x10>
  }

  return ret_val;
}
 8005a7e:	bdf8      	pop	{r3, r4, r5, r6, r7, pc}
    uint8_t *dest = pHandle->TxFrame.Buffer;
 8005a80:	0028      	movs	r0, r5
    while ( size-- ) *dest++ = *buffer++;
 8005a82:	1e5f      	subs	r7, r3, #1
    uint8_t *dest = pHandle->TxFrame.Buffer;
 8005a84:	3016      	adds	r0, #22
    pHandle->TxFrame.Code = code;
 8005a86:	7529      	strb	r1, [r5, #20]
    pHandle->TxFrame.Size = size;
 8005a88:	756b      	strb	r3, [r5, #21]
    while ( size-- ) *dest++ = *buffer++;
 8005a8a:	b2ff      	uxtb	r7, r7
 8005a8c:	2b00      	cmp	r3, #0
 8005a8e:	d02c      	beq.n	8005aea <UFCP_Send+0x7a>
 8005a90:	2102      	movs	r1, #2
 8005a92:	1c56      	adds	r6, r2, #1
 8005a94:	1b86      	subs	r6, r0, r6
 8005a96:	42b1      	cmp	r1, r6
 8005a98:	4189      	sbcs	r1, r1
 8005a9a:	2606      	movs	r6, #6
 8005a9c:	42be      	cmp	r6, r7
 8005a9e:	41b6      	sbcs	r6, r6
 8005aa0:	4249      	negs	r1, r1
 8005aa2:	4276      	negs	r6, r6
 8005aa4:	420e      	tst	r6, r1
 8005aa6:	d03a      	beq.n	8005b1e <UFCP_Send+0xae>
 8005aa8:	0011      	movs	r1, r2
 8005aaa:	4301      	orrs	r1, r0
 8005aac:	0789      	lsls	r1, r1, #30
 8005aae:	d136      	bne.n	8005b1e <UFCP_Send+0xae>
 8005ab0:	0899      	lsrs	r1, r3, #2
 8005ab2:	468c      	mov	ip, r1
 8005ab4:	2100      	movs	r1, #0
 8005ab6:	5856      	ldr	r6, [r2, r1]
 8005ab8:	3401      	adds	r4, #1
 8005aba:	b2e4      	uxtb	r4, r4
 8005abc:	5046      	str	r6, [r0, r1]
 8005abe:	3104      	adds	r1, #4
 8005ac0:	45a4      	cmp	ip, r4
 8005ac2:	d1f8      	bne.n	8005ab6 <UFCP_Send+0x46>
 8005ac4:	2103      	movs	r1, #3
 8005ac6:	001c      	movs	r4, r3
 8005ac8:	438c      	bics	r4, r1
 8005aca:	1b3f      	subs	r7, r7, r4
 8005acc:	1912      	adds	r2, r2, r4
 8005ace:	1900      	adds	r0, r0, r4
 8005ad0:	b2ff      	uxtb	r7, r7
 8005ad2:	42a3      	cmp	r3, r4
 8005ad4:	d009      	beq.n	8005aea <UFCP_Send+0x7a>
 8005ad6:	7813      	ldrb	r3, [r2, #0]
 8005ad8:	7003      	strb	r3, [r0, #0]
 8005ada:	2f00      	cmp	r7, #0
 8005adc:	d005      	beq.n	8005aea <UFCP_Send+0x7a>
 8005ade:	7853      	ldrb	r3, [r2, #1]
 8005ae0:	7043      	strb	r3, [r0, #1]
 8005ae2:	2f01      	cmp	r7, #1
 8005ae4:	d001      	beq.n	8005aea <UFCP_Send+0x7a>
 8005ae6:	7893      	ldrb	r3, [r2, #2]
 8005ae8:	7083      	strb	r3, [r0, #2]
    pHandle->TxFrame.FrameCRC = FCP_CalcCRC( & pHandle->TxFrame );
 8005aea:	0028      	movs	r0, r5
 8005aec:	3014      	adds	r0, #20
 8005aee:	f7fe fb29 	bl	8004144 <FCP_CalcCRC>
 8005af2:	2396      	movs	r3, #150	; 0x96
    pHandle->TxFrameLevel = 0;
 8005af4:	2200      	movs	r2, #0
    pHandle->TxFrame.FrameCRC = FCP_CalcCRC( & pHandle->TxFrame );
 8005af6:	54e8      	strb	r0, [r5, r3]
    pHandle->TxFrameLevel = 0;
 8005af8:	3302      	adds	r3, #2
 8005afa:	54ea      	strb	r2, [r5, r3]
    pHandle->TxFrameState = FCP_TRANSFER_ONGOING;
 8005afc:	3b97      	subs	r3, #151	; 0x97
 8005afe:	3297      	adds	r2, #151	; 0x97
 8005b00:	54ab      	strb	r3, [r5, r2]
    LL_USART_EnableIT_TXE(pActualHandle->USARTx);
 8005b02:	3289      	adds	r2, #137	; 0x89
 8005b04:	58aa      	ldr	r2, [r5, r2]
  __ASM volatile ("MRS %0, primask" : "=r" (result) :: "memory");
 8005b06:	f3ef 8110 	mrs	r1, PRIMASK
  __ASM volatile ("MSR primask, %0" : : "r" (priMask) : "memory");
 8005b0a:	f383 8810 	msr	PRIMASK, r3
  ATOMIC_SET_BIT(USARTx->CR1, USART_CR1_TXEIE);
 8005b0e:	2080      	movs	r0, #128	; 0x80
 8005b10:	6813      	ldr	r3, [r2, #0]
 8005b12:	4303      	orrs	r3, r0
 8005b14:	6013      	str	r3, [r2, #0]
 8005b16:	f381 8810 	msr	PRIMASK, r1
 8005b1a:	387e      	subs	r0, #126	; 0x7e
 8005b1c:	e7af      	b.n	8005a7e <UFCP_Send+0xe>
    while ( size-- ) *dest++ = *buffer++;
 8005b1e:	2100      	movs	r1, #0
 8005b20:	5c54      	ldrb	r4, [r2, r1]
 8005b22:	5444      	strb	r4, [r0, r1]
 8005b24:	3101      	adds	r1, #1
 8005b26:	b2cc      	uxtb	r4, r1
 8005b28:	42a3      	cmp	r3, r4
 8005b2a:	d1f9      	bne.n	8005b20 <UFCP_Send+0xb0>
 8005b2c:	e7dd      	b.n	8005aea <UFCP_Send+0x7a>
 8005b2e:	46c0      	nop			; (mov r8, r8)

08005b30 <UFCP_RX_IRQ_Handler>:
  if ( FCP_TRANSFER_IDLE != pBaseHandle->RxFrameState )
 8005b30:	228e      	movs	r2, #142	; 0x8e
{
 8005b32:	b5f0      	push	{r4, r5, r6, r7, lr}
  if ( FCP_TRANSFER_IDLE != pBaseHandle->RxFrameState )
 8005b34:	0052      	lsls	r2, r2, #1
 8005b36:	5c83      	ldrb	r3, [r0, r2]
{
 8005b38:	0004      	movs	r4, r0
 8005b3a:	b083      	sub	sp, #12
  if ( FCP_TRANSFER_IDLE != pBaseHandle->RxFrameState )
 8005b3c:	2b00      	cmp	r3, #0
 8005b3e:	d011      	beq.n	8005b64 <UFCP_RX_IRQ_Handler+0x34>
    switch ( pBaseHandle->RxFrameLevel )
 8005b40:	201e      	movs	r0, #30
 8005b42:	30ff      	adds	r0, #255	; 0xff
 8005b44:	5c23      	ldrb	r3, [r4, r0]
    uint8_t rx_byte = (uint8_t) rx_data;
 8005b46:	b2cd      	uxtb	r5, r1
    switch ( pBaseHandle->RxFrameLevel )
 8005b48:	2b00      	cmp	r3, #0
 8005b4a:	d00e      	beq.n	8005b6a <UFCP_RX_IRQ_Handler+0x3a>
 8005b4c:	2b01      	cmp	r3, #1
 8005b4e:	d03b      	beq.n	8005bc8 <UFCP_RX_IRQ_Handler+0x98>
        if ( pBaseHandle->RxFrameLevel < pBaseHandle->RxFrame.Size + FCP_HEADER_SIZE )
 8005b50:	269a      	movs	r6, #154	; 0x9a
 8005b52:	5da1      	ldrb	r1, [r4, r6]
 8005b54:	3101      	adds	r1, #1
 8005b56:	428b      	cmp	r3, r1
 8005b58:	dc0f      	bgt.n	8005b7a <UFCP_RX_IRQ_Handler+0x4a>
          pBaseHandle->RxFrame.Buffer[pBaseHandle->RxFrameLevel - FCP_HEADER_SIZE] = rx_byte;
 8005b5a:	18e2      	adds	r2, r4, r3
 8005b5c:	3299      	adds	r2, #153	; 0x99
          pBaseHandle->RxFrameLevel++;
 8005b5e:	3301      	adds	r3, #1
          pBaseHandle->RxFrame.Buffer[pBaseHandle->RxFrameLevel - FCP_HEADER_SIZE] = rx_byte;
 8005b60:	7015      	strb	r5, [r2, #0]
          pBaseHandle->RxFrameLevel++;
 8005b62:	5423      	strb	r3, [r4, r0]
  void * ret_val = (void *) & UFCP_Usart_Timeout_none;
 8005b64:	4823      	ldr	r0, [pc, #140]	; (8005bf4 <UFCP_RX_IRQ_Handler+0xc4>)
}
 8005b66:	b003      	add	sp, #12
 8005b68:	bdf0      	pop	{r4, r5, r6, r7, pc}
        pBaseHandle->RxFrame.Code = rx_byte;
 8005b6a:	2399      	movs	r3, #153	; 0x99
 8005b6c:	54e5      	strb	r5, [r4, r3]
        pBaseHandle->RxTimeoutCountdown = pBaseHandle->RxTimeout;
 8005b6e:	8a23      	ldrh	r3, [r4, #16]
 8005b70:	8263      	strh	r3, [r4, #18]
        pBaseHandle->RxFrameLevel++;
 8005b72:	2301      	movs	r3, #1
 8005b74:	5423      	strb	r3, [r4, r0]
        ret_val = (void *) & UFCP_Usart_Timeout_start;
 8005b76:	4820      	ldr	r0, [pc, #128]	; (8005bf8 <UFCP_RX_IRQ_Handler+0xc8>)
        break;
 8005b78:	e7f5      	b.n	8005b66 <UFCP_RX_IRQ_Handler+0x36>
          pBaseHandle->RxFrame.FrameCRC = rx_byte;
 8005b7a:	271c      	movs	r7, #28
          pBaseHandle->RxTimeoutCountdown = 0;
 8005b7c:	2300      	movs	r3, #0
          pBaseHandle->RxFrame.FrameCRC = rx_byte;
 8005b7e:	37ff      	adds	r7, #255	; 0xff
 8005b80:	55e5      	strb	r5, [r4, r7]
          pBaseHandle->RxTimeoutCountdown = 0;
 8005b82:	8263      	strh	r3, [r4, #18]
          LL_USART_DisableIT_RXNE(pHandle->USARTx);
 8005b84:	3321      	adds	r3, #33	; 0x21
 8005b86:	33ff      	adds	r3, #255	; 0xff
 8005b88:	58e1      	ldr	r1, [r4, r3]
  __ASM volatile ("MRS %0, primask" : "=r" (result) :: "memory");
 8005b8a:	f3ef 8010 	mrs	r0, PRIMASK
  __ASM volatile ("MSR primask, %0" : : "r" (priMask) : "memory");
 8005b8e:	3b20      	subs	r3, #32
 8005b90:	3bff      	subs	r3, #255	; 0xff
 8005b92:	f383 8810 	msr	PRIMASK, r3
  ATOMIC_CLEAR_BIT(USARTx->CR1, USART_CR1_RXNEIE);
 8005b96:	2520      	movs	r5, #32
 8005b98:	680b      	ldr	r3, [r1, #0]
 8005b9a:	43ab      	bics	r3, r5
 8005b9c:	600b      	str	r3, [r1, #0]
 8005b9e:	f380 8810 	msr	PRIMASK, r0
          pBaseHandle->RxFrameState = FCP_TRANSFER_IDLE;
 8005ba2:	2300      	movs	r3, #0
          if ( FCP_CalcCRC( & pBaseHandle->RxFrame ) == pBaseHandle->RxFrame.FrameCRC )
 8005ba4:	0020      	movs	r0, r4
          pBaseHandle->RxFrameState = FCP_TRANSFER_IDLE;
 8005ba6:	54a3      	strb	r3, [r4, r2]
          if ( FCP_CalcCRC( & pBaseHandle->RxFrame ) == pBaseHandle->RxFrame.FrameCRC )
 8005ba8:	3099      	adds	r0, #153	; 0x99
 8005baa:	f7fe facb 	bl	8004144 <FCP_CalcCRC>
 8005bae:	5de3      	ldrb	r3, [r4, r7]
 8005bb0:	4283      	cmp	r3, r0
 8005bb2:	d114      	bne.n	8005bde <UFCP_RX_IRQ_Handler+0xae>
                                                      pBaseHandle->RxFrame.Buffer,
 8005bb4:	0022      	movs	r2, r4
            pBaseHandle->ClientFrameReceivedCallback( pBaseHandle->ClientEntity,
 8005bb6:	2199      	movs	r1, #153	; 0x99
 8005bb8:	6820      	ldr	r0, [r4, #0]
 8005bba:	5da3      	ldrb	r3, [r4, r6]
 8005bbc:	5c61      	ldrb	r1, [r4, r1]
                                                      pBaseHandle->RxFrame.Buffer,
 8005bbe:	329b      	adds	r2, #155	; 0x9b
            pBaseHandle->ClientFrameReceivedCallback( pBaseHandle->ClientEntity,
 8005bc0:	68a4      	ldr	r4, [r4, #8]
 8005bc2:	47a0      	blx	r4
          ret_val = (void *) & UFCP_Usart_Timeout_stop;
 8005bc4:	480d      	ldr	r0, [pc, #52]	; (8005bfc <UFCP_RX_IRQ_Handler+0xcc>)
 8005bc6:	e7ce      	b.n	8005b66 <UFCP_RX_IRQ_Handler+0x36>
        pBaseHandle->RxFrame.Size = rx_byte;
 8005bc8:	239a      	movs	r3, #154	; 0x9a
 8005bca:	54e5      	strb	r5, [r4, r3]
        if ( pBaseHandle->RxFrame.Size >= FCP_MAX_PAYLOAD_SIZE)
 8005bcc:	0609      	lsls	r1, r1, #24
 8005bce:	d402      	bmi.n	8005bd6 <UFCP_RX_IRQ_Handler+0xa6>
        pBaseHandle->RxFrameLevel++;
 8005bd0:	3b98      	subs	r3, #152	; 0x98
 8005bd2:	5423      	strb	r3, [r4, r0]
 8005bd4:	e7c6      	b.n	8005b64 <UFCP_RX_IRQ_Handler+0x34>
          pBaseHandle->RxFrameLevel =0 ;
 8005bd6:	2300      	movs	r3, #0
 8005bd8:	5423      	strb	r3, [r4, r0]
  void * ret_val = (void *) & UFCP_Usart_Timeout_none;
 8005bda:	4806      	ldr	r0, [pc, #24]	; (8005bf4 <UFCP_RX_IRQ_Handler+0xc4>)
 8005bdc:	e7c3      	b.n	8005b66 <UFCP_RX_IRQ_Handler+0x36>
            error_code = FCP_MSG_RX_BAD_CRC;
 8005bde:	466b      	mov	r3, sp
 8005be0:	1dda      	adds	r2, r3, #7
 8005be2:	230a      	movs	r3, #10
            (void) UFCP_Send( pBaseHandle, FCP_CODE_NACK, & error_code, 1 );
 8005be4:	21ff      	movs	r1, #255	; 0xff
            error_code = FCP_MSG_RX_BAD_CRC;
 8005be6:	7013      	strb	r3, [r2, #0]
            (void) UFCP_Send( pBaseHandle, FCP_CODE_NACK, & error_code, 1 );
 8005be8:	0020      	movs	r0, r4
 8005bea:	3b09      	subs	r3, #9
 8005bec:	f7ff ff40 	bl	8005a70 <UFCP_Send>
          ret_val = (void *) & UFCP_Usart_Timeout_stop;
 8005bf0:	4802      	ldr	r0, [pc, #8]	; (8005bfc <UFCP_RX_IRQ_Handler+0xcc>)
  return ret_val;
 8005bf2:	e7b8      	b.n	8005b66 <UFCP_RX_IRQ_Handler+0x36>
 8005bf4:	080068bc 	.word	0x080068bc
 8005bf8:	080068be 	.word	0x080068be
 8005bfc:	080068c0 	.word	0x080068c0

08005c00 <UFCP_OVR_IRQ_Handler>:
{
 8005c00:	b500      	push	{lr}
 8005c02:	b083      	sub	sp, #12
  error_code = UFCP_MSG_OVERRUN;
 8005c04:	466b      	mov	r3, sp
 8005c06:	1dda      	adds	r2, r3, #7
 8005c08:	2308      	movs	r3, #8
  (void) UFCP_Send( pBaseHandle, FCP_CODE_NACK, & error_code, 1 );
 8005c0a:	21ff      	movs	r1, #255	; 0xff
  error_code = UFCP_MSG_OVERRUN;
 8005c0c:	7013      	strb	r3, [r2, #0]
  (void) UFCP_Send( pBaseHandle, FCP_CODE_NACK, & error_code, 1 );
 8005c0e:	3b07      	subs	r3, #7
 8005c10:	f7ff ff2e 	bl	8005a70 <UFCP_Send>
}
 8005c14:	b003      	add	sp, #12
 8005c16:	bd00      	pop	{pc}

08005c18 <UFCP_AbortReceive>:

__weak void UFCP_AbortReceive( FCP_Handle_t * pHandle )
{
  pHandle->RxFrameState = FCP_TRANSFER_IDLE;
 8005c18:	238e      	movs	r3, #142	; 0x8e
 8005c1a:	2200      	movs	r2, #0
 8005c1c:	005b      	lsls	r3, r3, #1
 8005c1e:	54c2      	strb	r2, [r0, r3]
}
 8005c20:	4770      	bx	lr
 8005c22:	46c0      	nop			; (mov r8, r8)

08005c24 <VVBS_Init>:
  * @param  pHandle related Handle of VirtualBusVoltageSensor_Handle_t
  * @retval none
  */
__weak void VVBS_Init( VirtualBusVoltageSensor_Handle_t * pHandle )
{
  pHandle->_Super.FaultState = MC_NO_ERROR;
 8005c24:	2300      	movs	r3, #0
 8005c26:	8103      	strh	r3, [r0, #8]
  pHandle->_Super.LatestConv = pHandle->ExpectedVbus_d;
 8005c28:	8943      	ldrh	r3, [r0, #10]
 8005c2a:	8083      	strh	r3, [r0, #4]
  pHandle->_Super.AvBusVoltage_d = pHandle->ExpectedVbus_d;
 8005c2c:	80c3      	strh	r3, [r0, #6]
}
 8005c2e:	4770      	bx	lr

08005c30 <memset>:
 8005c30:	0003      	movs	r3, r0
 8005c32:	1882      	adds	r2, r0, r2
 8005c34:	4293      	cmp	r3, r2
 8005c36:	d100      	bne.n	8005c3a <memset+0xa>
 8005c38:	4770      	bx	lr
 8005c3a:	7019      	strb	r1, [r3, #0]
 8005c3c:	3301      	adds	r3, #1
 8005c3e:	e7f9      	b.n	8005c34 <memset+0x4>

08005c40 <__libc_init_array>:
 8005c40:	b570      	push	{r4, r5, r6, lr}
 8005c42:	2600      	movs	r6, #0
 8005c44:	4c0c      	ldr	r4, [pc, #48]	; (8005c78 <__libc_init_array+0x38>)
 8005c46:	4d0d      	ldr	r5, [pc, #52]	; (8005c7c <__libc_init_array+0x3c>)
 8005c48:	1b64      	subs	r4, r4, r5
 8005c4a:	10a4      	asrs	r4, r4, #2
 8005c4c:	42a6      	cmp	r6, r4
 8005c4e:	d109      	bne.n	8005c64 <__libc_init_array+0x24>
 8005c50:	2600      	movs	r6, #0
 8005c52:	f000 f823 	bl	8005c9c <_init>
 8005c56:	4c0a      	ldr	r4, [pc, #40]	; (8005c80 <__libc_init_array+0x40>)
 8005c58:	4d0a      	ldr	r5, [pc, #40]	; (8005c84 <__libc_init_array+0x44>)
 8005c5a:	1b64      	subs	r4, r4, r5
 8005c5c:	10a4      	asrs	r4, r4, #2
 8005c5e:	42a6      	cmp	r6, r4
 8005c60:	d105      	bne.n	8005c6e <__libc_init_array+0x2e>
 8005c62:	bd70      	pop	{r4, r5, r6, pc}
 8005c64:	00b3      	lsls	r3, r6, #2
 8005c66:	58eb      	ldr	r3, [r5, r3]
 8005c68:	4798      	blx	r3
 8005c6a:	3601      	adds	r6, #1
 8005c6c:	e7ee      	b.n	8005c4c <__libc_init_array+0xc>
 8005c6e:	00b3      	lsls	r3, r6, #2
 8005c70:	58eb      	ldr	r3, [r5, r3]
 8005c72:	4798      	blx	r3
 8005c74:	3601      	adds	r6, #1
 8005c76:	e7f2      	b.n	8005c5e <__libc_init_array+0x1e>
 8005c78:	080068c4 	.word	0x080068c4
 8005c7c:	080068c4 	.word	0x080068c4
 8005c80:	080068c8 	.word	0x080068c8
 8005c84:	080068c4 	.word	0x080068c4

08005c88 <memcpy>:
 8005c88:	2300      	movs	r3, #0
 8005c8a:	b510      	push	{r4, lr}
 8005c8c:	429a      	cmp	r2, r3
 8005c8e:	d100      	bne.n	8005c92 <memcpy+0xa>
 8005c90:	bd10      	pop	{r4, pc}
 8005c92:	5ccc      	ldrb	r4, [r1, r3]
 8005c94:	54c4      	strb	r4, [r0, r3]
 8005c96:	3301      	adds	r3, #1
 8005c98:	e7f8      	b.n	8005c8c <memcpy+0x4>
	...

08005c9c <_init>:
 8005c9c:	b5f8      	push	{r3, r4, r5, r6, r7, lr}
 8005c9e:	46c0      	nop			; (mov r8, r8)
 8005ca0:	bcf8      	pop	{r3, r4, r5, r6, r7}
 8005ca2:	bc08      	pop	{r3}
 8005ca4:	469e      	mov	lr, r3
 8005ca6:	4770      	bx	lr

08005ca8 <_fini>:
 8005ca8:	b5f8      	push	{r3, r4, r5, r6, r7, lr}
 8005caa:	46c0      	nop			; (mov r8, r8)
 8005cac:	bcf8      	pop	{r3, r4, r5, r6, r7}
 8005cae:	bc08      	pop	{r3}
 8005cb0:	469e      	mov	lr, r3
 8005cb2:	4770      	bx	lr
